TN:
SF:/home/ayush/Work/cychain-poc/include/bicycl/src/bicycl/CL_HSM2k.hpp
FNF:0
FNH:0
LF:0
LH:0
end_of_record
TN:
SF:/home/ayush/Work/cychain-poc/include/bicycl/src/bicycl/CL_HSM2k.inl
FN:246,249,_ZNK6BICYCL8CL_HSM2k8Cl_DeltaEv
FN:253,256,_ZNK6BICYCL8CL_HSM2k4Cl_GEv
FN:260,263,_ZNK6BICYCL8CL_HSM2k6DeltaKEv
FN:281,284,_ZNK6BICYCL8CL_HSM2k15compact_variantEv
FN:302,305,_ZNK6BICYCL8CL_HSM2k24encrypt_randomness_boundEv
FN:319,322,_ZNK6BICYCL8CL_HSM2k10power_of_hERNS_3QFIERKNS_3MpzE
FN:327,405,_ZNK6BICYCL8CL_HSM2k10power_of_fERKNS_3MpzE
FN:409,455,_ZNK6BICYCL8CL_HSM2k9dlog_in_FERKNS_3QFIE
FN:459,474,_ZNK6BICYCL8CL_HSM2k26from_Cl_DeltaK_to_Cl_DeltaERNS_3QFIE
FN:499,503,_ZNK6BICYCL8CL_HSM2k7encryptERKNS_6_Utils16CL_HSM_PublicKeyIS0_EERKNS1_16CL_HSM_ClearTextIS0_EERKNS_3MpzE
FN:509,513,_ZNK6BICYCL8CL_HSM2k7encryptERKNS_6_Utils16CL_HSM_PublicKeyIS0_EERKNS1_16CL_HSM_ClearTextIS0_EERNS_7RandGenE
FN:523,527,_ZNK6BICYCL8CL_HSM2k7decryptERKNS_6_Utils16CL_HSM_SecretKeyIS0_EERKNS1_17CL_HSM_CipherTextIS0_EE
FN:641,648,_ZNK6BICYCL8CL_HSM2k16raise_to_power_MERKNS_10ClassGroupERNS_3QFIE
FN:654,666,_ZNK6BICYCL8CL_HSM2k15F_kerphi_squareERNS_3MpzES2_S2_S2_
FN:673,687,_ZNK6BICYCL8CL_HSM2k12F_kerphi_divERNS_3MpzERKS1_S2_S2_S2_
FNDA:0,_ZNK6BICYCL8CL_HSM2k8Cl_DeltaEv
FNDA:0,_ZNK6BICYCL8CL_HSM2k4Cl_GEv
FNDA:0,_ZNK6BICYCL8CL_HSM2k6DeltaKEv
FNDA:0,_ZNK6BICYCL8CL_HSM2k15compact_variantEv
FNDA:0,_ZNK6BICYCL8CL_HSM2k24encrypt_randomness_boundEv
FNDA:0,_ZNK6BICYCL8CL_HSM2k10power_of_hERNS_3QFIERKNS_3MpzE
FNDA:0,_ZNK6BICYCL8CL_HSM2k10power_of_fERKNS_3MpzE
FNDA:0,_ZNK6BICYCL8CL_HSM2k9dlog_in_FERKNS_3QFIE
FNDA:0,_ZNK6BICYCL8CL_HSM2k26from_Cl_DeltaK_to_Cl_DeltaERNS_3QFIE
FNDA:0,_ZNK6BICYCL8CL_HSM2k7encryptERKNS_6_Utils16CL_HSM_PublicKeyIS0_EERKNS1_16CL_HSM_ClearTextIS0_EERKNS_3MpzE
FNDA:0,_ZNK6BICYCL8CL_HSM2k7encryptERKNS_6_Utils16CL_HSM_PublicKeyIS0_EERKNS1_16CL_HSM_ClearTextIS0_EERNS_7RandGenE
FNDA:0,_ZNK6BICYCL8CL_HSM2k7decryptERKNS_6_Utils16CL_HSM_SecretKeyIS0_EERKNS1_17CL_HSM_CipherTextIS0_EE
FNDA:0,_ZNK6BICYCL8CL_HSM2k16raise_to_power_MERKNS_10ClassGroupERNS_3QFIE
FNDA:0,_ZNK6BICYCL8CL_HSM2k15F_kerphi_squareERNS_3MpzES2_S2_S2_
FNDA:0,_ZNK6BICYCL8CL_HSM2k12F_kerphi_divERNS_3MpzERKS1_S2_S2_S2_
FNF:15
FNH:0
DA:246,0
DA:248,0
DA:253,0
DA:255,0
DA:260,0
DA:262,0
DA:281,0
DA:283,0
DA:302,0
DA:304,0
DA:319,0
DA:321,0
DA:322,0
DA:327,0
DA:329,0
DA:330,0
DA:332,0
DA:336,0
DA:337,0
DA:338,0
DA:340,0
DA:342,0
DA:345,0
DA:346,0
DA:347,0
DA:349,0
DA:350,0
DA:351,0
DA:353,0
DA:354,0
DA:355,0
DA:357,0
DA:358,0
DA:359,0
DA:361,0
DA:362,0
DA:363,0
DA:364,0
DA:367,0
DA:369,0
DA:370,0
DA:371,0
DA:372,0
DA:374,0
DA:375,0
DA:376,0
DA:377,0
DA:379,0
DA:380,0
DA:385,0
DA:387,0
DA:389,0
DA:390,0
DA:391,0
DA:394,0
DA:395,0
DA:397,0
DA:399,0
DA:400,0
DA:403,0
DA:404,0
DA:409,0
DA:411,0
DA:420,0
DA:422,0
DA:424,0
DA:426,0
DA:431,0
DA:432,0
DA:433,0
DA:434,0
DA:436,0
DA:438,0
DA:440,0
DA:443,0
DA:444,0
DA:446,0
DA:448,0
DA:450,0
DA:452,0
DA:454,0
DA:455,0
DA:459,0
DA:461,0
DA:462,0
DA:463,0
DA:464,0
DA:466,0
DA:467,0
DA:468,0
DA:469,0
DA:470,0
DA:471,0
DA:472,0
DA:473,0
DA:474,0
DA:499,0
DA:502,0
DA:509,0
DA:512,0
DA:523,0
DA:526,0
DA:641,0
DA:644,0
DA:646,0
DA:648,0
DA:654,0
DA:657,0
DA:658,0
DA:659,0
DA:660,0
DA:661,0
DA:662,0
DA:663,0
DA:664,0
DA:665,0
DA:666,0
DA:673,0
DA:677,0
DA:678,0
DA:679,0
DA:680,0
DA:681,0
DA:682,0
DA:683,0
DA:684,0
DA:685,0
DA:686,0
DA:687,0
LF:129
LH:0
end_of_record
TN:
SF:/home/ayush/Work/cychain-poc/include/bicycl/src/bicycl/CL_HSM_utils.hpp
FNF:0
FNH:0
LF:0
LH:0
end_of_record
TN:
SF:/home/ayush/Work/cychain-poc/include/bicycl/src/bicycl/CL_HSM_utils.inl
FN:117,123,_ZN6BICYCL6_Utils16CL_HSM_ClearTextINS_8CL_HSMqkEEC2ERKS2_RKNS_3MpzE
FN:128,132,_ZN6BICYCL6_Utils16CL_HSM_ClearTextINS_8CL_HSMqkEEC2ERKS2_RNS_7RandGenE
FN:137,150,_ZN6BICYCL6_Utils16CL_HSM_ClearTextINS_8CL_HSM2kEEC2ERKS2_RKNS0_16CL_HSM_SecretKeyIS2_EERKNS0_17CL_HSM_CipherTextIS2_EE
FN:177,200,_ZN6BICYCL6_Utils17CL_HSM_CipherTextINS_8CL_HSM2kEEC2ERKS2_RKNS0_16CL_HSM_PublicKeyIS2_EERKNS0_16CL_HSM_ClearTextIS2_EERKNS_3MpzE
FN:177,200,_ZN6BICYCL6_Utils17CL_HSM_CipherTextINS_8CL_HSMqkEEC2ERKS2_RKNS0_16CL_HSM_PublicKeyIS2_EERKNS0_16CL_HSM_ClearTextIS2_EERKNS_3MpzE
FN:205,231,_ZN6BICYCL6_Utils17CL_HSM_CipherTextINS_8CL_HSMqkEEC2ERKS2_RKNS0_16CL_HSM_PublicKeyIS2_EERKS3_SB_RKNS_3MpzE
FN:236,263,_ZN6BICYCL6_Utils17CL_HSM_CipherTextINS_8CL_HSMqkEEC2ERKS2_RKNS0_16CL_HSM_PublicKeyIS2_EERKS3_RKNS_3MpzESE_
FN:268,271,_ZNK6BICYCL6_Utils17CL_HSM_CipherTextINS_8CL_HSM2kEE2c1Ev
FN:268,271,_ZNK6BICYCL6_Utils17CL_HSM_CipherTextINS_8CL_HSMqkEE2c1Ev
FN:27,33,_ZN6BICYCL6_Utils16CL_HSM_SecretKeyINS_8CL_HSMqkEEC2ERKS2_RKNS_3MpzE
FN:276,279,_ZNK6BICYCL6_Utils17CL_HSM_CipherTextINS_8CL_HSM2kEE2c2Ev
FN:276,279,_ZNK6BICYCL6_Utils17CL_HSM_CipherTextINS_8CL_HSMqkEE2c2Ev
FN:38,42,_ZN6BICYCL6_Utils16CL_HSM_SecretKeyINS_8CL_HSMqkEEC2ERKS2_RNS_7RandGenE
FN:47,64,_ZN6BICYCL6_Utils16CL_HSM_PublicKeyINS_8CL_HSMqkEEC2ERKS2_RKNS0_16CL_HSM_SecretKeyIS2_EE
FN:69,86,_ZN6BICYCL6_Utils16CL_HSM_PublicKeyINS_8CL_HSMqkEEC2ERKS2_RKNS_3QFIE
FN:90,93,_ZNK6BICYCL6_Utils16CL_HSM_PublicKeyINS_8CL_HSMqkEE3eltEv
FN:98,103,_ZNK6BICYCL6_Utils16CL_HSM_PublicKeyINS_8CL_HSM2kEE14exponentiationERKS2_RNS_3QFIERKNS_3MpzE
FN:98,103,_ZNK6BICYCL6_Utils16CL_HSM_PublicKeyINS_8CL_HSMqkEE14exponentiationERKS2_RNS_3QFIERKNS_3MpzE
FNDA:4203,_ZN6BICYCL6_Utils16CL_HSM_ClearTextINS_8CL_HSMqkEEC2ERKS2_RKNS_3MpzE
FNDA:4,_ZN6BICYCL6_Utils16CL_HSM_ClearTextINS_8CL_HSMqkEEC2ERKS2_RNS_7RandGenE
FNDA:0,_ZN6BICYCL6_Utils16CL_HSM_ClearTextINS_8CL_HSM2kEEC2ERKS2_RKNS0_16CL_HSM_SecretKeyIS2_EERKNS0_17CL_HSM_CipherTextIS2_EE
FNDA:0,_ZN6BICYCL6_Utils17CL_HSM_CipherTextINS_8CL_HSM2kEEC2ERKS2_RKNS0_16CL_HSM_PublicKeyIS2_EERKNS0_16CL_HSM_ClearTextIS2_EERKNS_3MpzE
FNDA:4205,_ZN6BICYCL6_Utils17CL_HSM_CipherTextINS_8CL_HSMqkEEC2ERKS2_RKNS0_16CL_HSM_PublicKeyIS2_EERKNS0_16CL_HSM_ClearTextIS2_EERKNS_3MpzE
FNDA:8397,_ZN6BICYCL6_Utils17CL_HSM_CipherTextINS_8CL_HSMqkEEC2ERKS2_RKNS0_16CL_HSM_PublicKeyIS2_EERKS3_SB_RKNS_3MpzE
FNDA:4202,_ZN6BICYCL6_Utils17CL_HSM_CipherTextINS_8CL_HSMqkEEC2ERKS2_RKNS0_16CL_HSM_PublicKeyIS2_EERKS3_RKNS_3MpzESE_
FNDA:0,_ZNK6BICYCL6_Utils17CL_HSM_CipherTextINS_8CL_HSM2kEE2c1Ev
FNDA:4200,_ZNK6BICYCL6_Utils17CL_HSM_CipherTextINS_8CL_HSMqkEE2c1Ev
FNDA:4204,_ZN6BICYCL6_Utils16CL_HSM_SecretKeyINS_8CL_HSMqkEEC2ERKS2_RKNS_3MpzE
FNDA:0,_ZNK6BICYCL6_Utils17CL_HSM_CipherTextINS_8CL_HSM2kEE2c2Ev
FNDA:2,_ZNK6BICYCL6_Utils17CL_HSM_CipherTextINS_8CL_HSMqkEE2c2Ev
FNDA:4,_ZN6BICYCL6_Utils16CL_HSM_SecretKeyINS_8CL_HSMqkEEC2ERKS2_RNS_7RandGenE
FNDA:8,_ZN6BICYCL6_Utils16CL_HSM_PublicKeyINS_8CL_HSMqkEEC2ERKS2_RKNS0_16CL_HSM_SecretKeyIS2_EE
FNDA:1,_ZN6BICYCL6_Utils16CL_HSM_PublicKeyINS_8CL_HSMqkEEC2ERKS2_RKNS_3QFIE
FNDA:2,_ZNK6BICYCL6_Utils16CL_HSM_PublicKeyINS_8CL_HSMqkEE3eltEv
FNDA:0,_ZNK6BICYCL6_Utils16CL_HSM_PublicKeyINS_8CL_HSM2kEE14exponentiationERKS2_RNS_3QFIERKNS_3MpzE
FNDA:16804,_ZNK6BICYCL6_Utils16CL_HSM_PublicKeyINS_8CL_HSMqkEE14exponentiationERKS2_RNS_3QFIERKNS_3MpzE
FNF:18
FNH:13
DA:27,4204
DA:29,4204
DA:31,4204
DA:32,0
DA:33,4204
DA:38,4
DA:40,4
DA:42,4
DA:47,8
DA:48,8
DA:50,8
DA:52,8
DA:53,8
DA:55,8
DA:56,5728
DA:58,5720
DA:59,8
DA:60,5720
DA:61,8
DA:62,5720
DA:64,8
DA:69,1
DA:70,1
DA:72,1
DA:74,1
DA:75,1
DA:77,1
DA:78,716
DA:80,715
DA:81,1
DA:82,715
DA:83,1
DA:84,715
DA:86,1
DA:90,2
DA:92,2
DA:98,16804
DA:101,16804
DA:102,16804
DA:103,16804
DA:117,4203
DA:119,4203
DA:121,4203
DA:122,0
DA:123,4203
DA:128,4
DA:130,4
DA:132,4
DA:137,0
DA:139,0
DA:141,0
DA:143,0
DA:144,0
DA:145,0
DA:147,0
DA:149,0
DA:150,0
DA:177,4205
DA:180,4205
DA:184,4205
DA:185,4205
DA:190,4205
DA:191,4205
DA:193,4205
DA:194,0
DA:195,4205
DA:198,4205
DA:200,4205
DA:205,8397
DA:208,8397
DA:212,8397
DA:213,8397
DA:218,8397
DA:220,8397
DA:221,0
DA:222,8397
DA:223,8397
DA:226,8397
DA:229,8397
DA:230,8397
DA:231,8397
DA:236,4202
DA:239,4202
DA:241,4202
DA:245,4202
DA:246,4202
DA:251,4202
DA:252,4202
DA:253,0
DA:254,4202
DA:255,4202
DA:258,4202
DA:261,4202
DA:262,4202
DA:263,4202
DA:268,4200
DA:270,4200
DA:276,2
DA:278,2
LF:99
LH:85
end_of_record
TN:
SF:/home/ayush/Work/cychain-poc/include/bicycl/src/bicycl/CL_HSMqk.hpp
FNF:0
FNH:0
LF:0
LH:0
end_of_record
TN:
SF:/home/ayush/Work/cychain-poc/include/bicycl/src/bicycl/CL_HSMqk.inl
FN:120,126,_ZN6BICYCL8CL_HSMqkC2ERKNS_3MpzEmS3_jbS3_
FN:129,133,_ZN6BICYCL8CL_HSMqkC2ERKNS_3MpzEmS3_jb
FN:138,142,_ZN6BICYCL8CL_HSMqkC2ERKNS_3MpzEmS3_j
FN:155,158,_ZN6BICYCL8CL_HSMqkC2ERKNS_3MpzEmS3_
FN:257,260,_ZNK6BICYCL8CL_HSMqk1qEv
FN:292,295,_ZNK6BICYCL8CL_HSMqk8Cl_DeltaEv
FN:299,302,_ZNK6BICYCL8CL_HSMqk4Cl_GEv
FN:306,309,_ZNK6BICYCL8CL_HSMqk6DeltaKEv
FN:313,316,_ZNK6BICYCL8CL_HSMqk5DeltaEv
FN:327,330,_ZNK6BICYCL8CL_HSMqk15compact_variantEv
FN:34,117,_ZN6BICYCL8CL_HSMqkC2ERKNS_3MpzEmS3_jbS3_S3_
FN:356,359,_ZNK6BICYCL8CL_HSMqk15secretkey_boundEv
FN:363,366,_ZNK6BICYCL8CL_HSMqk15cleartext_boundEv
FN:370,373,_ZNK6BICYCL8CL_HSMqk24encrypt_randomness_boundEv
FN:387,391,_ZNK6BICYCL8CL_HSMqk10power_of_hERNS_3QFIERKNS_3MpzE
FN:407,543,_ZNK6BICYCL8CL_HSMqk10power_of_fERKNS_3MpzE
FN:547,598,_ZNK6BICYCL8CL_HSMqk9dlog_in_FERKNS_3QFIE
FN:602,606,_ZNK6BICYCL8CL_HSMqk26from_Cl_DeltaK_to_Cl_DeltaERNS_3QFIE
FN:610,613,_ZNK6BICYCL8CL_HSMqk6keygenERNS_7RandGenE
FN:617,620,_ZNK6BICYCL8CL_HSMqk6keygenERKNS_6_Utils16CL_HSM_SecretKeyIS0_EE
FN:633,637,_ZNK6BICYCL8CL_HSMqk7encryptERKNS_6_Utils16CL_HSM_PublicKeyIS0_EERKNS1_16CL_HSM_ClearTextIS0_EERKNS_3MpzE
FN:644,648,_ZNK6BICYCL8CL_HSMqk7encryptERKNS_6_Utils16CL_HSM_PublicKeyIS0_EERKNS1_16CL_HSM_ClearTextIS0_EERNS_7RandGenE
FN:666,680,_ZNK6BICYCL8CL_HSMqk15partial_decryptERKNS_6_Utils16CL_HSM_SecretKeyIS0_EERKNS_3MpzERKNS1_17CL_HSM_CipherTextIS0_EE
FN:695,702,_ZNK6BICYCL8CL_HSMqk15add_ciphertextsERKNS_6_Utils16CL_HSM_PublicKeyIS0_EERKNS1_17CL_HSM_CipherTextIS0_EES9_RNS_7RandGenE
FN:706,712,_ZNK6BICYCL8CL_HSMqk15add_ciphertextsERKNS_6_Utils16CL_HSM_PublicKeyIS0_EERKNS1_17CL_HSM_CipherTextIS0_EES9_RKNS_3MpzE
FN:724,731,_ZNK6BICYCL8CL_HSMqk16scal_ciphertextsERKNS_6_Utils16CL_HSM_PublicKeyIS0_EERKNS1_17CL_HSM_CipherTextIS0_EERKNS_3MpzERNS_7RandGenE
FN:735,741,_ZNK6BICYCL8CL_HSMqk16scal_ciphertextsERKNS_6_Utils16CL_HSM_PublicKeyIS0_EERKNS1_17CL_HSM_CipherTextIS0_EERKNS_3MpzESC_
FN:784,790,_ZN6BICYCL8CL_HSMqk14compute_DeltaKERKNS_3MpzES3_
FN:795,805,_ZN6BICYCL8CL_HSMqk13compute_DeltaERKNS_3MpzES3_m
FN:809,812,_ZNK6BICYCL8CL_HSMqk16raise_to_power_MERKNS_10ClassGroupERNS_3QFIE
FN:820,854,_ZNK6BICYCL8CL_HSMqk12F_kerphi_powERNS_3MpzERKS1_S4_
FN:862,905,_ZNK6BICYCL8CL_HSMqk12F_kerphi_divERNS_3MpzERKS1_mS4_
FNDA:1,_ZN6BICYCL8CL_HSMqkC2ERKNS_3MpzEmS3_jbS3_
FNDA:1,_ZN6BICYCL8CL_HSMqkC2ERKNS_3MpzEmS3_jb
FNDA:1,_ZN6BICYCL8CL_HSMqkC2ERKNS_3MpzEmS3_j
FNDA:1,_ZN6BICYCL8CL_HSMqkC2ERKNS_3MpzEmS3_
FNDA:2102,_ZNK6BICYCL8CL_HSMqk1qEv
FNDA:33604,_ZNK6BICYCL8CL_HSMqk8Cl_DeltaEv
FNDA:70164,_ZNK6BICYCL8CL_HSMqk4Cl_GEv
FNDA:4206,_ZNK6BICYCL8CL_HSMqk6DeltaKEv
FNDA:1,_ZNK6BICYCL8CL_HSMqk5DeltaEv
FNDA:21004,_ZNK6BICYCL8CL_HSMqk15compact_variantEv
FNDA:1,_ZN6BICYCL8CL_HSMqkC2ERKNS_3MpzEmS3_jbS3_S3_
FNDA:8412,_ZNK6BICYCL8CL_HSMqk15secretkey_boundEv
FNDA:4207,_ZNK6BICYCL8CL_HSMqk15cleartext_boundEv
FNDA:16814,_ZNK6BICYCL8CL_HSMqk24encrypt_randomness_boundEv
FNDA:16812,_ZNK6BICYCL8CL_HSMqk10power_of_hERNS_3QFIERKNS_3MpzE
FNDA:4205,_ZNK6BICYCL8CL_HSMqk10power_of_fERKNS_3MpzE
FNDA:2,_ZNK6BICYCL8CL_HSMqk9dlog_in_FERKNS_3QFIE
FNDA:0,_ZNK6BICYCL8CL_HSMqk26from_Cl_DeltaK_to_Cl_DeltaERNS_3QFIE
FNDA:4,_ZNK6BICYCL8CL_HSMqk6keygenERNS_7RandGenE
FNDA:6,_ZNK6BICYCL8CL_HSMqk6keygenERKNS_6_Utils16CL_HSM_SecretKeyIS0_EE
FNDA:4205,_ZNK6BICYCL8CL_HSMqk7encryptERKNS_6_Utils16CL_HSM_PublicKeyIS0_EERKNS1_16CL_HSM_ClearTextIS0_EERKNS_3MpzE
FNDA:4205,_ZNK6BICYCL8CL_HSMqk7encryptERKNS_6_Utils16CL_HSM_PublicKeyIS0_EERKNS1_16CL_HSM_ClearTextIS0_EERNS_7RandGenE
FNDA:4200,_ZNK6BICYCL8CL_HSMqk15partial_decryptERKNS_6_Utils16CL_HSM_SecretKeyIS0_EERKNS_3MpzERKNS1_17CL_HSM_CipherTextIS0_EE
FNDA:8397,_ZNK6BICYCL8CL_HSMqk15add_ciphertextsERKNS_6_Utils16CL_HSM_PublicKeyIS0_EERKNS1_17CL_HSM_CipherTextIS0_EES9_RNS_7RandGenE
FNDA:8397,_ZNK6BICYCL8CL_HSMqk15add_ciphertextsERKNS_6_Utils16CL_HSM_PublicKeyIS0_EERKNS1_17CL_HSM_CipherTextIS0_EES9_RKNS_3MpzE
FNDA:4202,_ZNK6BICYCL8CL_HSMqk16scal_ciphertextsERKNS_6_Utils16CL_HSM_PublicKeyIS0_EERKNS1_17CL_HSM_CipherTextIS0_EERKNS_3MpzERNS_7RandGenE
FNDA:4202,_ZNK6BICYCL8CL_HSMqk16scal_ciphertextsERKNS_6_Utils16CL_HSM_PublicKeyIS0_EERKNS1_17CL_HSM_CipherTextIS0_EERKNS_3MpzESC_
FNDA:1,_ZN6BICYCL8CL_HSMqk14compute_DeltaKERKNS_3MpzES3_
FNDA:1,_ZN6BICYCL8CL_HSMqk13compute_DeltaERKNS_3MpzES3_m
FNDA:1,_ZNK6BICYCL8CL_HSMqk16raise_to_power_MERKNS_10ClassGroupERNS_3QFIE
FNDA:0,_ZNK6BICYCL8CL_HSMqk12F_kerphi_powERNS_3MpzERKS1_S4_
FNDA:0,_ZNK6BICYCL8CL_HSMqk12F_kerphi_divERNS_3MpzERKS1_mS4_
FNF:32
FNH:29
DA:34,1
DA:36,1
DA:37,1
DA:38,1
DA:39,1
DA:40,1
DA:41,1
DA:42,1
DA:43,2
DA:46,1
DA:47,0
DA:48,1
DA:49,0
DA:50,1
DA:51,0
DA:52,1
DA:53,0
DA:54,1
DA:55,0
DA:58,1
DA:59,2
DA:61,1
DA:66,1
DA:67,1
DA:68,1
DA:69,1
DA:70,1
DA:71,1
DA:80,1
DA:81,1
DA:82,1
DA:85,1
DA:88,1
DA:90,1
DA:92,0
DA:93,0
DA:99,1
DA:100,1
DA:101,1
DA:106,1
DA:107,1
DA:108,1
DA:109,716
DA:111,715
DA:112,1
DA:113,715
DA:114,1
DA:115,715
DA:117,1
DA:120,1
DA:122,1
DA:124,1
DA:126,1
DA:129,1
DA:130,1
DA:131,1
DA:133,1
DA:138,1
DA:139,1
DA:140,1
DA:142,1
DA:155,1
DA:156,1
DA:158,1
DA:257,2102
DA:259,2102
DA:292,33604
DA:294,33604
DA:299,70164
DA:301,70164
DA:306,4206
DA:308,4206
DA:313,1
DA:315,1
DA:327,21004
DA:329,21004
DA:356,8412
DA:358,8412
DA:363,4207
DA:365,4207
DA:370,16814
DA:372,16814
DA:387,16812
DA:389,16812
DA:390,16812
DA:391,16812
DA:407,4205
DA:409,4205
DA:412,4205
DA:416,4205
DA:417,4205
DA:418,1024
DA:423,4205
DA:424,4205
DA:425,4205
DA:426,4205
DA:427,4205
DA:431,4205
DA:433,0
DA:436,0
DA:437,0
DA:438,4205
DA:441,0
DA:442,0
DA:444,0
DA:446,0
DA:459,0
DA:460,0
DA:461,0
DA:463,0
DA:464,0
DA:466,0
DA:469,0
DA:470,0
DA:471,0
DA:473,0
DA:474,0
DA:475,0
DA:477,0
DA:478,0
DA:479,0
DA:481,0
DA:482,0
DA:483,0
DA:485,0
DA:486,0
DA:487,0
DA:488,0
DA:491,0
DA:493,0
DA:494,0
DA:495,0
DA:497,0
DA:498,0
DA:499,0
DA:501,0
DA:502,0
DA:507,0
DA:508,0
DA:511,0
DA:513,0
DA:514,0
DA:516,0
DA:519,0
DA:521,0
DA:522,0
DA:523,0
DA:524,0
DA:527,0
DA:529,0
DA:531,0
DA:532,0
DA:533,0
DA:534,0
DA:535,0
DA:536,0
DA:537,0
DA:540,0
DA:541,0
DA:542,0
DA:547,2
DA:549,2
DA:550,2
DA:552,2
DA:556,2
DA:558,0
DA:559,0
DA:563,2
DA:564,2
DA:566,2
DA:567,2
DA:568,2
DA:570,2
DA:572,2
DA:576,0
DA:578,0
DA:580,0
DA:582,0
DA:583,0
DA:584,0
DA:588,0
DA:590,0
DA:591,0
DA:592,0
DA:594,0
DA:595,2
DA:597,2
DA:598,0
DA:602,0
DA:604,0
DA:605,0
DA:606,0
DA:610,4
DA:612,4
DA:617,6
DA:619,6
DA:633,4205
DA:636,4205
DA:644,4205
DA:647,4205
DA:666,4200
DA:669,4200
DA:670,4200
DA:672,4200
DA:673,4200
DA:675,4200
DA:676,4200
DA:677,0
DA:679,4200
DA:680,4200
DA:695,8397
DA:700,8397
DA:701,16794
DA:702,8397
DA:706,8397
DA:711,8397
DA:724,4202
DA:729,4202
DA:730,8404
DA:731,4202
DA:735,4202
DA:740,4202
DA:784,1
DA:786,1
DA:787,1
DA:788,1
DA:789,1
DA:790,0
DA:795,1
DA:797,1
DA:798,1
DA:799,1
DA:800,2
DA:802,1
DA:804,1
DA:805,1
DA:809,1
DA:811,1
DA:812,1
DA:820,0
DA:822,0
DA:824,0
DA:827,0
DA:828,0
DA:829,0
DA:831,0
DA:832,0
DA:833,0
DA:834,0
DA:836,0
DA:839,0
DA:841,0
DA:842,0
DA:843,0
DA:845,0
DA:846,0
DA:850,0
DA:851,0
DA:852,0
DA:854,0
DA:862,0
DA:865,0
DA:867,0
DA:868,0
DA:870,0
DA:873,0
DA:874,0
DA:875,0
DA:876,0
DA:878,0
DA:879,0
DA:881,0
DA:882,0
DA:884,0
DA:886,0
DA:888,0
DA:890,0
DA:892,0
DA:894,0
DA:895,0
DA:899,0
DA:900,0
DA:902,0
DA:903,0
DA:904,0
DA:905,0
LF:286
LH:151
end_of_record
TN:
SF:/home/ayush/Work/cychain-poc/include/bicycl/src/bicycl/Joye_Libert.inl
FN:133,136,_ZNK6BICYCL10JoyeLibert9PublicKey1NEv
FN:247,250,_ZNK6BICYCL10JoyeLibert24encrypt_randomness_boundERKNS0_9PublicKeyE
FN:252,255,_ZNK6BICYCL10JoyeLibert15cleartext_boundEv
FNDA:0,_ZNK6BICYCL10JoyeLibert9PublicKey1NEv
FNDA:0,_ZNK6BICYCL10JoyeLibert24encrypt_randomness_boundERKNS0_9PublicKeyE
FNDA:0,_ZNK6BICYCL10JoyeLibert15cleartext_boundEv
FNF:3
FNH:0
DA:133,0
DA:135,0
DA:247,0
DA:249,0
DA:252,0
DA:254,0
LF:6
LH:0
end_of_record
TN:
SF:/home/ayush/Work/cychain-poc/include/bicycl/src/bicycl/gmp_extras.hpp
FNF:0
FNH:0
LF:0
LH:0
end_of_record
TN:
SF:/home/ayush/Work/cychain-poc/include/bicycl/src/bicycl/gmp_extras.inl
FN:1072,1075,_ZN6BICYCL3Mpz3gcdERS0_RKS0_S3_
FN:1079,1082,_ZN6BICYCL3Mpz6gcdextERS0_S1_S1_RKS0_S3_
FN:1093,1096,_ZN6BICYCL3Mpz4sqrtERS0_RKS0_
FN:1100,1103,_ZN6BICYCL3Mpz7root4thERS0_RKS0_
FN:1112,1149,_ZN6BICYCL3Mpz14sqrt_mod_primeERS0_RKS0_S3_
FN:115,148,_ZN6BICYCL12_GLOBAL__N_1L21mpn_highest_two_limbsEPmS1_S1_S1_S1_S1_l
FN:1153,1156,_ZN6BICYCL3Mpz6removeERS0_RKS0_S3_
FN:1196,1248,_ZN6BICYCL3Mpz18ceil_abslog_squareERS0_RKS0_
FN:1266,1426,_ZN6BICYCL3Mpz14partial_euclidERS0_S1_S1_S1_S1_S1_lS1_S1_
FN:1438,1441,_ZN6BICYCLlsERSoRKNS_3MpzE
FN:1444,1447,_ZN6BICYCLrsERSiRNS_3MpzE
FN:1451,1454,_ZN6BICYCL3Mpz7richcmpERKS0_S2_
FN:1458,1461,_ZN6BICYCL3Mpz7richcmpERKS0_m
FN:1475,1478,_ZN6BICYCL7RandGenC2Ev
FN:1496,1499,_ZN6BICYCL7RandGenD2Ev
FN:1510,1515,_ZN6BICYCL7RandGen10random_mpzERKNS_3MpzE
FN:160,204,_ZN6BICYCL12_GLOBAL__N_1L10mpn_addmulEPmPKmlS3_lS1_
FN:1610,1655,_ZN6BICYCL3JSFC2ERKNS_3MpzES3_
FN:1659,1665,_ZNK6BICYCL3JSFixEm
FN:1669,1672,_ZN6BICYCL3JSF3setEmii
FN:224,224,_ZN6BICYCL3Mpz19ModInverseExceptionC2Ev
FN:229,232,_ZN6BICYCL3MpzC2Ev
FN:236,239,_ZN6BICYCL3MpzC2ERKS0_
FN:243,252,_ZN6BICYCL3MpzC2EOS0_
FN:265,268,_ZN6BICYCL3MpzC2Em
FN:303,306,_ZN6BICYCL3MpzD2Ev
FN:310,314,_ZN6BICYCL3MpzaSERKS0_
FN:318,322,_ZN6BICYCL3MpzaSEOS0_
FN:326,330,_ZN6BICYCL3MpzaSEPK12__mpf_struct
FN:334,338,_ZN6BICYCL3MpzaSEm
FN:350,357,_ZN6BICYCL3MpzaSERKNSt7__cxx1112basic_stringIcSt11char_traitsIcESaIcEEE
FN:370,373,_ZNK6BICYCL3MpzeqERKS0_
FN:377,380,_ZNK6BICYCL3MpzneERKS0_
FN:384,387,_ZNK6BICYCL3MpzltERKS0_
FN:391,394,_ZNK6BICYCL3MpzgtERKS0_
FN:419,422,_ZNK6BICYCL3MpzneEm
FN:433,436,_ZNK6BICYCL3MpzgtEm
FN:496,499,_ZNK6BICYCL3MpzcvPK12__mpz_structEv
FN:523,526,_ZNK6BICYCL3Mpz5nbitsEv
FN:537,540,_ZNK6BICYCL3Mpz6nlimbsEv
FN:544,547,_ZNK6BICYCL3Mpz3sgnEv
FN:551,554,_ZNK6BICYCL3Mpz7is_zeroEv
FN:558,561,_ZNK6BICYCL3Mpz6is_oddEv
FN:565,568,_ZNK6BICYCL3Mpz7is_evenEv
FN:572,575,_ZNK6BICYCL3Mpz6is_oneEv
FN:581,585,_ZNK6BICYCL3Mpz8is_primeEi
FN:589,592,_ZNK6BICYCL3Mpz15is_divisible_byERKS0_
FN:596,599,_ZN6BICYCL3Mpz3negEv
FN:607,626,_ZNK6BICYCL3Mpz12extract_bitsEmm
FN:630,633,_ZNK6BICYCL3Mpz6tstbitEm
FN:637,640,_ZN6BICYCL3Mpz6setbitEm
FN:644,648,_ZNK6BICYCL3Mpz4mod4Ev
FN:660,663,_ZNK6BICYCL3Mpz4val2Ev
FN:667,670,_ZN6BICYCL3Mpz9nextprimeEv
FN:688,691,_ZNK6BICYCL3Mpz9kroneckerERKS0_
FN:695,698,_ZN6BICYCL3Mpz4swapERS0_S1_
FN:702,705,_ZN6BICYCL3Mpz3absERS0_RKS0_
FN:709,712,_ZN6BICYCL3Mpz6cmpabsERKS0_S2_
FN:716,719,_ZN6BICYCL3Mpz3addERS0_RKS0_S3_
FN:723,726,_ZN6BICYCL3Mpz3addERS0_RKS0_m
FN:737,743,_ZN6BICYCL3Mpz7set_strERS0_PKcm
FN:747,750,_ZN6BICYCL3Mpz10from_bytesERS0_Phm
FN:754,760,_ZN6BICYCL3Mpz8to_bytesERKS0_Phm
FN:764,767,_ZN6BICYCL3Mpz3subERS0_RKS0_S3_
FN:771,774,_ZN6BICYCL3Mpz3subERS0_RKS0_m
FN:778,781,_ZN6BICYCL3Mpz3mulERS0_RKS0_S3_
FN:785,788,_ZN6BICYCL3Mpz3mulERS0_RKS0_m
FN:792,795,_ZN6BICYCL3Mpz7mulby2kERS0_RKS0_m
FN:807,810,_ZN6BICYCL3Mpz6mulby2ERS0_RKS0_
FN:814,817,_ZN6BICYCL3Mpz6mulby4ERS0_RKS0_
FN:821,824,_ZN6BICYCL3Mpz6addmulERS0_RKS0_S3_
FN:828,831,_ZN6BICYCL3Mpz6submulERS0_RKS0_S3_
FN:835,838,_ZN6BICYCL3Mpz7divby2kERS0_RKS0_m
FN:842,845,_ZN6BICYCL3Mpz6divby2ERS0_RKS0_
FN:849,852,_ZN6BICYCL3Mpz6divby4ERS0_RKS0_
FN:856,859,_ZN6BICYCL3Mpz8divexactERS0_RKS0_S3_
FN:870,873,_ZN6BICYCL3Mpz7cdiv_qrERS0_S1_RKS0_S3_
FN:877,880,_ZN6BICYCL3Mpz7fdiv_qrERS0_S1_RKS0_S3_
FN:884,887,_ZN6BICYCL3Mpz3modERS0_RKS0_S3_
FN:891,894,_ZN6BICYCL3Mpz5mod2kERS0_RKS0_m
FN:898,910,_ZN6BICYCL3Mpz14mod2k_centeredERS0_RKS0_m
FN:914,919,_ZN6BICYCL3Mpz11mod_inverseERS0_RKS0_S3_
FN:934,946,_ZN6BICYCL3Mpz14mod_inverse_2kERS0_RKS0_mS1_
FN:950,953,_ZN6BICYCL3Mpz7pow_modERS0_RKS0_S3_S3_
FNDA:0,_ZN6BICYCL3Mpz3gcdERS0_RKS0_S3_
FNDA:24841589,_ZN6BICYCL3Mpz6gcdextERS0_S1_S1_RKS0_S3_
FNDA:1,_ZN6BICYCL3Mpz4sqrtERS0_RKS0_
FNDA:33618,_ZN6BICYCL3Mpz7root4thERS0_RKS0_
FNDA:1,_ZN6BICYCL3Mpz14sqrt_mod_primeERS0_RKS0_S3_
FNDA:202135460,_ZN6BICYCL12_GLOBAL__N_1L21mpn_highest_two_limbsEPmS1_S1_S1_S1_S1_l
FNDA:2,_ZN6BICYCL3Mpz6removeERS0_RKS0_S3_
FNDA:1,_ZN6BICYCL3Mpz18ceil_abslog_squareERS0_RKS0_
FNDA:22543673,_ZN6BICYCL3Mpz14partial_euclidERS0_S1_S1_S1_S1_S1_lS1_S1_
FNDA:0,_ZN6BICYCLlsERSoRKNS_3MpzE
FNDA:0,_ZN6BICYCLrsERSiRNS_3MpzE
FNDA:129687,_ZN6BICYCL3Mpz7richcmpERKS0_S2_
FNDA:2,_ZN6BICYCL3Mpz7richcmpERKS0_m
FNDA:4234,_ZN6BICYCL7RandGenC2Ev
FNDA:4234,_ZN6BICYCL7RandGenD2Ev
FNDA:21014,_ZN6BICYCL7RandGen10random_mpzERKNS_3MpzE
FNDA:4,_ZN6BICYCL12_GLOBAL__N_1L10mpn_addmulEPmPKmlS3_lS1_
FNDA:33616,_ZN6BICYCL3JSFC2ERKNS_3MpzES3_
FNDA:16102064,_ZNK6BICYCL3JSFixEm
FNDA:16028981,_ZN6BICYCL3JSF3setEmii
FNDA:0,_ZN6BICYCL3Mpz19ModInverseExceptionC2Ev
FNDA:3852762,_ZN6BICYCL3MpzC2Ev
FNDA:1236936,_ZN6BICYCL3MpzC2ERKS0_
FNDA:336674,_ZN6BICYCL3MpzC2EOS0_
FNDA:5523606,_ZN6BICYCL3MpzC2Em
FNDA:10949978,_ZN6BICYCL3MpzD2Ev
FNDA:43270745,_ZN6BICYCL3MpzaSERKS0_
FNDA:213915,_ZN6BICYCL3MpzaSEOS0_
FNDA:1,_ZN6BICYCL3MpzaSEPK12__mpf_struct
FNDA:4610166,_ZN6BICYCL3MpzaSEm
FNDA:4202,_ZN6BICYCL3MpzaSERKNSt7__cxx1112basic_stringIcSt11char_traitsIcESaIcEEE
FNDA:0,_ZNK6BICYCL3MpzeqERKS0_
FNDA:0,_ZNK6BICYCL3MpzneERKS0_
FNDA:129687,_ZNK6BICYCL3MpzltERKS0_
FNDA:0,_ZNK6BICYCL3MpzgtERKS0_
FNDA:2,_ZNK6BICYCL3MpzneEm
FNDA:0,_ZNK6BICYCL3MpzgtEm
FNDA:242559,_ZNK6BICYCL3MpzcvPK12__mpz_structEv
FNDA:113465,_ZNK6BICYCL3Mpz5nbitsEv
FNDA:22543673,_ZNK6BICYCL3Mpz6nlimbsEv
FNDA:8608071,_ZNK6BICYCL3Mpz3sgnEv
FNDA:8519818,_ZNK6BICYCL3Mpz7is_zeroEv
FNDA:361522741,_ZNK6BICYCL3Mpz6is_oddEv
FNDA:4206,_ZNK6BICYCL3Mpz7is_evenEv
FNDA:22543675,_ZNK6BICYCL3Mpz6is_oneEv
FNDA:2,_ZNK6BICYCL3Mpz8is_primeEi
FNDA:4307711,_ZNK6BICYCL3Mpz15is_divisible_byERKS0_
FNDA:383480322,_ZN6BICYCL3Mpz3negEv
FNDA:1540706,_ZNK6BICYCL3Mpz12extract_bitsEmm
FNDA:32259658,_ZNK6BICYCL3Mpz6tstbitEm
FNDA:0,_ZN6BICYCL3Mpz6setbitEm
FNDA:33620,_ZNK6BICYCL3Mpz4mod4Ev
FNDA:0,_ZNK6BICYCL3Mpz4val2Ev
FNDA:121279,_ZN6BICYCL3Mpz9nextprimeEv
FNDA:121284,_ZNK6BICYCL3Mpz9kroneckerERKS0_
FNDA:718397979,_ZN6BICYCL3Mpz4swapERS0_S1_
FNDA:33619,_ZN6BICYCL3Mpz3absERS0_RKS0_
FNDA:361455507,_ZN6BICYCL3Mpz6cmpabsERKS0_S2_
FNDA:560966712,_ZN6BICYCL3Mpz3addERS0_RKS0_S3_
FNDA:60231,_ZN6BICYCL3Mpz3addERS0_RKS0_m
FNDA:2,_ZN6BICYCL3Mpz7set_strERS0_PKcm
FNDA:2102,_ZN6BICYCL3Mpz10from_bytesERS0_Phm
FNDA:2,_ZN6BICYCL3Mpz8to_bytesERKS0_Phm
FNDA:22582519,_ZN6BICYCL3Mpz3subERS0_RKS0_S3_
FNDA:61053,_ZN6BICYCL3Mpz3subERS0_RKS0_m
FNDA:221609406,_ZN6BICYCL3Mpz3mulERS0_RKS0_S3_
FNDA:1,_ZN6BICYCL3Mpz3mulERS0_RKS0_m
FNDA:14103697,_ZN6BICYCL3Mpz7mulby2kERS0_RKS0_m
FNDA:14070079,_ZN6BICYCL3Mpz6mulby2ERS0_RKS0_
FNDA:33617,_ZN6BICYCL3Mpz6mulby4ERS0_RKS0_
FNDA:27139505,_ZN6BICYCL3Mpz6addmulERS0_RKS0_S3_
FNDA:491188292,_ZN6BICYCL3Mpz6submulERS0_RKS0_S3_
FNDA:731456049,_ZN6BICYCL3Mpz7divby2kERS0_RKS0_m
FNDA:731384609,_ZN6BICYCL3Mpz6divby2ERS0_RKS0_
FNDA:37822,_ZN6BICYCL3Mpz6divby4ERS0_RKS0_
FNDA:59745108,_ZN6BICYCL3Mpz8divexactERS0_RKS0_S3_
FNDA:361455507,_ZN6BICYCL3Mpz7cdiv_qrERS0_S1_RKS0_S3_
FNDA:22543673,_ZN6BICYCL3Mpz7fdiv_qrERS0_S1_RKS0_S3_
FNDA:9195865,_ZN6BICYCL3Mpz3modERS0_RKS0_S3_
FNDA:33616,_ZN6BICYCL3Mpz5mod2kERS0_RKS0_m
FNDA:0,_ZN6BICYCL3Mpz14mod2k_centeredERS0_RKS0_m
FNDA:4208,_ZN6BICYCL3Mpz11mod_inverseERS0_RKS0_S3_
FNDA:0,_ZN6BICYCL3Mpz14mod_inverse_2kERS0_RKS0_mS1_
FNDA:3,_ZN6BICYCL3Mpz7pow_modERS0_RKS0_S3_S3_
FNF:84
FNH:72
DA:115,202135460
DA:119,202135460
DA:121,202135460
DA:123,696
DA:124,696
DA:126,202134764
DA:132,0
DA:133,0
DA:134,0
DA:135,0
DA:136,0
DA:142,202134764
DA:143,202134764
DA:144,202134764
DA:145,202134764
DA:146,202134764
DA:148,202135460
DA:160,4
DA:164,4
DA:166,0
DA:167,0
DA:168,0
DA:170,0
DA:174,4
DA:175,4
DA:176,4
DA:178,4
DA:179,4
DA:181,0
DA:182,4
DA:183,4
DA:185,4
DA:187,4
DA:188,4
DA:195,0
DA:199,0
DA:201,4
DA:202,4
DA:203,4
DA:224,0
DA:229,3852762
DA:231,3852762
DA:232,3852762
DA:236,1236936
DA:238,1236936
DA:239,1236936
DA:243,336674
DA:245,336674
DA:246,336674
DA:247,336674
DA:249,336674
DA:250,336674
DA:251,336674
DA:252,336674
DA:265,5523606
DA:267,5523606
DA:268,5523606
DA:303,10949978
DA:305,10949978
DA:306,10949978
DA:310,43270745
DA:312,43270745
DA:313,43270745
DA:318,213915
DA:320,213915
DA:321,213915
DA:326,1
DA:328,1
DA:329,1
DA:334,4610166
DA:336,4610166
DA:337,4610166
DA:350,4202
DA:352,4202
DA:353,4202
DA:354,0
DA:355,0
DA:356,4202
DA:370,0
DA:372,0
DA:377,0
DA:379,0
DA:384,129687
DA:386,129687
DA:391,0
DA:393,0
DA:419,2
DA:421,2
DA:433,0
DA:435,0
DA:496,242559
DA:498,242559
DA:523,113465
DA:525,113465
DA:537,22543673
DA:539,22543673
DA:544,8608071
DA:546,8608071
DA:551,8519818
DA:553,8519818
DA:558,361522741
DA:560,361522741
DA:565,4206
DA:567,4206
DA:572,22543675
DA:574,22543675
DA:581,2
DA:583,2
DA:584,2
DA:589,4307711
DA:591,4307711
DA:596,383480322
DA:598,383480322
DA:599,383480322
DA:607,1540706
DA:610,1540706
DA:611,1540706
DA:612,1540706
DA:614,1540706
DA:616,1404114
DA:620,136592
DA:621,121959
DA:622,136592
DA:625,1540706
DA:630,32259658
DA:632,32259658
DA:637,0
DA:639,0
DA:640,0
DA:644,33620
DA:646,33620
DA:647,33620
DA:660,0
DA:662,0
DA:667,121279
DA:669,121279
DA:670,121279
DA:688,121284
DA:690,121284
DA:695,718397979
DA:697,718397979
DA:698,718397979
DA:702,33619
DA:704,33619
DA:705,33619
DA:709,361455507
DA:711,361455507
DA:716,560966712
DA:718,560966712
DA:719,560966712
DA:723,60231
DA:725,60231
DA:726,60231
DA:737,2
DA:739,2
DA:740,2
DA:741,0
DA:742,0
DA:743,2
DA:747,2102
DA:749,2102
DA:750,2102
DA:754,2
DA:757,2
DA:758,2
DA:759,0
DA:760,2
DA:764,22582519
DA:766,22582519
DA:767,22582519
DA:771,61053
DA:773,61053
DA:774,61053
DA:778,221609406
DA:780,221609406
DA:781,221609406
DA:785,1
DA:787,1
DA:788,1
DA:792,14103697
DA:794,14103697
DA:795,14103697
DA:807,14070079
DA:809,14070079
DA:810,14070079
DA:814,33617
DA:816,33617
DA:817,33617
DA:821,27139505
DA:823,27139505
DA:824,27139505
DA:828,491188292
DA:830,491188292
DA:831,491188292
DA:835,731456049
DA:837,731456049
DA:838,731456049
DA:842,731384609
DA:844,731384609
DA:845,731384609
DA:849,37822
DA:851,37822
DA:852,37822
DA:856,59745108
DA:858,59745108
DA:859,59745108
DA:870,361455507
DA:872,361455507
DA:873,361455507
DA:877,22543673
DA:879,22543673
DA:880,22543673
DA:884,9195865
DA:886,9195865
DA:887,9195865
DA:891,33616
DA:893,33616
DA:894,33616
DA:898,0
DA:900,0
DA:903,0
DA:905,0
DA:906,0
DA:907,0
DA:908,0
DA:910,0
DA:914,4208
DA:916,4208
DA:917,4208
DA:918,0
DA:919,4208
DA:934,0
DA:936,0
DA:937,0
DA:938,0
DA:939,0
DA:941,0
DA:942,0
DA:943,0
DA:944,0
DA:946,0
DA:950,3
DA:952,3
DA:953,3
DA:1072,0
DA:1074,0
DA:1075,0
DA:1079,24841589
DA:1081,24841589
DA:1082,24841589
DA:1093,1
DA:1095,1
DA:1096,1
DA:1100,33618
DA:1102,33618
DA:1103,33618
DA:1112,1
DA:1114,1
DA:1117,1
DA:1118,1
DA:1121,3
DA:1124,1
DA:1125,1
DA:1126,1
DA:1127,1
DA:1128,1
DA:1130,1
DA:1133,0
DA:1135,0
DA:1137,0
DA:1138,0
DA:1139,0
DA:1141,0
DA:1142,0
DA:1143,0
DA:1144,0
DA:1147,1
DA:1148,0
DA:1149,1
DA:1153,2
DA:1155,2
DA:1196,1
DA:1198,1
DA:1202,1
DA:1203,1
DA:1204,1
DA:1205,1
DA:1206,1
DA:1207,1
DA:1208,1
DA:1210,1
DA:1211,1
DA:1214,1
DA:1215,12
DA:1217,11
DA:1220,1
DA:1221,1
DA:1222,1
DA:1223,1
DA:1225,123
DA:1227,123
DA:1228,123
DA:1229,123
DA:1230,123
DA:1231,123
DA:1232,123
DA:1234,123
DA:1235,123
DA:1237,123
DA:1238,123
DA:1239,123
DA:1240,1
DA:1243,1
DA:1244,1
DA:1245,1
DA:1247,1
DA:1248,1
DA:1266,22543673
DA:1269,22543673
DA:1272,22543673
DA:1274,0
DA:1275,0
DA:1279,22543673
DA:1280,22543673
DA:1282,22543673
DA:1284,85858
DA:1285,85858
DA:1289,22457815
DA:1292,22457815
DA:1293,22457815
DA:1294,22457815
DA:1297,22457815
DA:1298,22457815
DA:1299,22457815
DA:1300,22457815
DA:1301,22457815
DA:1302,22457815
DA:1305,22457815
DA:1306,22457815
DA:1307,22457815
DA:1308,22457815
DA:1309,22457815
DA:1310,22457815
DA:1313,22457815
DA:1314,22457815
DA:1315,22457815
DA:1316,22457815
DA:1319,224593275
DA:1324,202135460
DA:1327,202135460
DA:1333,202135456
DA:1334,202135456
DA:1341,202135456
DA:1342,202135456
DA:1346,202135456
DA:1347,202135456
DA:1358,4
DA:1361,2
DA:1362,22
DA:1363,2
DA:1364,2
DA:1365,4
DA:1366,2
DA:1368,2
DA:1369,2
DA:1371,2
DA:1374,0
DA:1375,0
DA:1376,0
DA:1377,0
DA:1378,0
DA:1379,0
DA:1381,0
DA:1382,0
DA:1386,2
DA:1387,2
DA:1390,2
DA:1392,2
DA:1393,2
DA:1394,2
DA:1395,2
DA:1400,0
DA:1402,0
DA:1403,0
DA:1404,0
DA:1405,0
DA:1411,22457815
DA:1412,22457815
DA:1413,22457815
DA:1414,22457815
DA:1415,22457815
DA:1416,22457815
DA:1419,22543673
DA:1422,0
DA:1423,0
DA:1424,0
DA:1426,22543673
DA:1438,0
DA:1440,0
DA:1444,0
DA:1446,0
DA:1451,129687
DA:1453,129687
DA:1458,2
DA:1460,2
DA:1475,4234
DA:1477,4234
DA:1478,4234
DA:1496,4234
DA:1498,4234
DA:1499,4234
DA:1510,21014
DA:1512,21014
DA:1513,21014
DA:1514,21014
DA:1515,0
DA:1610,33616
DA:1611,67232
DA:1613,33616
DA:1614,33616
DA:1615,33616
DA:1616,33616
DA:1617,33616
DA:1618,33616
DA:1619,33616
DA:1621,16062597
DA:1628,16028981
DA:1629,16028981
DA:1631,16028981
DA:1632,10467104
DA:1635,5561877
DA:1636,5561877
DA:1639,16028981
DA:1640,10410340
DA:1643,5618641
DA:1644,5618641
DA:1647,16028981
DA:1649,16028981
DA:1650,16028981
DA:1653,33616
DA:1654,22883
DA:1655,33616
DA:1659,16102064
DA:1661,16102064
DA:1662,16039714
DA:1664,62350
DA:1669,16028981
DA:1671,16028981
DA:1672,16028981
LF:449
LH:363
end_of_record
TN:
SF:/home/ayush/Work/cychain-poc/include/bicycl/src/bicycl/qfi.hpp
FN:57,57,_ZN6BICYCL3QFIC2ERKS0_
FN:59,59,_ZN6BICYCL3QFIC2EOS0_
FN:62,62,_ZN6BICYCL3QFIaSERKS0_
FN:63,63,_ZN6BICYCL3QFIaSEOS0_
FNDA:280297,_ZN6BICYCL3QFIC2ERKS0_
FNDA:84224,_ZN6BICYCL3QFIC2EOS0_
FNDA:159737,_ZN6BICYCL3QFIaSERKS0_
FNDA:71305,_ZN6BICYCL3QFIaSEOS0_
FNF:4
FNH:4
DA:57,280297
DA:59,84224
DA:62,159737
DA:63,71305
LF:4
LH:4
end_of_record
TN:
SF:/home/ayush/Work/cychain-poc/include/bicycl/src/bicycl/qfi.inl
FN:115,118,_ZNK6BICYCL3QFI1aEv
FN:1162,1251,_ZN6BICYCL3QFI5nupowERS0_RKS0_RKNS_3MpzEmmS3_S3_S3_S6_
FN:122,125,_ZNK6BICYCL3QFI1bEv
FN:129,132,_ZNK6BICYCL3QFI1cEv
FN:1294,1309,_ZN6BICYCL10ClassGroupC2ERKNS_3MpzE
FN:1313,1316,_ZNK6BICYCL10ClassGroup12discriminantEv
FN:1320,1323,_ZNK6BICYCL10ClassGroup20default_nucomp_boundEv
FN:1334,1345,_ZNK6BICYCL10ClassGroup3oneEv
FN:1354,1364,_ZNK6BICYCL10ClassGroup9primeformERKNS_3MpzE
FN:138,146,_ZNK6BICYCL3QFI12discriminantEv
FN:1395,1439,_ZNK6BICYCL10ClassGroup18class_number_boundEv
FN:1442,1445,_ZNK6BICYCL10ClassGroup6nucompERNS_3QFIERKS1_S4_
FN:1448,1451,_ZNK6BICYCL10ClassGroup9nucompinvERNS_3QFIERKS1_S4_
FN:1454,1457,_ZNK6BICYCL10ClassGroup6nuduplERNS_3QFIERKS1_
FN:1474,1477,_ZNK6BICYCL10ClassGroup5nupowERNS_3QFIERKS1_RKNS_3MpzE
FN:1487,1491,_ZNK6BICYCL10ClassGroup5nupowERNS_3QFIERKS1_RKNS_3MpzEmmS4_S4_S4_
FN:152,155,_ZNK6BICYCL3QFI6is_oneEv
FN:172,176,_ZN6BICYCL3QFI3negEv
FN:250,258,_ZN6BICYCL3QFI4liftERKNS_3MpzE
FN:26,28,_ZN6BICYCL3QFIC2Ev
FN:264,271,_ZN6BICYCL3QFI9lift_2expEj
FN:291,303,_ZN6BICYCL3QFI16to_maximal_orderERKNS_3MpzES3_b
FN:312,328,_ZN6BICYCL3QFI21to_maximal_order_2expEjRKNS_3MpzEb
FN:32,55,_ZN6BICYCL3QFIC2ERKNS_3MpzES3_S3_b
FN:341,385,_ZNK6BICYCL3QFI21kernel_representativeERKNS_3MpzES3_
FN:397,435,_ZNK6BICYCL3QFI26kernel_representative_2expEmRKNS_3MpzE
FN:451,457,_ZN6BICYCL3QFI15set_c_from_discERKNS_3MpzE
FN:474,485,_ZN6BICYCL3QFI9normalizeERNS_3MpzES2_
FN:499,521,_ZN6BICYCL3QFI3rhoERNS_3MpzES2_
FN:531,535,_ZN6BICYCL3QFI9reductionEv
FN:538,548,_ZN6BICYCL3QFI9reductionERNS_3MpzES2_
FN:561,584,_ZN6BICYCL3QFI8prime_toERKNS_3MpzE
FN:590,610,_ZN6BICYCL3QFI13prime_to_2expEv
FN:684,818,_ZN6BICYCL3QFI6nucompERS0_RKS0_S3_RKNS_3MpzEbRNS0_10OpsAuxVarsE
FN:822,827,_ZN6BICYCL3QFI6nucompERS0_RKS0_S3_RKNS_3MpzEb
FN:862,955,_ZN6BICYCL3QFI6nuduplERS0_RKS0_RKNS_3MpzERNS0_10OpsAuxVarsE
FN:959,963,_ZN6BICYCL3QFI6nuduplERS0_RKS0_RKNS_3MpzE
FN:978,1064,_ZN6BICYCL3QFI5nupowERS0_RKS0_RKNS_3MpzES6_
FNDA:0,_ZNK6BICYCL3QFI1aEv
FNDA:33616,_ZN6BICYCL3QFI5nupowERS0_RKS0_RKNS_3MpzEmmS3_S3_S3_S6_
FNDA:2,_ZNK6BICYCL3QFI1bEv
FNDA:0,_ZNK6BICYCL3QFI1cEv
FNDA:33618,_ZN6BICYCL10ClassGroupC2ERKNS_3MpzE
FNDA:4207,_ZNK6BICYCL10ClassGroup12discriminantEv
FNDA:103770,_ZNK6BICYCL10ClassGroup20default_nucomp_boundEv
FNDA:33616,_ZNK6BICYCL10ClassGroup3oneEv
FNDA:1,_ZNK6BICYCL10ClassGroup9primeformERKNS_3MpzE
FNDA:33616,_ZNK6BICYCL3QFI12discriminantEv
FNDA:1,_ZNK6BICYCL10ClassGroup18class_number_boundEv
FNDA:50396,_ZNK6BICYCL10ClassGroup6nucompERNS_3QFIERKS1_S4_
FNDA:2,_ZNK6BICYCL10ClassGroup9nucompinvERNS_3QFIERKS1_S4_
FNDA:7151,_ZNK6BICYCL10ClassGroup6nuduplERNS_3QFIERKS1_
FNDA:12605,_ZNK6BICYCL10ClassGroup5nupowERNS_3QFIERKS1_RKNS_3MpzE
FNDA:33616,_ZNK6BICYCL10ClassGroup5nupowERNS_3QFIERKS1_RKNS_3MpzEmmS4_S4_S4_
FNDA:2,_ZNK6BICYCL3QFI6is_oneEv
FNDA:0,_ZN6BICYCL3QFI3negEv
FNDA:0,_ZN6BICYCL3QFI4liftERKNS_3MpzE
FNDA:1827892,_ZN6BICYCL3QFIC2Ev
FNDA:0,_ZN6BICYCL3QFI9lift_2expEj
FNDA:0,_ZN6BICYCL3QFI16to_maximal_orderERKNS_3MpzES3_b
FNDA:0,_ZN6BICYCL3QFI21to_maximal_order_2expEjRKNS_3MpzEb
FNDA:4205,_ZN6BICYCL3QFIC2ERKNS_3MpzES3_S3_b
FNDA:0,_ZNK6BICYCL3QFI21kernel_representativeERKNS_3MpzES3_
FNDA:0,_ZNK6BICYCL3QFI26kernel_representative_2expEmRKNS_3MpzE
FNDA:1,_ZN6BICYCL3QFI15set_c_from_discERKNS_3MpzE
FNDA:361455507,_ZN6BICYCL3QFI9normalizeERNS_3MpzES2_
FNDA:338911833,_ZN6BICYCL3QFI3rhoERNS_3MpzES2_
FNDA:1,_ZN6BICYCL3QFI9reductionEv
FNDA:22543674,_ZN6BICYCL3QFI9reductionERNS_3MpzES2_
FNDA:0,_ZN6BICYCL3QFI8prime_toERKNS_3MpzE
FNDA:0,_ZN6BICYCL3QFI13prime_to_2expEv
FNDA:8473594,_ZN6BICYCL3QFI6nucompERS0_RKS0_S3_RKNS_3MpzEbRNS0_10OpsAuxVarsE
FNDA:50398,_ZN6BICYCL3QFI6nucompERS0_RKS0_S3_RKNS_3MpzEb
FNDA:14070079,_ZN6BICYCL3QFI6nuduplERS0_RKS0_RKNS_3MpzERNS0_10OpsAuxVarsE
FNDA:7151,_ZN6BICYCL3QFI6nuduplERS0_RKS0_RKNS_3MpzE
FNDA:12605,_ZN6BICYCL3QFI5nupowERS0_RKS0_RKNS_3MpzES6_
FNF:38
FNH:27
DA:26,1827892
DA:28,1827892
DA:32,4205
DA:33,4205
DA:35,4205
DA:37,0
DA:38,0
DA:40,0
DA:41,0
DA:42,0
DA:43,0
DA:44,0
DA:46,0
DA:47,0
DA:49,0
DA:50,0
DA:52,0
DA:53,0
DA:54,0
DA:55,4205
DA:115,0
DA:117,0
DA:122,2
DA:124,2
DA:129,0
DA:131,0
DA:138,33616
DA:140,33616
DA:141,33616
DA:142,33616
DA:143,33616
DA:144,33616
DA:145,33616
DA:146,0
DA:152,2
DA:154,2
DA:172,0
DA:174,0
DA:175,0
DA:176,0
DA:250,0
DA:252,0
DA:254,0
DA:255,0
DA:256,0
DA:257,0
DA:258,0
DA:264,0
DA:266,0
DA:268,0
DA:269,0
DA:270,0
DA:271,0
DA:291,0
DA:294,0
DA:295,0
DA:296,0
DA:298,0
DA:299,0
DA:300,0
DA:301,0
DA:302,0
DA:303,0
DA:312,0
DA:315,0
DA:316,0
DA:317,0
DA:318,0
DA:319,0
DA:320,0
DA:321,0
DA:323,0
DA:324,0
DA:326,0
DA:327,0
DA:328,0
DA:341,0
DA:343,0
DA:346,0
DA:347,0
DA:356,0
DA:357,0
DA:358,0
DA:360,0
DA:361,0
DA:362,0
DA:363,0
DA:364,0
DA:366,0
DA:372,0
DA:373,0
DA:375,0
DA:376,0
DA:377,0
DA:379,0
DA:380,0
DA:381,0
DA:382,0
DA:384,0
DA:385,0
DA:397,0
DA:399,0
DA:400,0
DA:401,0
DA:405,0
DA:406,0
DA:407,0
DA:409,0
DA:410,0
DA:411,0
DA:412,0
DA:413,0
DA:415,0
DA:421,0
DA:422,0
DA:424,0
DA:425,0
DA:426,0
DA:428,0
DA:429,0
DA:430,0
DA:431,0
DA:432,0
DA:434,0
DA:435,0
DA:451,1
DA:453,1
DA:454,1
DA:455,1
DA:456,1
DA:457,1
DA:474,361455507
DA:476,361455507
DA:477,361455507
DA:478,182595532
DA:479,361455507
DA:481,361455507
DA:482,361455507
DA:483,361455507
DA:484,361455507
DA:485,361455507
DA:499,338911833
DA:504,338911833
DA:505,338911833
DA:506,338911833
DA:521,338911833
DA:531,1
DA:533,1
DA:534,1
DA:535,1
DA:538,22543674
DA:541,22543674
DA:543,361455507
DA:544,338911833
DA:546,22543674
DA:547,0
DA:548,22543674
DA:561,0
DA:563,0
DA:564,0
DA:565,0
DA:567,0
DA:568,0
DA:570,0
DA:571,0
DA:572,0
DA:573,0
DA:574,0
DA:575,0
DA:579,0
DA:580,0
DA:584,0
DA:590,0
DA:592,0
DA:594,0
DA:596,0
DA:597,0
DA:598,0
DA:599,0
DA:600,0
DA:601,0
DA:605,0
DA:606,0
DA:610,0
DA:684,8473594
DA:693,8473594
DA:695,8473594
DA:696,8473594
DA:697,8473594
DA:699,8473594
DA:701,3960560
DA:702,3960560
DA:703,3960560
DA:710,8473594
DA:714,8473594
DA:716,4165883
DA:717,4165883
DA:718,4165883
DA:720,4307711
DA:722,2009795
DA:723,2009795
DA:724,2009795
DA:728,2297916
DA:729,2297916
DA:730,2297916
DA:731,2297916
DA:732,2297916
DA:733,2297916
DA:734,2297916
DA:735,2297916
DA:736,2297916
DA:738,2297916
DA:740,2297916
DA:741,2297916
DA:742,2297916
DA:744,8473594
DA:745,8473594
DA:748,8473594
DA:753,8473594
DA:757,8473594
DA:758,8473594
DA:764,8473594
DA:765,8473594
DA:768,8473594
DA:769,8473594
DA:770,8473594
DA:772,8473594
DA:774,33616
DA:775,33616
DA:776,33616
DA:780,8439978
DA:781,8439978
DA:782,8439978
DA:786,8473594
DA:787,8473594
DA:788,8473594
DA:790,8473594
DA:791,8473594
DA:794,8473594
DA:797,8473594
DA:798,8473594
DA:801,8473594
DA:802,8473594
DA:805,8473594
DA:806,8473594
DA:807,8473594
DA:808,8473594
DA:813,8473594
DA:818,8473594
DA:822,50398
DA:825,50398
DA:826,50398
DA:827,50398
DA:862,14070079
DA:871,14070079
DA:877,14070079
DA:883,14070079
DA:885,0
DA:886,0
DA:890,14070079
DA:891,14070079
DA:895,14070079
DA:896,14070079
DA:899,14070079
DA:904,14070079
DA:905,14070079
DA:913,14070079
DA:914,14070079
DA:920,14070079
DA:921,14070079
DA:922,14070079
DA:924,14070079
DA:925,14070079
DA:926,14070079
DA:927,14070079
DA:928,14070079
DA:931,14070079
DA:934,14070079
DA:935,14070079
DA:938,14070079
DA:939,14070079
DA:942,14070079
DA:943,14070079
DA:944,14070079
DA:945,14070079
DA:950,14070079
DA:955,14070079
DA:959,7151
DA:961,7151
DA:962,7151
DA:963,7151
DA:978,12605
DA:980,12605
DA:982,0
DA:986,12605
DA:987,12605
DA:988,12605
DA:991,12605
DA:992,12605
DA:993,12605
DA:996,831930
DA:998,12605
DA:999,12605
DA:1000,403360
DA:1001,390755
DA:1003,12605
DA:1009,12605
DA:1010,12605
DA:1011,12605
DA:1012,12605
DA:1013,12605
DA:1014,12605
DA:1016,12605
DA:1017,12605
DA:1018,29307
DA:1019,16702
DA:1020,12605
DA:1024,1540706
DA:1026,1528101
DA:1027,1528101
DA:1028,1528101
DA:1030,1528101
DA:1032,776857
DA:1033,776857
DA:1037,751244
DA:1038,751244
DA:1039,751244
DA:1040,751244
DA:1042,751244
DA:1043,751244
DA:1044,751244
DA:1045,4448680
DA:1046,3697436
DA:1047,751244
DA:1048,751244
DA:1049,2276348
DA:1050,1525104
DA:1051,751244
DA:1055,12605
DA:1056,488
DA:1059,12605
DA:1061,0
DA:1063,428570
DA:1064,12605
DA:1162,33616
DA:1165,33616
DA:1167,0
DA:1169,33616
DA:1171,0
DA:1175,33616
DA:1176,33616
DA:1177,33616
DA:1179,33616
DA:1180,33616
DA:1183,33616
DA:1192,2756512
DA:1194,33616
DA:1195,33616
DA:1196,33616
DA:1197,33616
DA:1199,134464
DA:1201,705936
DA:1203,605088
DA:1204,605088
DA:1209,33616
DA:1210,33616
DA:1212,0
DA:1214,0
DA:1216,0
DA:1219,0
DA:1220,0
DA:1221,0
DA:1223,0
DA:1224,0
DA:1225,0
DA:1229,8067840
DA:1231,8034224
DA:1232,8034224
DA:1234,8034224
DA:1236,8034224
DA:1239,6070533
DA:1240,6070533
DA:1241,6070533
DA:1242,6070533
DA:1243,6070533
DA:1245,6070533
DA:1246,6070533
DA:1247,6070533
DA:1250,1411872
DA:1251,33616
DA:1294,33618
DA:1296,33618
DA:1297,0
DA:1299,33618
DA:1300,33618
DA:1301,0
DA:1307,33618
DA:1308,33618
DA:1309,33618
DA:1313,4207
DA:1315,4207
DA:1320,103770
DA:1322,103770
DA:1334,33616
DA:1336,33616
DA:1338,33616
DA:1339,33616
DA:1340,33616
DA:1341,33616
DA:1342,33616
DA:1344,33616
DA:1345,0
DA:1354,1
DA:1356,1
DA:1357,1
DA:1358,1
DA:1359,1
DA:1360,0
DA:1361,1
DA:1362,1
DA:1363,1
DA:1364,0
DA:1395,1
DA:1397,1
DA:1399,1
DA:1401,1
DA:1403,1
DA:1406,1
DA:1407,1
DA:1408,1
DA:1409,1
DA:1411,1
DA:1413,121280
DA:1415,121279
DA:1416,121279
DA:1417,60228
DA:1419,61051
DA:1420,121279
DA:1421,121279
DA:1422,121279
DA:1423,121279
DA:1426,1
DA:1427,1
DA:1428,1
DA:1429,1
DA:1430,1
DA:1431,1
DA:1432,1
DA:1434,1
DA:1436,1
DA:1437,1
DA:1438,1
DA:1442,50396
DA:1444,50396
DA:1445,50396
DA:1448,2
DA:1450,2
DA:1451,2
DA:1454,7151
DA:1456,7151
DA:1457,7151
DA:1474,12605
DA:1476,12605
DA:1477,12605
DA:1487,33616
DA:1490,33616
DA:1491,33616
LF:467
LH:311
end_of_record
TN:
SF:/home/ayush/Work/cychain-poc/src/CryptoUtils.cpp
FN:18,31,_ZN11CryptoUtils24hex_string_to_byte_arrayEPKcPhm
FN:33,38,_ZN11CryptoUtils11byte_to_hexEhPc
FN:40,47,_ZN11CryptoUtils24byte_array_to_hex_stringEPKhmPc
FN:49,54,_ZN11CryptoUtils11print_bytesEPhm
FN:56,63,_ZN11CryptoUtils15print_bignum256EP9bignum256
FN:65,70,_ZN11CryptoUtils10rand_bytesEPhm
FN:72,79,_ZN11CryptoUtils14rand_bignum256EPK9bignum256PS0_
FN:8,16,_ZN11CryptoUtils15hex_char_to_intEc
FNDA:3,_ZN11CryptoUtils24hex_string_to_byte_arrayEPKcPhm
FNDA:65,_ZN11CryptoUtils11byte_to_hexEhPc
FNDA:1,_ZN11CryptoUtils24byte_array_to_hex_stringEPKhmPc
FNDA:2,_ZN11CryptoUtils11print_bytesEPhm
FNDA:1,_ZN11CryptoUtils15print_bignum256EP9bignum256
FNDA:2101,_ZN11CryptoUtils10rand_bytesEPhm
FNDA:2101,_ZN11CryptoUtils14rand_bignum256EPK9bignum256PS0_
FNDA:258,_ZN11CryptoUtils15hex_char_to_intEc
FNF:8
FNH:8
DA:8,258
DA:9,258
DA:10,156
DA:11,102
DA:12,102
DA:13,0
DA:14,0
DA:15,0
DA:18,3
DA:19,3
DA:20,3
DA:21,0
DA:22,0
DA:24,3
DA:25,0
DA:26,0
DA:28,132
DA:29,129
DA:33,65
DA:34,65
DA:35,65
DA:36,65
DA:37,65
DA:38,65
DA:40,1
DA:41,1
DA:42,66
DA:44,65
DA:45,65
DA:47,1
DA:49,2
DA:50,131
DA:51,129
DA:53,2
DA:54,2
DA:56,1
DA:58,1
DA:59,33
DA:60,32
DA:62,1
DA:63,1
DA:65,2101
DA:66,2101
DA:67,0
DA:68,0
DA:70,2101
DA:72,2101
DA:74,2101
DA:75,2101
DA:76,2101
DA:77,0
DA:79,2101
LF:52
LH:42
end_of_record
TN:
SF:/home/ayush/Work/cychain-poc/src/PolicyContract.h
FN:7,7,_ZN14PolicyContractD0Ev
FN:7,7,_ZN14PolicyContractD2Ev
FNDA:0,_ZN14PolicyContractD0Ev
FNDA:1,_ZN14PolicyContractD2Ev
FNF:2
FNH:1
DA:7,1
LF:1
LH:1
end_of_record
TN:
SF:/home/ayush/Work/cychain-poc/src/ThreadPool.cpp
FN:11,11,_ZZZN10ThreadPoolC4EmENKUlvE_clEvENKUlvE_clEv
FN:27,35,_ZN10ThreadPoolD2Ev
FN:37,40,_ZN10ThreadPool4waitEv
FN:39,39,_ZZN10ThreadPool4waitEvENKUlvE_clEv
FN:4,25,_ZN10ThreadPoolC2Em
FN:6,23,_ZZN10ThreadPoolC4EmENKUlvE_clEv
FNDA:8568,_ZZZN10ThreadPoolC4EmENKUlvE_clEvENKUlvE_clEv
FNDA:1,_ZN10ThreadPoolD2Ev
FNDA:8,_ZN10ThreadPool4waitEv
FNDA:8426,_ZZN10ThreadPool4waitEvENKUlvE_clEv
FNDA:1,_ZN10ThreadPoolC2Em
FNDA:12,_ZZN10ThreadPoolC4EmENKUlvE_clEv
FNF:6
FNH:6
DA:4,1
DA:5,13
DA:6,12
DA:8,8460
DA:10,8460
DA:11,17028
DA:12,8460
DA:13,24
DA:14,8448
DA:15,8448
DA:16,8460
DA:18,8448
DA:19,8448
DA:20,8448
DA:21,8448
DA:22,16908
DA:25,1
DA:27,1
DA:29,1
DA:30,1
DA:31,1
DA:32,1
DA:33,13
DA:34,12
DA:35,1
DA:37,8
DA:38,8
DA:39,8434
DA:40,8
LF:29
LH:29
end_of_record
TN:
SF:/home/ayush/Work/cychain-poc/src/ThreadPool.h
FN:17,26,_ZN10ThreadPool7enqueueIM21AccessControlContractFvPKN6BICYCL3QFIEmmRS3_EJPS1_RS5_RmSB_St17reference_wrapperIS3_EEEEvOT_DpOT0_
FN:17,26,_ZN10ThreadPool7enqueueIM21AccessControlContractFvRSt6vectorISt5tupleIJN6BICYCL6_Utils17CL_HSM_CipherTextINS4_8CL_HSMqkEEE11curve_pointEESaISA_EEmmNS5_16CL_HSM_PublicKeyIS7_EERSA_EJPS1_St17reference_wrapperISC_ERmSM_RSF_SK_ISA_EEEEvOT_DpOT0_
FN:17,26,_ZN10ThreadPool7enqueueIM21AccessControlContractFvRSt6vectorISt5tupleIJN6BICYCL6_Utils17CL_HSM_CipherTextINS4_8CL_HSMqkEEES8_S8_EESaIS9_EEmmNS5_16CL_HSM_PublicKeyIS7_EERS9_EJPS1_St17reference_wrapperISB_ERmSL_RSE_SJ_IS9_EEEEvOT_DpOT0_
FN:17,26,_ZN10ThreadPool7enqueueIM4UserFvN6BICYCL8CL_HSMqkENS2_6_Utils16CL_HSM_PublicKeyIS3_EENS4_17CL_HSM_CipherTextIS3_EES8_RSt5tupleIJS8_S8_S8_EEEJPS1_RS3_RS6_RS8_SH_St17reference_wrapperISA_EEEEvOT_DpOT0_
FN:17,26,_ZN10ThreadPool7enqueueIM4UserFvN6BICYCL8CL_HSMqkENS2_6_Utils17CL_HSM_CipherTextIS3_EERNS2_3QFIEEJPS1_RS3_RS6_St17reference_wrapperIS7_EEEEvOT_DpOT0_
FN:17,26,_ZN10ThreadPool7enqueueIM4UserFvRN6BICYCL8CL_HSMqkERKNS2_6_Utils16CL_HSM_PublicKeyIS3_EERSt6vectorISt5tupleIJNS5_17CL_HSM_CipherTextIS3_EE11curve_pointEESaISF_EEPSt5mutexEJPS1_S4_RS7_St17reference_wrapperISH_ESK_EEEvOT_DpOT0_
FN:17,26,_ZN10ThreadPool7enqueueIM9ValidatorFvN6BICYCL8CL_HSMqkENS2_6_Utils16CL_HSM_PublicKeyIS3_EENS4_17CL_HSM_CipherTextIS3_EES8_RSt5tupleIJS8_S8_S8_EEEJPS1_RS3_RS6_RS8_SH_St17reference_wrapperISA_EEEEvOT_DpOT0_
FN:17,26,_ZN10ThreadPool7enqueueIM9ValidatorFvN6BICYCL8CL_HSMqkENS2_6_Utils16CL_HSM_PublicKeyIS3_EERSt5tupleIJNS4_17CL_HSM_CipherTextIS3_EE11curve_pointEEPSt5mutexEJPS1_RS3_RS6_St17reference_wrapperISB_ESE_EEEvOT_DpOT0_
FN:17,26,_ZN10ThreadPool7enqueueIM9ValidatorFvN6BICYCL8CL_HSMqkENS2_6_Utils17CL_HSM_CipherTextIS3_EERNS2_3QFIEEJPS1_RS3_RS6_St17reference_wrapperIS7_EEEEvOT_DpOT0_
FNDA:24,_ZN10ThreadPool7enqueueIM21AccessControlContractFvPKN6BICYCL3QFIEmmRS3_EJPS1_RS5_RmSB_St17reference_wrapperIS3_EEEEvOT_DpOT0_
FNDA:12,_ZN10ThreadPool7enqueueIM21AccessControlContractFvRSt6vectorISt5tupleIJN6BICYCL6_Utils17CL_HSM_CipherTextINS4_8CL_HSMqkEEE11curve_pointEESaISA_EEmmNS5_16CL_HSM_PublicKeyIS7_EERSA_EJPS1_St17reference_wrapperISC_ERmSM_RSF_SK_ISA_EEEEvOT_DpOT0_
FNDA:12,_ZN10ThreadPool7enqueueIM21AccessControlContractFvRSt6vectorISt5tupleIJN6BICYCL6_Utils17CL_HSM_CipherTextINS4_8CL_HSMqkEEES8_S8_EESaIS9_EEmmNS5_16CL_HSM_PublicKeyIS7_EERS9_EJPS1_St17reference_wrapperISB_ERmSL_RSE_SJ_IS9_EEEEvOT_DpOT0_
FNDA:100,_ZN10ThreadPool7enqueueIM4UserFvN6BICYCL8CL_HSMqkENS2_6_Utils16CL_HSM_PublicKeyIS3_EENS4_17CL_HSM_CipherTextIS3_EES8_RSt5tupleIJS8_S8_S8_EEEJPS1_RS3_RS6_RS8_SH_St17reference_wrapperISA_EEEEvOT_DpOT0_
FNDA:200,_ZN10ThreadPool7enqueueIM4UserFvN6BICYCL8CL_HSMqkENS2_6_Utils17CL_HSM_CipherTextIS3_EERNS2_3QFIEEJPS1_RS3_RS6_St17reference_wrapperIS7_EEEEvOT_DpOT0_
FNDA:100,_ZN10ThreadPool7enqueueIM4UserFvRN6BICYCL8CL_HSMqkERKNS2_6_Utils16CL_HSM_PublicKeyIS3_EERSt6vectorISt5tupleIJNS5_17CL_HSM_CipherTextIS3_EE11curve_pointEESaISF_EEPSt5mutexEJPS1_S4_RS7_St17reference_wrapperISH_ESK_EEEvOT_DpOT0_
FNDA:2000,_ZN10ThreadPool7enqueueIM9ValidatorFvN6BICYCL8CL_HSMqkENS2_6_Utils16CL_HSM_PublicKeyIS3_EENS4_17CL_HSM_CipherTextIS3_EES8_RSt5tupleIJS8_S8_S8_EEEJPS1_RS3_RS6_RS8_SH_St17reference_wrapperISA_EEEEvOT_DpOT0_
FNDA:2000,_ZN10ThreadPool7enqueueIM9ValidatorFvN6BICYCL8CL_HSMqkENS2_6_Utils16CL_HSM_PublicKeyIS3_EERSt5tupleIJNS4_17CL_HSM_CipherTextIS3_EE11curve_pointEEPSt5mutexEJPS1_RS3_RS6_St17reference_wrapperISB_ESE_EEEvOT_DpOT0_
FNDA:4000,_ZN10ThreadPool7enqueueIM9ValidatorFvN6BICYCL8CL_HSMqkENS2_6_Utils17CL_HSM_CipherTextIS3_EERNS2_3QFIEEJPS1_RS3_RS6_St17reference_wrapperIS7_EEEEvOT_DpOT0_
FNF:9
FNH:9
DA:17,8448
DA:18,8448
DA:20,8448
DA:21,8448
DA:22,0
DA:23,8448
DA:24,8448
DA:25,8448
DA:26,8448
LF:9
LH:8
end_of_record
TN:
SF:/home/ayush/Work/cychain-poc/src/cychain_sig_gen.cpp
FN:1004,1018,_ZN9UserGroup21participate_in_round3ENSt7__cxx1112basic_stringIcSt11char_traitsIcESaIcEEEPN6BICYCL3QFIES8_mP10ThreadPool
FN:1021,1235,main
FN:125,140,_ZN21AccessControlContract10get_policyERKNSt7__cxx1112basic_stringIcSt11char_traitsIcESaIcEEE
FN:143,158,_ZN21AccessControlContract14get_public_keyERKNSt7__cxx1112basic_stringIcSt11char_traitsIcESaIcEEE
FN:161,176,_ZN21AccessControlContract15get_cipher_textERKNSt7__cxx1112basic_stringIcSt11char_traitsIcESaIcEEE
FN:179,194,_ZN21AccessControlContract20get_verification_keyERKNSt7__cxx1112basic_stringIcSt11char_traitsIcESaIcEEE
FN:196,217,_ZN21AccessControlContract11add_r1_dataERSt6vectorISt5tupleIJN6BICYCL6_Utils17CL_HSM_CipherTextINS2_8CL_HSMqkEEE11curve_pointEESaIS8_EEmmNS3_16CL_HSM_PublicKeyIS5_EERS8_
FN:219,270,_ZN21AccessControlContract17upload_ug_r1_dataERKNSt7__cxx1112basic_stringIcSt11char_traitsIcESaIcEEEjS5_St6vectorISt5tupleIJN6BICYCL6_Utils17CL_HSM_CipherTextINSA_8CL_HSMqkEEE11curve_pointEESaISG_EE
FN:273,336,_ZN21AccessControlContract17upload_vn_r1_dataERKNSt7__cxx1112basic_stringIcSt11char_traitsIcESaIcEEESt6vectorISt5tupleIJN6BICYCL6_Utils17CL_HSM_CipherTextINSA_8CL_HSMqkEEE11curve_pointEESaISG_EEP10ThreadPool
FN:339,347,_ZN21AccessControlContract19get_active_requestsB5cxx11Ev
FN:350,360,_ZN21AccessControlContract15get_round1_dataERKNSt7__cxx1112basic_stringIcSt11char_traitsIcESaIcEEE
FN:362,381,_ZN21AccessControlContract11add_r2_dataERSt6vectorISt5tupleIJN6BICYCL6_Utils17CL_HSM_CipherTextINS2_8CL_HSMqkEEES6_S6_EESaIS7_EEmmNS3_16CL_HSM_PublicKeyIS5_EERS7_
FN:383,453,_ZN21AccessControlContract14upload_r2_dataENSt7__cxx1112basic_stringIcSt11char_traitsIcESaIcEEERSt6vectorISt5tupleIJN6BICYCL6_Utils17CL_HSM_CipherTextINS8_8CL_HSMqkEEESC_SC_EESaISD_EEP10ThreadPool
FN:40,54,_ZN20GroupsPolicyContract16check_complianceEjNSt7__cxx1112basic_stringIcSt11char_traitsIcESaIcEEE
FN:455,465,_ZN21AccessControlContract15get_round2_dataERKNSt7__cxx1112basic_stringIcSt11char_traitsIcESaIcEEE
FN:467,477,_ZN21AccessControlContract15nucomp_parallelEPKN6BICYCL3QFIEmmRS1_
FN:479,512,_ZN21AccessControlContract32agg_partial_decryptions_parallelEPKN6BICYCL3QFIEmRKNS0_6_Utils17CL_HSM_CipherTextINS0_8CL_HSMqkEEEP10ThreadPool
FN:514,546,_ZN21AccessControlContract14upload_r3_dataENSt7__cxx1112basic_stringIcSt11char_traitsIcESaIcEEEPN6BICYCL3QFIES8_mP10ThreadPool
FN:548,558,_ZN21AccessControlContract15get_round3_dataERKNSt7__cxx1112basic_stringIcSt11char_traitsIcESaIcEEE
FN:569,573,_ZN9Validator24set_decryption_key_shareEN6BICYCL3MpzE
FN:575,601,_ZN9Validator15compute_r1_dataEN6BICYCL8CL_HSMqkENS0_6_Utils16CL_HSM_PublicKeyIS1_EERSt5tupleIJNS2_17CL_HSM_CipherTextIS1_EE11curve_pointEEPSt5mutex
FN:603,619,_ZN9Validator15compute_r2_dataEN6BICYCL8CL_HSMqkENS0_6_Utils16CL_HSM_PublicKeyIS1_EENS2_17CL_HSM_CipherTextIS1_EES6_RSt5tupleIJS6_S6_S6_EE
FN:621,629,_ZN9Validator15compute_r3_dataEN6BICYCL8CL_HSMqkENS0_6_Utils17CL_HSM_CipherTextIS1_EERNS0_3QFIE
FN:642,645,_ZN16ValidatorNetworkC2EiP21AccessControlContractN6BICYCL8CL_HSMqkE
FN:647,650,_ZN16ValidatorNetwork4sizeEv
FN:655,685,_ZN16ValidatorNetwork22mock_dkg_and_setup_accEv
FN:687,690,_ZN16ValidatorNetwork18check_sig_requestsB5cxx11Ev
FN:692,725,_ZN16ValidatorNetwork21participate_in_round1ENSt7__cxx1112basic_stringIcSt11char_traitsIcESaIcEEEP10ThreadPool
FN:71,73,_ZN21AccessControlContractC2EN6BICYCL8CL_HSMqkE
FN:727,746,_ZN16ValidatorNetwork21participate_in_round2ENSt7__cxx1112basic_stringIcSt11char_traitsIcESaIcEEERSt6vectorISt5tupleIJN6BICYCL6_Utils17CL_HSM_CipherTextINS8_8CL_HSMqkEEESC_SC_EESaISD_EEmP10ThreadPool
FN:748,762,_ZN16ValidatorNetwork21participate_in_round3ENSt7__cxx1112basic_stringIcSt11char_traitsIcESaIcEEEPN6BICYCL3QFIES8_mP10ThreadPool
FN:76,85,_ZN21AccessControlContract18set_encryption_keyERKN6BICYCL6_Utils16CL_HSM_PublicKeyINS0_8CL_HSMqkEEE
FN:774,779,_ZN4User24set_decryption_key_shareEjN6BICYCL3MpzE
FN:781,806,_ZN4User15compute_r1_dataERN6BICYCL8CL_HSMqkERKNS0_6_Utils16CL_HSM_PublicKeyIS1_EERSt6vectorISt5tupleIJNS3_17CL_HSM_CipherTextIS1_EE11curve_pointEESaISD_EEPSt5mutex
FN:809,826,_ZN4User15compute_r2_dataEN6BICYCL8CL_HSMqkENS0_6_Utils16CL_HSM_PublicKeyIS1_EENS2_17CL_HSM_CipherTextIS1_EES6_RSt5tupleIJS6_S6_S6_EE
FN:828,836,_ZN4User15compute_r3_dataEN6BICYCL8CL_HSMqkENS0_6_Utils17CL_HSM_CipherTextIS1_EERNS0_3QFIE
FN:853,859,_ZN9UserGroupC2EiP14PolicyContractP21AccessControlContractN6BICYCL8CL_HSMqkE
FN:861,864,_ZN9UserGroup4sizeEv
FN:870,944,_ZN9UserGroup27mock_dkg_and_register_groupB5cxx11Ev
FN:88,95,_ZN21AccessControlContract18get_encryption_keyEv
FN:946,983,_ZN9UserGroup29initiate_signature_generationENSt7__cxx1112basic_stringIcSt11char_traitsIcESaIcEEEP10ThreadPool
FN:98,122,_ZN21AccessControlContract19register_user_groupB5cxx11EP14PolicyContractRKN6BICYCL6_Utils16CL_HSM_PublicKeyINS2_8CL_HSMqkEEERKNS3_17CL_HSM_CipherTextIS5_EEPh
FN:985,1002,_ZN9UserGroup21participate_in_round2ENSt7__cxx1112basic_stringIcSt11char_traitsIcESaIcEEERSt6vectorISt5tupleIJN6BICYCL6_Utils17CL_HSM_CipherTextINS8_8CL_HSMqkEEESC_SC_EESaISD_EEmP10ThreadPool
FNDA:1,_ZN9UserGroup21participate_in_round3ENSt7__cxx1112basic_stringIcSt11char_traitsIcESaIcEEEPN6BICYCL3QFIES8_mP10ThreadPool
FNDA:1,main
FNDA:1,_ZN21AccessControlContract10get_policyERKNSt7__cxx1112basic_stringIcSt11char_traitsIcESaIcEEE
FNDA:6,_ZN21AccessControlContract14get_public_keyERKNSt7__cxx1112basic_stringIcSt11char_traitsIcESaIcEEE
FNDA:2,_ZN21AccessControlContract15get_cipher_textERKNSt7__cxx1112basic_stringIcSt11char_traitsIcESaIcEEE
FNDA:1,_ZN21AccessControlContract20get_verification_keyERKNSt7__cxx1112basic_stringIcSt11char_traitsIcESaIcEEE
FNDA:12,_ZN21AccessControlContract11add_r1_dataERSt6vectorISt5tupleIJN6BICYCL6_Utils17CL_HSM_CipherTextINS2_8CL_HSMqkEEE11curve_pointEESaIS8_EEmmNS3_16CL_HSM_PublicKeyIS5_EERS8_
FNDA:1,_ZN21AccessControlContract17upload_ug_r1_dataERKNSt7__cxx1112basic_stringIcSt11char_traitsIcESaIcEEEjS5_St6vectorISt5tupleIJN6BICYCL6_Utils17CL_HSM_CipherTextINSA_8CL_HSMqkEEE11curve_pointEESaISG_EE
FNDA:1,_ZN21AccessControlContract17upload_vn_r1_dataERKNSt7__cxx1112basic_stringIcSt11char_traitsIcESaIcEEESt6vectorISt5tupleIJN6BICYCL6_Utils17CL_HSM_CipherTextINSA_8CL_HSMqkEEE11curve_pointEESaISG_EEP10ThreadPool
FNDA:1,_ZN21AccessControlContract19get_active_requestsB5cxx11Ev
FNDA:6,_ZN21AccessControlContract15get_round1_dataERKNSt7__cxx1112basic_stringIcSt11char_traitsIcESaIcEEE
FNDA:12,_ZN21AccessControlContract11add_r2_dataERSt6vectorISt5tupleIJN6BICYCL6_Utils17CL_HSM_CipherTextINS2_8CL_HSMqkEEES6_S6_EESaIS7_EEmmNS3_16CL_HSM_PublicKeyIS5_EERS7_
FNDA:1,_ZN21AccessControlContract14upload_r2_dataENSt7__cxx1112basic_stringIcSt11char_traitsIcESaIcEEERSt6vectorISt5tupleIJN6BICYCL6_Utils17CL_HSM_CipherTextINS8_8CL_HSMqkEEESC_SC_EESaISD_EEP10ThreadPool
FNDA:1,_ZN20GroupsPolicyContract16check_complianceEjNSt7__cxx1112basic_stringIcSt11char_traitsIcESaIcEEE
FNDA:3,_ZN21AccessControlContract15get_round2_dataERKNSt7__cxx1112basic_stringIcSt11char_traitsIcESaIcEEE
FNDA:24,_ZN21AccessControlContract15nucomp_parallelEPKN6BICYCL3QFIEmmRS1_
FNDA:2,_ZN21AccessControlContract32agg_partial_decryptions_parallelEPKN6BICYCL3QFIEmRKNS0_6_Utils17CL_HSM_CipherTextINS0_8CL_HSMqkEEEP10ThreadPool
FNDA:1,_ZN21AccessControlContract14upload_r3_dataENSt7__cxx1112basic_stringIcSt11char_traitsIcESaIcEEEPN6BICYCL3QFIES8_mP10ThreadPool
FNDA:1,_ZN21AccessControlContract15get_round3_dataERKNSt7__cxx1112basic_stringIcSt11char_traitsIcESaIcEEE
FNDA:2000,_ZN9Validator24set_decryption_key_shareEN6BICYCL3MpzE
FNDA:2000,_ZN9Validator15compute_r1_dataEN6BICYCL8CL_HSMqkENS0_6_Utils16CL_HSM_PublicKeyIS1_EERSt5tupleIJNS2_17CL_HSM_CipherTextIS1_EE11curve_pointEEPSt5mutex
FNDA:2000,_ZN9Validator15compute_r2_dataEN6BICYCL8CL_HSMqkENS0_6_Utils16CL_HSM_PublicKeyIS1_EENS2_17CL_HSM_CipherTextIS1_EES6_RSt5tupleIJS6_S6_S6_EE
FNDA:4000,_ZN9Validator15compute_r3_dataEN6BICYCL8CL_HSMqkENS0_6_Utils17CL_HSM_CipherTextIS1_EERNS0_3QFIE
FNDA:1,_ZN16ValidatorNetworkC2EiP21AccessControlContractN6BICYCL8CL_HSMqkE
FNDA:2104,_ZN16ValidatorNetwork4sizeEv
FNDA:1,_ZN16ValidatorNetwork22mock_dkg_and_setup_accEv
FNDA:1,_ZN16ValidatorNetwork18check_sig_requestsB5cxx11Ev
FNDA:1,_ZN16ValidatorNetwork21participate_in_round1ENSt7__cxx1112basic_stringIcSt11char_traitsIcESaIcEEEP10ThreadPool
FNDA:1,_ZN21AccessControlContractC2EN6BICYCL8CL_HSMqkE
FNDA:1,_ZN16ValidatorNetwork21participate_in_round2ENSt7__cxx1112basic_stringIcSt11char_traitsIcESaIcEEERSt6vectorISt5tupleIJN6BICYCL6_Utils17CL_HSM_CipherTextINS8_8CL_HSMqkEEESC_SC_EESaISD_EEmP10ThreadPool
FNDA:1,_ZN16ValidatorNetwork21participate_in_round3ENSt7__cxx1112basic_stringIcSt11char_traitsIcESaIcEEEPN6BICYCL3QFIES8_mP10ThreadPool
FNDA:1,_ZN21AccessControlContract18set_encryption_keyERKN6BICYCL6_Utils16CL_HSM_PublicKeyINS0_8CL_HSMqkEEE
FNDA:100,_ZN4User24set_decryption_key_shareEjN6BICYCL3MpzE
FNDA:100,_ZN4User15compute_r1_dataERN6BICYCL8CL_HSMqkERKNS0_6_Utils16CL_HSM_PublicKeyIS1_EERSt6vectorISt5tupleIJNS3_17CL_HSM_CipherTextIS1_EE11curve_pointEESaISD_EEPSt5mutex
FNDA:100,_ZN4User15compute_r2_dataEN6BICYCL8CL_HSMqkENS0_6_Utils16CL_HSM_PublicKeyIS1_EENS2_17CL_HSM_CipherTextIS1_EES6_RSt5tupleIJS6_S6_S6_EE
FNDA:200,_ZN4User15compute_r3_dataEN6BICYCL8CL_HSMqkENS0_6_Utils17CL_HSM_CipherTextIS1_EERNS0_3QFIE
FNDA:1,_ZN9UserGroupC2EiP14PolicyContractP21AccessControlContractN6BICYCL8CL_HSMqkE
FNDA:2106,_ZN9UserGroup4sizeEv
FNDA:1,_ZN9UserGroup27mock_dkg_and_register_groupB5cxx11Ev
FNDA:1,_ZN21AccessControlContract18get_encryption_keyEv
FNDA:1,_ZN9UserGroup29initiate_signature_generationENSt7__cxx1112basic_stringIcSt11char_traitsIcESaIcEEEP10ThreadPool
FNDA:1,_ZN21AccessControlContract19register_user_groupB5cxx11EP14PolicyContractRKN6BICYCL6_Utils16CL_HSM_PublicKeyINS2_8CL_HSMqkEEERKNS3_17CL_HSM_CipherTextIS5_EEPh
FNDA:1,_ZN9UserGroup21participate_in_round2ENSt7__cxx1112basic_stringIcSt11char_traitsIcESaIcEEERSt6vectorISt5tupleIJN6BICYCL6_Utils17CL_HSM_CipherTextINS8_8CL_HSMqkEEESC_SC_EESaISD_EEmP10ThreadPool
FNF:43
FNH:43
DA:40,1
DA:42,2
DA:43,1
DA:45,1
DA:47,1
DA:49,0
DA:53,1
DA:54,1
DA:71,1
DA:72,1
DA:73,2
DA:76,1
DA:78,1
DA:80,0
DA:83,1
DA:84,1
DA:85,1
DA:88,1
DA:90,1
DA:92,0
DA:94,1
DA:98,1
DA:100,1
DA:102,0
DA:105,1
DA:107,1
DA:108,1
DA:109,1
DA:110,1
DA:112,1
DA:114,1
DA:115,1
DA:118,2
DA:121,1
DA:122,1
DA:125,1
DA:127,1
DA:129,0
DA:132,1
DA:134,1
DA:138,0
DA:143,6
DA:145,6
DA:147,0
DA:150,6
DA:152,6
DA:156,0
DA:161,2
DA:163,2
DA:165,0
DA:168,2
DA:170,2
DA:174,0
DA:179,1
DA:181,1
DA:183,0
DA:186,1
DA:188,1
DA:192,0
DA:196,12
DA:201,12
DA:202,12
DA:205,12
DA:208,12
DA:210,2000
DA:212,1988
DA:213,1988
DA:216,12
DA:217,12
DA:219,1
DA:223,1
DA:225,0
DA:228,1
DA:230,1
DA:231,1
DA:233,0
DA:236,1
DA:237,1
DA:239,0
DA:242,1
DA:243,1
DA:244,1
DA:247,1
DA:250,1
DA:252,1
DA:254,100
DA:256,99
DA:257,99
DA:261,1
DA:262,1
DA:263,1
DA:264,1
DA:266,1
DA:267,1
DA:269,1
DA:270,1
DA:273,1
DA:275,1
DA:277,0
DA:280,1
DA:282,0
DA:285,1
DA:286,1
DA:287,1
DA:290,1
DA:291,1
DA:293,1
DA:294,1
DA:297,1
DA:300,13
DA:302,12
DA:306,13
DA:307,12
DA:308,12
DA:309,12
DA:311,12
DA:315,1
DA:318,1
DA:319,1
DA:321,12
DA:322,11
DA:323,11
DA:326,1
DA:327,1
DA:328,1
DA:329,1
DA:331,1
DA:334,1
DA:335,1
DA:336,1
DA:339,1
DA:341,1
DA:342,2
DA:344,1
DA:346,1
DA:347,0
DA:350,6
DA:352,6
DA:354,6
DA:358,0
DA:362,12
DA:367,12
DA:369,12
DA:370,12
DA:371,12
DA:373,2100
DA:375,2088
DA:376,2088
DA:377,2088
DA:380,12
DA:381,12
DA:383,1
DA:385,1
DA:387,0
DA:389,1
DA:391,1
DA:393,1
DA:394,1
DA:395,1
DA:398,1
DA:399,1
DA:401,1
DA:402,1
DA:405,1
DA:407,13
DA:409,12
DA:413,13
DA:414,12
DA:415,12
DA:416,12
DA:418,12
DA:422,1
DA:425,1
DA:426,1
DA:427,1
DA:429,12
DA:430,11
DA:431,11
DA:432,11
DA:436,1
DA:438,1
DA:439,1
DA:442,1
DA:443,1
DA:444,1
DA:446,1
DA:448,2
DA:449,1
DA:450,2
DA:452,1
DA:453,1
DA:455,3
DA:457,3
DA:459,3
DA:463,0
DA:467,24
DA:472,24
DA:473,4200
DA:475,4176
DA:477,24
DA:479,2
DA:484,2
DA:487,2
DA:488,2
DA:490,52
DA:493,26
DA:494,24
DA:495,24
DA:496,24
DA:498,24
DA:502,2
DA:503,2
DA:505,24
DA:507,22
DA:510,2
DA:511,4
DA:512,32
DA:514,1
DA:516,1
DA:518,0
DA:521,1
DA:523,1
DA:524,1
DA:526,1
DA:527,1
DA:529,1
DA:530,1
DA:532,1
DA:533,1
DA:534,1
DA:537,1
DA:538,1
DA:541,1
DA:542,1
DA:544,1
DA:545,1
DA:546,1
DA:548,1
DA:550,1
DA:552,1
DA:556,0
DA:569,2000
DA:571,2000
DA:572,2000
DA:573,2000
DA:575,2000
DA:580,2000
DA:582,2000
DA:586,2000
DA:589,2000
DA:591,2000
DA:592,2000
DA:594,2000
DA:595,2000
DA:597,2000
DA:598,2000
DA:600,2000
DA:601,2000
DA:603,2000
DA:609,2000
DA:610,2000
DA:612,2000
DA:613,2000
DA:615,2000
DA:616,2000
DA:618,2000
DA:619,2000
DA:621,4000
DA:625,4000
DA:626,4000
DA:628,4000
DA:629,4000
DA:642,3
DA:644,1
DA:645,1
DA:647,2104
DA:649,2104
DA:655,1
DA:657,1
DA:659,0
DA:662,1
DA:664,1
DA:667,1
DA:669,1
DA:670,1
DA:672,1
DA:673,2001
DA:675,2000
DA:676,2000
DA:677,2000
DA:678,2000
DA:680,1
DA:681,1
DA:683,1
DA:684,1
DA:685,1
DA:687,1
DA:689,1
DA:692,1
DA:694,1
DA:696,1
DA:698,1
DA:700,1
DA:702,1
DA:703,1
DA:706,2001
DA:708,2000
DA:711,1
DA:713,1
DA:714,1
DA:716,2001
DA:718,2000
DA:719,2000
DA:722,1
DA:724,2
DA:725,1
DA:727,1
DA:729,1
DA:731,1
DA:733,1
DA:735,1
DA:737,1
DA:739,1
DA:740,1
DA:741,2001
DA:743,2000
DA:744,2000
DA:746,1
DA:748,1
DA:750,1
DA:752,1
DA:754,1
DA:755,1
DA:756,2001
DA:758,2000
DA:759,2000
DA:760,2000
DA:762,1
DA:774,100
DA:776,100
DA:777,100
DA:778,100
DA:779,100
DA:781,100
DA:786,100
DA:788,100
DA:791,100
DA:794,100
DA:796,100
DA:797,100
DA:799,100
DA:800,100
DA:802,100
DA:803,100
DA:805,100
DA:806,100
DA:809,100
DA:816,100
DA:817,100
DA:819,100
DA:820,100
DA:822,100
DA:823,100
DA:825,100
DA:826,100
DA:828,200
DA:832,200
DA:833,200
DA:835,200
DA:836,200
DA:853,2
DA:854,1
DA:855,2
DA:856,1
DA:858,1
DA:859,1
DA:861,2106
DA:863,2106
DA:870,1
DA:872,1
DA:874,0
DA:877,1
DA:880,1
DA:882,1
DA:883,1
DA:885,1
DA:887,1
DA:888,1
DA:889,101
DA:891,100
DA:892,100
DA:893,100
DA:894,100
DA:895,100
DA:897,1
DA:898,1
DA:900,1
DA:902,1
DA:904,1
DA:905,1
DA:907,1
DA:910,1
DA:912,1
DA:913,1
DA:916,1
DA:918,1
DA:922,1
DA:924,1
DA:926,1
DA:927,1
DA:930,1
DA:933,1
DA:934,1
DA:937,1
DA:938,1
DA:940,1
DA:941,1
DA:943,2
DA:944,1
DA:946,1
DA:948,1
DA:950,0
DA:954,1
DA:957,1
DA:960,1
DA:961,1
DA:964,1
DA:966,1
DA:967,1
DA:969,1
DA:971,1
DA:972,1
DA:973,101
DA:975,100
DA:976,100
DA:979,1
DA:981,1
DA:982,2
DA:983,1
DA:985,1
DA:988,1
DA:989,1
DA:992,1
DA:993,1
DA:995,1
DA:996,1
DA:997,101
DA:999,100
DA:1000,100
DA:1002,1
DA:1004,1
DA:1007,1
DA:1008,1
DA:1010,1
DA:1011,1
DA:1012,101
DA:1014,100
DA:1015,100
DA:1016,100
DA:1018,1
DA:1021,1
DA:1024,1
DA:1025,0
DA:1026,0
DA:1030,1
DA:1031,1
DA:1032,1
DA:1035,1
DA:1036,0
DA:1037,0
DA:1040,1
DA:1041,1
DA:1042,1
DA:1044,1
DA:1045,1
DA:1048,1
DA:1049,1
DA:1051,1
DA:1053,1
DA:1054,2
DA:1055,0
DA:1056,0
DA:1059,1
DA:1060,1
DA:1061,1
DA:1063,1
DA:1065,1
DA:1066,1
DA:1067,1
DA:1068,1
DA:1069,1
DA:1071,1
DA:1072,1
DA:1074,1
DA:1075,1
DA:1077,1
DA:1078,1
DA:1079,1
DA:1080,1
DA:1082,1
DA:1083,1
DA:1084,1
DA:1085,1
DA:1086,1
DA:1088,1
DA:1089,1
DA:1091,1
DA:1093,1
DA:1094,1
DA:1096,1
DA:1097,1
DA:1098,1
DA:1099,1
DA:1101,1
DA:1102,1
DA:1103,1
DA:1104,1
DA:1105,1
DA:1107,1
DA:1108,1
DA:1109,1
DA:1111,1
DA:1112,1
DA:1114,1
DA:1115,1
DA:1118,1
DA:1119,2
DA:1121,1
DA:1122,1
DA:1124,1
DA:1125,1
DA:1127,1
DA:1128,1
DA:1130,1
DA:1131,1
DA:1132,1
DA:1134,1
DA:1135,1
DA:1136,1
DA:1139,1
DA:1140,1
DA:1143,1
DA:1145,2101
DA:1147,2100
DA:1150,1
DA:1151,1
DA:1153,1
DA:1154,1
DA:1157,1
DA:1159,1
DA:1160,1
DA:1162,1
DA:1163,1
DA:1165,1
DA:1166,1
DA:1167,1
DA:1169,1
DA:1170,1
DA:1171,1
DA:1174,1
DA:1175,4202
DA:1176,4202
DA:1178,1
DA:1179,1
DA:1181,1
DA:1182,1
DA:1185,1
DA:1187,1
DA:1188,1
DA:1190,1
DA:1191,1
DA:1193,1
DA:1195,1
DA:1196,1
DA:1197,1
DA:1199,1
DA:1200,1
DA:1201,1
DA:1202,1
DA:1204,1
DA:1205,1
DA:1210,1
DA:1211,1
DA:1212,1
DA:1215,1
DA:1216,1
DA:1217,1
DA:1220,1
DA:1223,1
DA:1225,1
DA:1227,1
DA:1231,0
DA:1234,1
DA:1235,4205
LF:594
LH:561
end_of_record
TN:
SF:/usr/include/c++/14.2.1/atomic
FN:838,838,_ZNSt6atomicIiEC2Ei
FNDA:1,_ZNSt6atomicIiEC2Ei
FNF:1
FNH:1
DA:838,1
LF:1
LH:1
end_of_record
TN:
SF:/usr/include/c++/14.2.1/bits/alloc_traits.h
FNF:0
FNH:0
DA:478,34194
DA:513,34194
DA:534,12704
DA:538,12704
DA:558,8467
DA:570,34211
DA:584,2
DA:944,56539
DA:945,56539
LF:9
LH:9
end_of_record
TN:
SF:/usr/include/c++/14.2.1/bits/allocator.h
FNF:0
FNH:0
DA:161,37836
DA:166,67240
DA:176,14
DA:182,71458
LF:4
LH:4
end_of_record
TN:
SF:/usr/include/c++/14.2.1/bits/atomic_base.h
FN:109,112,_ZStanSt12memory_orderSt23__memory_order_modifier
FN:358,358,_ZNSt13__atomic_baseIiEC2Ei
FN:360,361,_ZNKSt13__atomic_baseIiEcviEv
FN:397,398,_ZNSt13__atomic_baseIiEppEv
FN:405,406,_ZNSt13__atomic_baseIiEmmEv
FNDA:92,_ZStanSt12memory_orderSt23__memory_order_modifier
FNDA:1,_ZNSt13__atomic_baseIiEC2Ei
FNDA:92,_ZNKSt13__atomic_baseIiEcviEv
FNDA:8448,_ZNSt13__atomic_baseIiEppEv
FNDA:8448,_ZNSt13__atomic_baseIiEmmEv
FNF:5
FNH:5
DA:109,92
DA:111,92
DA:358,1
DA:360,92
DA:361,92
DA:397,8448
DA:398,8448
DA:405,8448
DA:406,8448
DA:497,92
DA:498,92
DA:499,92
DA:501,92
LF:13
LH:13
end_of_record
TN:
SF:/usr/include/c++/14.2.1/bits/basic_string.h
FN:3682,3684,_ZStplIcSt11char_traitsIcESaIcEENSt7__cxx1112basic_stringIT_T0_T1_EEOS8_RKS8_
FN:3696,3714,_ZStplIcSt11char_traitsIcESaIcEENSt7__cxx1112basic_stringIT_T0_T1_EEOS8_S9_
FN:3719,3721,_ZStplIcSt11char_traitsIcESaIcEENSt7__cxx1112basic_stringIT_T0_T1_EEPKS5_OS8_
FN:3733,3735,_ZStplIcSt11char_traitsIcESaIcEENSt7__cxx1112basic_stringIT_T0_T1_EEOS8_PKS5_
FN:3874,3877,_ZStltIcSt11char_traitsIcESaIcEEbRKNSt7__cxx1112basic_stringIT_T0_T1_EESA_
FN:4240,4255,_ZNSt7__cxx119to_stringEi
FN:4249,4253,_ZZNSt7__cxx119to_stringEiENKUlPcmE_clES0_m
FN:646,655,_ZNSt7__cxx1112basic_stringIcSt11char_traitsIcESaIcEEC2IS3_EEPKcRKS3_
FNDA:0,_ZStplIcSt11char_traitsIcESaIcEENSt7__cxx1112basic_stringIT_T0_T1_EEOS8_RKS8_
FNDA:0,_ZStplIcSt11char_traitsIcESaIcEENSt7__cxx1112basic_stringIT_T0_T1_EEOS8_S9_
FNDA:2,_ZStplIcSt11char_traitsIcESaIcEENSt7__cxx1112basic_stringIT_T0_T1_EEPKS5_OS8_
FNDA:0,_ZStplIcSt11char_traitsIcESaIcEENSt7__cxx1112basic_stringIT_T0_T1_EEOS8_PKS5_
FNDA:86,_ZStltIcSt11char_traitsIcESaIcEEbRKNSt7__cxx1112basic_stringIT_T0_T1_EESA_
FNDA:2,_ZNSt7__cxx119to_stringEi
FNDA:2,_ZZNSt7__cxx119to_stringEiENKUlPcmE_clES0_m
FNDA:4206,_ZNSt7__cxx1112basic_stringIcSt11char_traitsIcESaIcEEC2IS3_EEPKcRKS3_
FNF:8
FNH:5
DA:360,4202
DA:646,4206
DA:647,4206
DA:650,4206
DA:651,0
DA:653,4206
DA:654,4206
DA:655,4206
DA:3682,0
DA:3684,0
DA:3696,0
DA:3701,0
DA:3703,0
DA:3706,0
DA:3709,0
DA:3710,0
DA:3711,0
DA:3713,0
DA:3719,2
DA:3721,2
DA:3733,0
DA:3735,0
DA:3874,86
DA:3877,86
DA:4240,2
DA:4245,2
DA:4246,2
DA:4247,2
DA:4248,2
DA:4249,2
DA:4250,2
DA:4251,2
DA:4252,2
DA:4254,2
LF:34
LH:21
end_of_record
TN:
SF:/usr/include/c++/14.2.1/bits/basic_string.tcc
FN:221,252,_ZNSt7__cxx1112basic_stringIcSt11char_traitsIcESaIcEE12_M_constructIPKcEEvT_S8_St20forward_iterator_tag
FN:221,252,_ZNSt7__cxx1112basic_stringIcSt11char_traitsIcESaIcEE12_M_constructIPcEEvT_S7_St20forward_iterator_tag
FN:239,239,_ZZNSt7__cxx1112basic_stringIcSt11char_traitsIcESaIcEE12_M_constructIPKcEEvT_S8_St20forward_iterator_tagEN6_GuardC2EPS4_
FN:239,239,_ZZNSt7__cxx1112basic_stringIcSt11char_traitsIcESaIcEE12_M_constructIPcEEvT_S7_St20forward_iterator_tagEN6_GuardC2EPS4_
FN:242,242,_ZZNSt7__cxx1112basic_stringIcSt11char_traitsIcESaIcEE12_M_constructIPKcEEvT_S8_St20forward_iterator_tagEN6_GuardD2Ev
FN:242,242,_ZZNSt7__cxx1112basic_stringIcSt11char_traitsIcESaIcEE12_M_constructIPcEEvT_S7_St20forward_iterator_tagEN6_GuardD2Ev
FN:583,613,_ZNSt7__cxx1112basic_stringIcSt11char_traitsIcESaIcEE22__resize_and_overwriteIZNS_9to_stringEiEUlPcmE_EEvmT_
FN:597,597,_ZZNSt7__cxx1112basic_stringIcSt11char_traitsIcESaIcEE22__resize_and_overwriteIZNS_9to_stringEiEUlPcmE_EEvmT_EN11_TerminatorD2Ev
FNDA:4206,_ZNSt7__cxx1112basic_stringIcSt11char_traitsIcESaIcEE12_M_constructIPKcEEvT_S8_St20forward_iterator_tag
FNDA:0,_ZNSt7__cxx1112basic_stringIcSt11char_traitsIcESaIcEE12_M_constructIPcEEvT_S7_St20forward_iterator_tag
FNDA:4206,_ZZNSt7__cxx1112basic_stringIcSt11char_traitsIcESaIcEE12_M_constructIPKcEEvT_S8_St20forward_iterator_tagEN6_GuardC2EPS4_
FNDA:0,_ZZNSt7__cxx1112basic_stringIcSt11char_traitsIcESaIcEE12_M_constructIPcEEvT_S7_St20forward_iterator_tagEN6_GuardC2EPS4_
FNDA:4206,_ZZNSt7__cxx1112basic_stringIcSt11char_traitsIcESaIcEE12_M_constructIPKcEEvT_S8_St20forward_iterator_tagEN6_GuardD2Ev
FNDA:0,_ZZNSt7__cxx1112basic_stringIcSt11char_traitsIcESaIcEE12_M_constructIPcEEvT_S7_St20forward_iterator_tagEN6_GuardD2Ev
FNDA:2,_ZNSt7__cxx1112basic_stringIcSt11char_traitsIcESaIcEE22__resize_and_overwriteIZNS_9to_stringEiEUlPcmE_EEvmT_
FNDA:2,_ZZNSt7__cxx1112basic_stringIcSt11char_traitsIcESaIcEE22__resize_and_overwriteIZNS_9to_stringEiEUlPcmE_EEvmT_EN11_TerminatorD2Ev
FNF:8
FNH:5
DA:221,4206
DA:225,4206
DA:227,4206
DA:229,4
DA:230,4
DA:239,4206
DA:242,4206
DA:245,4206
DA:247,4206
DA:249,4206
DA:251,4206
DA:252,4206
DA:583,2
DA:590,2
DA:591,2
DA:597,2
DA:601,2
DA:602,2
DA:610,2
DA:611,2
DA:612,0
DA:613,2
LF:22
LH:21
end_of_record
TN:
SF:/usr/include/c++/14.2.1/bits/char_traits.h
FN:136,137,_ZN9__gnu_cxx11char_traitsIcE2eqERKcS3_
FN:199,206,_ZN9__gnu_cxx11char_traitsIcE6lengthEPKc
FN:385,392,_ZNSt11char_traitsIcE6lengthEPKc
FN:419,428,_ZNSt11char_traitsIcE4copyEPcPKcm
FNDA:0,_ZN9__gnu_cxx11char_traitsIcE2eqERKcS3_
FNDA:0,_ZN9__gnu_cxx11char_traitsIcE6lengthEPKc
FNDA:4206,_ZNSt11char_traitsIcE6lengthEPKc
FNDA:0,_ZNSt11char_traitsIcE4copyEPcPKcm
FNF:4
FNH:1
DA:136,0
DA:137,0
DA:199,0
DA:202,0
DA:203,0
DA:204,0
DA:205,0
DA:385,4206
DA:388,4206
DA:389,0
DA:391,4206
DA:419,0
DA:421,0
DA:422,0
DA:427,0
LF:15
LH:3
end_of_record
TN:
SF:/usr/include/c++/14.2.1/bits/charconv.h
FN:55,74,_ZNSt8__detail14__to_chars_lenIjEEjT_i
FN:81,110,_ZNSt8__detail18__to_chars_10_implIjEEvPcjT_
FNDA:2,_ZNSt8__detail14__to_chars_lenIjEEjT_i
FNDA:2,_ZNSt8__detail18__to_chars_10_implIjEEvPcjT_
FNF:2
FNH:2
DA:55,2
DA:61,2
DA:62,2
DA:63,2
DA:64,2
DA:67,4
DA:68,4
DA:69,2
DA:70,2
DA:71,2
DA:72,2
DA:81,2
DA:87,2
DA:93,2
DA:94,6
DA:96,4
DA:97,4
DA:98,4
DA:99,4
DA:100,4
DA:102,2
DA:104,2
DA:105,2
DA:106,2
DA:109,0
DA:110,2
LF:26
LH:25
end_of_record
TN:
SF:/usr/include/c++/14.2.1/bits/chrono.h
FN:1141,1143,_ZNSt6chronomiINS_3_V212system_clockENS_8durationIlSt5ratioILl1ELl1000000000EEEES6_EENSt11common_typeIJT0_T1_EE4typeERKNS_10time_pointIT_S8_EERKNSC_ISD_S9_EE
FN:210,215,_ZNSt6chrono20__duration_cast_implINS_8durationIlSt5ratioILl1ELl1000EEEES2_ILl1ELl1000000EElLb1ELb0EE6__castIlS2_ILl1ELl1000000000EEEES4_RKNS1_IT_T0_EE
FN:275,293,_ZNSt6chrono13duration_castINS_8durationIlSt5ratioILl1ELl1000EEEElS2_ILl1ELl1000000000EEEENSt9enable_ifIXsrNS_13__is_durationIT_EE5valueES8_E4typeERKNS1_IT0_T1_EE
FN:573,574,_ZNSt6chrono8durationIlSt5ratioILl1ELl1000000000EEEC2IlvEERKT_
FN:573,574,_ZNSt6chrono8durationIlSt5ratioILl1ELl1000EEEC2IlvEERKT_
FN:589,590,_ZNKSt6chrono8durationIlSt5ratioILl1ELl1000000000EEE5countEv
FN:589,590,_ZNKSt6chrono8durationIlSt5ratioILl1ELl1000EEE5countEv
FN:710,717,_ZNSt6chronomiIlSt5ratioILl1ELl1000000000EElS2_EENSt11common_typeIJNS_8durationIT_T0_EENS4_IT1_T2_EEEE4typeERKS7_RKSA_
FN:949,950,_ZNKSt6chrono10time_pointINS_3_V212system_clockENS_8durationIlSt5ratioILl1ELl1000000000EEEEE16time_since_epochEv
FNDA:6,_ZNSt6chronomiINS_3_V212system_clockENS_8durationIlSt5ratioILl1ELl1000000000EEEES6_EENSt11common_typeIJT0_T1_EE4typeERKNS_10time_pointIT_S8_EERKNSC_ISD_S9_EE
FNDA:6,_ZNSt6chrono20__duration_cast_implINS_8durationIlSt5ratioILl1ELl1000EEEES2_ILl1ELl1000000EElLb1ELb0EE6__castIlS2_ILl1ELl1000000000EEEES4_RKNS1_IT_T0_EE
FNDA:6,_ZNSt6chrono13duration_castINS_8durationIlSt5ratioILl1ELl1000EEEElS2_ILl1ELl1000000000EEEENSt9enable_ifIXsrNS_13__is_durationIT_EE5valueES8_E4typeERKNS1_IT0_T1_EE
FNDA:6,_ZNSt6chrono8durationIlSt5ratioILl1ELl1000000000EEEC2IlvEERKT_
FNDA:6,_ZNSt6chrono8durationIlSt5ratioILl1ELl1000EEEC2IlvEERKT_
FNDA:18,_ZNKSt6chrono8durationIlSt5ratioILl1ELl1000000000EEE5countEv
FNDA:6,_ZNKSt6chrono8durationIlSt5ratioILl1ELl1000EEE5countEv
FNDA:6,_ZNSt6chronomiIlSt5ratioILl1ELl1000000000EElS2_EENSt11common_typeIJNS_8durationIT_T0_EENS4_IT1_T2_EEEE4typeERKS7_RKSA_
FNDA:12,_ZNKSt6chrono10time_pointINS_3_V212system_clockENS_8durationIlSt5ratioILl1ELl1000000000EEEEE16time_since_epochEv
FNF:9
FNH:9
DA:210,6
DA:213,12
DA:214,6
DA:275,6
DA:289,6
DA:573,12
DA:574,12
DA:589,24
DA:590,24
DA:710,6
DA:716,6
DA:949,12
DA:950,12
DA:1141,6
DA:1143,6
LF:15
LH:15
end_of_record
TN:
SF:/usr/include/c++/14.2.1/bits/cpp_type_traits.h
FN:607,608,_ZSt12__miter_baseIPPSt8functionIFvvEEET_S5_
FNDA:18,_ZSt12__miter_baseIPPSt8functionIFvvEEET_S5_
FNF:1
FNH:1
DA:607,18
DA:608,18
LF:2
LH:2
end_of_record
TN:
SF:/usr/include/c++/14.2.1/bits/deque.tcc
FN:164,180,_ZNSt5dequeISt8functionIFvvEESaIS2_EE12emplace_backIJSt5_BindIFM21AccessControlContractFvPKN6BICYCL3QFIEmmRS9_EPS7_SB_mmSt17reference_wrapperIS9_EEEEEERS2_DpOT_
FN:164,180,_ZNSt5dequeISt8functionIFvvEESaIS2_EE12emplace_backIJSt5_BindIFM21AccessControlContractFvRSt6vectorISt5tupleIJN6BICYCL6_Utils17CL_HSM_CipherTextINSA_8CL_HSMqkEEE11curve_pointEESaISG_EEmmNSB_16CL_HSM_PublicKeyISD_EERSG_EPS7_St17reference_wrapperISI_EmmSL_SQ_ISG_EEEEEERS2_DpOT_
FN:164,180,_ZNSt5dequeISt8functionIFvvEESaIS2_EE12emplace_backIJSt5_BindIFM21AccessControlContractFvRSt6vectorISt5tupleIJN6BICYCL6_Utils17CL_HSM_CipherTextINSA_8CL_HSMqkEEESE_SE_EESaISF_EEmmNSB_16CL_HSM_PublicKeyISD_EERSF_EPS7_St17reference_wrapperISH_EmmSK_SP_ISF_EEEEEERS2_DpOT_
FN:164,180,_ZNSt5dequeISt8functionIFvvEESaIS2_EE12emplace_backIJSt5_BindIFM4UserFvN6BICYCL8CL_HSMqkENS8_6_Utils16CL_HSM_PublicKeyIS9_EENSA_17CL_HSM_CipherTextIS9_EESE_RSt5tupleIJSE_SE_SE_EEEPS7_S9_SC_SE_SE_St17reference_wrapperISG_EEEEEERS2_DpOT_
FN:164,180,_ZNSt5dequeISt8functionIFvvEESaIS2_EE12emplace_backIJSt5_BindIFM4UserFvN6BICYCL8CL_HSMqkENS8_6_Utils17CL_HSM_CipherTextIS9_EERNS8_3QFIEEPS7_S9_SC_St17reference_wrapperISD_EEEEEERS2_DpOT_
FN:164,180,_ZNSt5dequeISt8functionIFvvEESaIS2_EE12emplace_backIJSt5_BindIFM4UserFvRN6BICYCL8CL_HSMqkERKNS8_6_Utils16CL_HSM_PublicKeyIS9_EERSt6vectorISt5tupleIJNSB_17CL_HSM_CipherTextIS9_EE11curve_pointEESaISL_EEPSt5mutexEPS7_S9_SD_St17reference_wrapperISN_ESQ_EEEEERS2_DpOT_
FN:164,180,_ZNSt5dequeISt8functionIFvvEESaIS2_EE12emplace_backIJSt5_BindIFM9ValidatorFvN6BICYCL8CL_HSMqkENS8_6_Utils16CL_HSM_PublicKeyIS9_EENSA_17CL_HSM_CipherTextIS9_EESE_RSt5tupleIJSE_SE_SE_EEEPS7_S9_SC_SE_SE_St17reference_wrapperISG_EEEEEERS2_DpOT_
FN:164,180,_ZNSt5dequeISt8functionIFvvEESaIS2_EE12emplace_backIJSt5_BindIFM9ValidatorFvN6BICYCL8CL_HSMqkENS8_6_Utils16CL_HSM_PublicKeyIS9_EERSt5tupleIJNSA_17CL_HSM_CipherTextIS9_EE11curve_pointEEPSt5mutexEPS7_S9_SC_St17reference_wrapperISH_ESK_EEEEERS2_DpOT_
FN:164,180,_ZNSt5dequeISt8functionIFvvEESaIS2_EE12emplace_backIJSt5_BindIFM9ValidatorFvN6BICYCL8CL_HSMqkENS8_6_Utils17CL_HSM_CipherTextIS9_EERNS8_3QFIEEPS7_S9_SC_St17reference_wrapperISD_EEEEEERS2_DpOT_
FN:484,516,_ZNSt5dequeISt8functionIFvvEESaIS2_EE16_M_push_back_auxIJSt5_BindIFM21AccessControlContractFvPKN6BICYCL3QFIEmmRS9_EPS7_SB_mmSt17reference_wrapperIS9_EEEEEEvDpOT_
FN:484,516,_ZNSt5dequeISt8functionIFvvEESaIS2_EE16_M_push_back_auxIJSt5_BindIFM21AccessControlContractFvRSt6vectorISt5tupleIJN6BICYCL6_Utils17CL_HSM_CipherTextINSA_8CL_HSMqkEEE11curve_pointEESaISG_EEmmNSB_16CL_HSM_PublicKeyISD_EERSG_EPS7_St17reference_wrapperISI_EmmSL_SQ_ISG_EEEEEEvDpOT_
FN:484,516,_ZNSt5dequeISt8functionIFvvEESaIS2_EE16_M_push_back_auxIJSt5_BindIFM21AccessControlContractFvRSt6vectorISt5tupleIJN6BICYCL6_Utils17CL_HSM_CipherTextINSA_8CL_HSMqkEEESE_SE_EESaISF_EEmmNSB_16CL_HSM_PublicKeyISD_EERSF_EPS7_St17reference_wrapperISH_EmmSK_SP_ISF_EEEEEEvDpOT_
FN:484,516,_ZNSt5dequeISt8functionIFvvEESaIS2_EE16_M_push_back_auxIJSt5_BindIFM4UserFvN6BICYCL8CL_HSMqkENS8_6_Utils16CL_HSM_PublicKeyIS9_EENSA_17CL_HSM_CipherTextIS9_EESE_RSt5tupleIJSE_SE_SE_EEEPS7_S9_SC_SE_SE_St17reference_wrapperISG_EEEEEEvDpOT_
FN:484,516,_ZNSt5dequeISt8functionIFvvEESaIS2_EE16_M_push_back_auxIJSt5_BindIFM4UserFvN6BICYCL8CL_HSMqkENS8_6_Utils17CL_HSM_CipherTextIS9_EERNS8_3QFIEEPS7_S9_SC_St17reference_wrapperISD_EEEEEEvDpOT_
FN:484,516,_ZNSt5dequeISt8functionIFvvEESaIS2_EE16_M_push_back_auxIJSt5_BindIFM4UserFvRN6BICYCL8CL_HSMqkERKNS8_6_Utils16CL_HSM_PublicKeyIS9_EERSt6vectorISt5tupleIJNSB_17CL_HSM_CipherTextIS9_EE11curve_pointEESaISL_EEPSt5mutexEPS7_S9_SD_St17reference_wrapperISN_ESQ_EEEEEvDpOT_
FN:484,516,_ZNSt5dequeISt8functionIFvvEESaIS2_EE16_M_push_back_auxIJSt5_BindIFM9ValidatorFvN6BICYCL8CL_HSMqkENS8_6_Utils16CL_HSM_PublicKeyIS9_EENSA_17CL_HSM_CipherTextIS9_EESE_RSt5tupleIJSE_SE_SE_EEEPS7_S9_SC_SE_SE_St17reference_wrapperISG_EEEEEEvDpOT_
FN:484,516,_ZNSt5dequeISt8functionIFvvEESaIS2_EE16_M_push_back_auxIJSt5_BindIFM9ValidatorFvN6BICYCL8CL_HSMqkENS8_6_Utils16CL_HSM_PublicKeyIS9_EERSt5tupleIJNSA_17CL_HSM_CipherTextIS9_EE11curve_pointEEPSt5mutexEPS7_S9_SC_St17reference_wrapperISH_ESK_EEEEEvDpOT_
FN:484,516,_ZNSt5dequeISt8functionIFvvEESaIS2_EE16_M_push_back_auxIJSt5_BindIFM9ValidatorFvN6BICYCL8CL_HSMqkENS8_6_Utils17CL_HSM_CipherTextIS9_EERNS8_3QFIEEPS7_S9_SC_St17reference_wrapperISD_EEEEEEvDpOT_
FN:576,584,_ZNSt5dequeISt8functionIFvvEESaIS2_EE16_M_pop_front_auxEv
FN:859,877,_ZNSt5dequeISt8functionIFvvEESaIS2_EE19_M_destroy_data_auxESt15_Deque_iteratorIS2_RS2_PS2_ES8_
FN:931,973,_ZNSt5dequeISt8functionIFvvEESaIS2_EE17_M_reallocate_mapEmb
FNDA:24,_ZNSt5dequeISt8functionIFvvEESaIS2_EE12emplace_backIJSt5_BindIFM21AccessControlContractFvPKN6BICYCL3QFIEmmRS9_EPS7_SB_mmSt17reference_wrapperIS9_EEEEEERS2_DpOT_
FNDA:12,_ZNSt5dequeISt8functionIFvvEESaIS2_EE12emplace_backIJSt5_BindIFM21AccessControlContractFvRSt6vectorISt5tupleIJN6BICYCL6_Utils17CL_HSM_CipherTextINSA_8CL_HSMqkEEE11curve_pointEESaISG_EEmmNSB_16CL_HSM_PublicKeyISD_EERSG_EPS7_St17reference_wrapperISI_EmmSL_SQ_ISG_EEEEEERS2_DpOT_
FNDA:12,_ZNSt5dequeISt8functionIFvvEESaIS2_EE12emplace_backIJSt5_BindIFM21AccessControlContractFvRSt6vectorISt5tupleIJN6BICYCL6_Utils17CL_HSM_CipherTextINSA_8CL_HSMqkEEESE_SE_EESaISF_EEmmNSB_16CL_HSM_PublicKeyISD_EERSF_EPS7_St17reference_wrapperISH_EmmSK_SP_ISF_EEEEEERS2_DpOT_
FNDA:100,_ZNSt5dequeISt8functionIFvvEESaIS2_EE12emplace_backIJSt5_BindIFM4UserFvN6BICYCL8CL_HSMqkENS8_6_Utils16CL_HSM_PublicKeyIS9_EENSA_17CL_HSM_CipherTextIS9_EESE_RSt5tupleIJSE_SE_SE_EEEPS7_S9_SC_SE_SE_St17reference_wrapperISG_EEEEEERS2_DpOT_
FNDA:200,_ZNSt5dequeISt8functionIFvvEESaIS2_EE12emplace_backIJSt5_BindIFM4UserFvN6BICYCL8CL_HSMqkENS8_6_Utils17CL_HSM_CipherTextIS9_EERNS8_3QFIEEPS7_S9_SC_St17reference_wrapperISD_EEEEEERS2_DpOT_
FNDA:100,_ZNSt5dequeISt8functionIFvvEESaIS2_EE12emplace_backIJSt5_BindIFM4UserFvRN6BICYCL8CL_HSMqkERKNS8_6_Utils16CL_HSM_PublicKeyIS9_EERSt6vectorISt5tupleIJNSB_17CL_HSM_CipherTextIS9_EE11curve_pointEESaISL_EEPSt5mutexEPS7_S9_SD_St17reference_wrapperISN_ESQ_EEEEERS2_DpOT_
FNDA:2000,_ZNSt5dequeISt8functionIFvvEESaIS2_EE12emplace_backIJSt5_BindIFM9ValidatorFvN6BICYCL8CL_HSMqkENS8_6_Utils16CL_HSM_PublicKeyIS9_EENSA_17CL_HSM_CipherTextIS9_EESE_RSt5tupleIJSE_SE_SE_EEEPS7_S9_SC_SE_SE_St17reference_wrapperISG_EEEEEERS2_DpOT_
FNDA:2000,_ZNSt5dequeISt8functionIFvvEESaIS2_EE12emplace_backIJSt5_BindIFM9ValidatorFvN6BICYCL8CL_HSMqkENS8_6_Utils16CL_HSM_PublicKeyIS9_EERSt5tupleIJNSA_17CL_HSM_CipherTextIS9_EE11curve_pointEEPSt5mutexEPS7_S9_SC_St17reference_wrapperISH_ESK_EEEEERS2_DpOT_
FNDA:4000,_ZNSt5dequeISt8functionIFvvEESaIS2_EE12emplace_backIJSt5_BindIFM9ValidatorFvN6BICYCL8CL_HSMqkENS8_6_Utils17CL_HSM_CipherTextIS9_EERNS8_3QFIEEPS7_S9_SC_St17reference_wrapperISD_EEEEEERS2_DpOT_
FNDA:2,_ZNSt5dequeISt8functionIFvvEESaIS2_EE16_M_push_back_auxIJSt5_BindIFM21AccessControlContractFvPKN6BICYCL3QFIEmmRS9_EPS7_SB_mmSt17reference_wrapperIS9_EEEEEEvDpOT_
FNDA:1,_ZNSt5dequeISt8functionIFvvEESaIS2_EE16_M_push_back_auxIJSt5_BindIFM21AccessControlContractFvRSt6vectorISt5tupleIJN6BICYCL6_Utils17CL_HSM_CipherTextINSA_8CL_HSMqkEEE11curve_pointEESaISG_EEmmNSB_16CL_HSM_PublicKeyISD_EERSG_EPS7_St17reference_wrapperISI_EmmSL_SQ_ISG_EEEEEEvDpOT_
FNDA:1,_ZNSt5dequeISt8functionIFvvEESaIS2_EE16_M_push_back_auxIJSt5_BindIFM21AccessControlContractFvRSt6vectorISt5tupleIJN6BICYCL6_Utils17CL_HSM_CipherTextINSA_8CL_HSMqkEEESE_SE_EESaISF_EEmmNSB_16CL_HSM_PublicKeyISD_EERSF_EPS7_St17reference_wrapperISH_EmmSK_SP_ISF_EEEEEEvDpOT_
FNDA:6,_ZNSt5dequeISt8functionIFvvEESaIS2_EE16_M_push_back_auxIJSt5_BindIFM4UserFvN6BICYCL8CL_HSMqkENS8_6_Utils16CL_HSM_PublicKeyIS9_EENSA_17CL_HSM_CipherTextIS9_EESE_RSt5tupleIJSE_SE_SE_EEEPS7_S9_SC_SE_SE_St17reference_wrapperISG_EEEEEEvDpOT_
FNDA:12,_ZNSt5dequeISt8functionIFvvEESaIS2_EE16_M_push_back_auxIJSt5_BindIFM4UserFvN6BICYCL8CL_HSMqkENS8_6_Utils17CL_HSM_CipherTextIS9_EERNS8_3QFIEEPS7_S9_SC_St17reference_wrapperISD_EEEEEEvDpOT_
FNDA:6,_ZNSt5dequeISt8functionIFvvEESaIS2_EE16_M_push_back_auxIJSt5_BindIFM4UserFvRN6BICYCL8CL_HSMqkERKNS8_6_Utils16CL_HSM_PublicKeyIS9_EERSt6vectorISt5tupleIJNSB_17CL_HSM_CipherTextIS9_EE11curve_pointEESaISL_EEPSt5mutexEPS7_S9_SD_St17reference_wrapperISN_ESQ_EEEEEvDpOT_
FNDA:125,_ZNSt5dequeISt8functionIFvvEESaIS2_EE16_M_push_back_auxIJSt5_BindIFM9ValidatorFvN6BICYCL8CL_HSMqkENS8_6_Utils16CL_HSM_PublicKeyIS9_EENSA_17CL_HSM_CipherTextIS9_EESE_RSt5tupleIJSE_SE_SE_EEEPS7_S9_SC_SE_SE_St17reference_wrapperISG_EEEEEEvDpOT_
FNDA:125,_ZNSt5dequeISt8functionIFvvEESaIS2_EE16_M_push_back_auxIJSt5_BindIFM9ValidatorFvN6BICYCL8CL_HSMqkENS8_6_Utils16CL_HSM_PublicKeyIS9_EERSt5tupleIJNSA_17CL_HSM_CipherTextIS9_EE11curve_pointEEPSt5mutexEPS7_S9_SC_St17reference_wrapperISH_ESK_EEEEEvDpOT_
FNDA:250,_ZNSt5dequeISt8functionIFvvEESaIS2_EE16_M_push_back_auxIJSt5_BindIFM9ValidatorFvN6BICYCL8CL_HSMqkENS8_6_Utils17CL_HSM_CipherTextIS9_EERNS8_3QFIEEPS7_S9_SC_St17reference_wrapperISD_EEEEEEvDpOT_
FNDA:528,_ZNSt5dequeISt8functionIFvvEESaIS2_EE16_M_pop_front_auxEv
FNDA:1,_ZNSt5dequeISt8functionIFvvEESaIS2_EE19_M_destroy_data_auxESt15_Deque_iteratorIS2_RS2_PS2_ES8_
FNDA:9,_ZNSt5dequeISt8functionIFvvEESaIS2_EE17_M_reallocate_mapEmb
FNF:21
FNH:21
DA:164,8448
DA:167,8448
DA:168,8448
DA:170,7920
DA:173,7920
DA:176,528
DA:178,8448
DA:484,528
DA:492,528
DA:493,0
DA:496,528
DA:497,528
DA:501,528
DA:507,528
DA:509,528
DA:511,0
DA:513,0
DA:514,0
DA:516,528
DA:576,528
DA:579,528
DA:581,528
DA:582,528
DA:583,528
DA:584,528
DA:859,1
DA:862,1
DA:863,1
DA:864,0
DA:865,0
DA:867,1
DA:869,0
DA:870,0
DA:871,0
DA:872,0
DA:875,1
DA:876,1
DA:877,1
DA:931,9
DA:934,9
DA:935,9
DA:936,9
DA:939,9
DA:941,6
DA:942,3
DA:943,3
DA:944,3
DA:945,3
DA:946,3
DA:949,0
DA:950,0
DA:951,0
DA:955,12
DA:956,6
DA:959,6
DA:960,12
DA:961,6
DA:962,6
DA:963,6
DA:965,6
DA:967,6
DA:968,6
DA:971,9
DA:972,9
DA:973,9
LF:65
LH:52
end_of_record
TN:
SF:/usr/include/c++/14.2.1/bits/invoke.h
FN:104,117,_ZSt10__invoke_rIvRSt5_BindIFM21AccessControlContractFvPKN6BICYCL3QFIEmmRS3_EPS1_S5_mmSt17reference_wrapperIS3_EEEJEENSt9enable_ifIX16is_invocable_r_vIT_T0_JDpT1_EEESG_E4typeEOSH_DpOSI_
FN:104,117,_ZSt10__invoke_rIvRSt5_BindIFM21AccessControlContractFvRSt6vectorISt5tupleIJN6BICYCL6_Utils17CL_HSM_CipherTextINS4_8CL_HSMqkEEE11curve_pointEESaISA_EEmmNS5_16CL_HSM_PublicKeyIS7_EERSA_EPS1_St17reference_wrapperISC_EmmSF_SK_ISA_EEEJEENSt9enable_ifIX16is_invocable_r_vIT_T0_JDpT1_EEESR_E4typeEOSS_DpOST_
FN:104,117,_ZSt10__invoke_rIvRSt5_BindIFM21AccessControlContractFvRSt6vectorISt5tupleIJN6BICYCL6_Utils17CL_HSM_CipherTextINS4_8CL_HSMqkEEES8_S8_EESaIS9_EEmmNS5_16CL_HSM_PublicKeyIS7_EERS9_EPS1_St17reference_wrapperISB_EmmSE_SJ_IS9_EEEJEENSt9enable_ifIX16is_invocable_r_vIT_T0_JDpT1_EEESQ_E4typeEOSR_DpOSS_
FN:104,117,_ZSt10__invoke_rIvRSt5_BindIFM4UserFvN6BICYCL8CL_HSMqkENS2_6_Utils16CL_HSM_PublicKeyIS3_EENS4_17CL_HSM_CipherTextIS3_EES8_RSt5tupleIJS8_S8_S8_EEEPS1_S3_S6_S8_S8_St17reference_wrapperISA_EEEJEENSt9enable_ifIX16is_invocable_r_vIT_T0_JDpT1_EEESL_E4typeEOSM_DpOSN_
FN:104,117,_ZSt10__invoke_rIvRSt5_BindIFM4UserFvN6BICYCL8CL_HSMqkENS2_6_Utils17CL_HSM_CipherTextIS3_EERNS2_3QFIEEPS1_S3_S6_St17reference_wrapperIS7_EEEJEENSt9enable_ifIX16is_invocable_r_vIT_T0_JDpT1_EEESI_E4typeEOSJ_DpOSK_
FN:104,117,_ZSt10__invoke_rIvRSt5_BindIFM4UserFvRN6BICYCL8CL_HSMqkERKNS2_6_Utils16CL_HSM_PublicKeyIS3_EERSt6vectorISt5tupleIJNS5_17CL_HSM_CipherTextIS3_EE11curve_pointEESaISF_EEPSt5mutexEPS1_S3_S7_St17reference_wrapperISH_ESK_EEJEENSt9enable_ifIX16is_invocable_r_vIT_T0_JDpT1_EEESU_E4typeEOSV_DpOSW_
FN:104,117,_ZSt10__invoke_rIvRSt5_BindIFM9ValidatorFvN6BICYCL8CL_HSMqkENS2_6_Utils16CL_HSM_PublicKeyIS3_EENS4_17CL_HSM_CipherTextIS3_EES8_RSt5tupleIJS8_S8_S8_EEEPS1_S3_S6_S8_S8_St17reference_wrapperISA_EEEJEENSt9enable_ifIX16is_invocable_r_vIT_T0_JDpT1_EEESL_E4typeEOSM_DpOSN_
FN:104,117,_ZSt10__invoke_rIvRSt5_BindIFM9ValidatorFvN6BICYCL8CL_HSMqkENS2_6_Utils16CL_HSM_PublicKeyIS3_EERSt5tupleIJNS4_17CL_HSM_CipherTextIS3_EE11curve_pointEEPSt5mutexEPS1_S3_S6_St17reference_wrapperISB_ESE_EEJEENSt9enable_ifIX16is_invocable_r_vIT_T0_JDpT1_EEESO_E4typeEOSP_DpOSQ_
FN:104,117,_ZSt10__invoke_rIvRSt5_BindIFM9ValidatorFvN6BICYCL8CL_HSMqkENS2_6_Utils17CL_HSM_CipherTextIS3_EERNS2_3QFIEEPS1_S3_S6_St17reference_wrapperIS7_EEEJEENSt9enable_ifIX16is_invocable_r_vIT_T0_JDpT1_EEESI_E4typeEOSJ_DpOSK_
FN:55,56,_ZSt8__invfwdIN6BICYCL8CL_HSM2kES1_EOT0_RNSt16remove_referenceIT_E4typeE
FN:55,56,_ZSt8__invfwdIN6BICYCL8CL_HSMqkES1_EOT0_RNSt16remove_referenceIT_E4typeE
FN:60,61,_ZSt13__invoke_implIvRSt5_BindIFM21AccessControlContractFvPKN6BICYCL3QFIEmmRS3_EPS1_S5_mmSt17reference_wrapperIS3_EEEJEET_St14__invoke_otherOT0_DpOT1_
FN:60,61,_ZSt13__invoke_implIvRSt5_BindIFM21AccessControlContractFvRSt6vectorISt5tupleIJN6BICYCL6_Utils17CL_HSM_CipherTextINS4_8CL_HSMqkEEE11curve_pointEESaISA_EEmmNS5_16CL_HSM_PublicKeyIS7_EERSA_EPS1_St17reference_wrapperISC_EmmSF_SK_ISA_EEEJEET_St14__invoke_otherOT0_DpOT1_
FN:60,61,_ZSt13__invoke_implIvRSt5_BindIFM21AccessControlContractFvRSt6vectorISt5tupleIJN6BICYCL6_Utils17CL_HSM_CipherTextINS4_8CL_HSMqkEEES8_S8_EESaIS9_EEmmNS5_16CL_HSM_PublicKeyIS7_EERS9_EPS1_St17reference_wrapperISB_EmmSE_SJ_IS9_EEEJEET_St14__invoke_otherOT0_DpOT1_
FN:60,61,_ZSt13__invoke_implIvRSt5_BindIFM4UserFvN6BICYCL8CL_HSMqkENS2_6_Utils16CL_HSM_PublicKeyIS3_EENS4_17CL_HSM_CipherTextIS3_EES8_RSt5tupleIJS8_S8_S8_EEEPS1_S3_S6_S8_S8_St17reference_wrapperISA_EEEJEET_St14__invoke_otherOT0_DpOT1_
FN:60,61,_ZSt13__invoke_implIvRSt5_BindIFM4UserFvN6BICYCL8CL_HSMqkENS2_6_Utils17CL_HSM_CipherTextIS3_EERNS2_3QFIEEPS1_S3_S6_St17reference_wrapperIS7_EEEJEET_St14__invoke_otherOT0_DpOT1_
FN:60,61,_ZSt13__invoke_implIvRSt5_BindIFM4UserFvRN6BICYCL8CL_HSMqkERKNS2_6_Utils16CL_HSM_PublicKeyIS3_EERSt6vectorISt5tupleIJNS5_17CL_HSM_CipherTextIS3_EE11curve_pointEESaISF_EEPSt5mutexEPS1_S3_S7_St17reference_wrapperISH_ESK_EEJEET_St14__invoke_otherOT0_DpOT1_
FN:60,61,_ZSt13__invoke_implIvRSt5_BindIFM9ValidatorFvN6BICYCL8CL_HSMqkENS2_6_Utils16CL_HSM_PublicKeyIS3_EENS4_17CL_HSM_CipherTextIS3_EES8_RSt5tupleIJS8_S8_S8_EEEPS1_S3_S6_S8_S8_St17reference_wrapperISA_EEEJEET_St14__invoke_otherOT0_DpOT1_
FN:60,61,_ZSt13__invoke_implIvRSt5_BindIFM9ValidatorFvN6BICYCL8CL_HSMqkENS2_6_Utils16CL_HSM_PublicKeyIS3_EERSt5tupleIJNS4_17CL_HSM_CipherTextIS3_EE11curve_pointEEPSt5mutexEPS1_S3_S6_St17reference_wrapperISB_ESE_EEJEET_St14__invoke_otherOT0_DpOT1_
FN:60,61,_ZSt13__invoke_implIvRSt5_BindIFM9ValidatorFvN6BICYCL8CL_HSMqkENS2_6_Utils17CL_HSM_CipherTextIS3_EERNS2_3QFIEEPS1_S3_S6_St17reference_wrapperIS7_EEEJEET_St14__invoke_otherOT0_DpOT1_
FN:60,61,_ZSt13__invoke_implIvZN10ThreadPoolC4EmEUlvE_JEET_St14__invoke_otherOT0_DpOT1_
FN:65,67,_ZSt13__invoke_implIvMN6BICYCL8CL_HSM2kEKFvRNS0_3QFIERKNS0_3MpzEES1_JSt17reference_wrapperIS2_ES9_IS5_EEET_St19__invoke_memfun_refOT0_OT1_DpOT2_
FN:65,67,_ZSt13__invoke_implIvMN6BICYCL8CL_HSMqkEKFvRNS0_3QFIERKNS0_3MpzEES1_JSt17reference_wrapperIS2_ES9_IS5_EEET_St19__invoke_memfun_refOT0_OT1_DpOT2_
FN:71,75,_ZSt13__invoke_implIvRM21AccessControlContractFvPKN6BICYCL3QFIEmmRS2_ERPS0_JRS4_RmSC_S5_EET_St21__invoke_memfun_derefOT0_OT1_DpOT2_
FN:71,75,_ZSt13__invoke_implIvRM21AccessControlContractFvRSt6vectorISt5tupleIJN6BICYCL6_Utils17CL_HSM_CipherTextINS3_8CL_HSMqkEEE11curve_pointEESaIS9_EEmmNS4_16CL_HSM_PublicKeyIS6_EERS9_ERPS0_JSC_RmSL_RSE_SF_EET_St21__invoke_memfun_derefOT0_OT1_DpOT2_
FN:71,75,_ZSt13__invoke_implIvRM21AccessControlContractFvRSt6vectorISt5tupleIJN6BICYCL6_Utils17CL_HSM_CipherTextINS3_8CL_HSMqkEEES7_S7_EESaIS8_EEmmNS4_16CL_HSM_PublicKeyIS6_EERS8_ERPS0_JSB_RmSK_RSD_SE_EET_St21__invoke_memfun_derefOT0_OT1_DpOT2_
FN:71,75,_ZSt13__invoke_implIvRM4UserFvN6BICYCL8CL_HSMqkENS1_6_Utils16CL_HSM_PublicKeyIS2_EENS3_17CL_HSM_CipherTextIS2_EES7_RSt5tupleIJS7_S7_S7_EEERPS0_JRS2_RS5_RS7_SI_SA_EET_St21__invoke_memfun_derefOT0_OT1_DpOT2_
FN:71,75,_ZSt13__invoke_implIvRM4UserFvN6BICYCL8CL_HSMqkENS1_6_Utils17CL_HSM_CipherTextIS2_EERNS1_3QFIEERPS0_JRS2_RS5_S7_EET_St21__invoke_memfun_derefOT0_OT1_DpOT2_
FN:71,75,_ZSt13__invoke_implIvRM4UserFvRN6BICYCL8CL_HSMqkERKNS1_6_Utils16CL_HSM_PublicKeyIS2_EERSt6vectorISt5tupleIJNS4_17CL_HSM_CipherTextIS2_EE11curve_pointEESaISE_EEPSt5mutexERPS0_JS3_RS6_SH_RSJ_EET_St21__invoke_memfun_derefOT0_OT1_DpOT2_
FN:71,75,_ZSt13__invoke_implIvRM9ValidatorFvN6BICYCL8CL_HSMqkENS1_6_Utils16CL_HSM_PublicKeyIS2_EENS3_17CL_HSM_CipherTextIS2_EES7_RSt5tupleIJS7_S7_S7_EEERPS0_JRS2_RS5_RS7_SI_SA_EET_St21__invoke_memfun_derefOT0_OT1_DpOT2_
FN:71,75,_ZSt13__invoke_implIvRM9ValidatorFvN6BICYCL8CL_HSMqkENS1_6_Utils16CL_HSM_PublicKeyIS2_EERSt5tupleIJNS3_17CL_HSM_CipherTextIS2_EE11curve_pointEEPSt5mutexERPS0_JRS2_RS5_SB_RSD_EET_St21__invoke_memfun_derefOT0_OT1_DpOT2_
FN:71,75,_ZSt13__invoke_implIvRM9ValidatorFvN6BICYCL8CL_HSMqkENS1_6_Utils17CL_HSM_CipherTextIS2_EERNS1_3QFIEERPS0_JRS2_RS5_S7_EET_St21__invoke_memfun_derefOT0_OT1_DpOT2_
FN:90,98,_ZSt8__invokeIMN6BICYCL8CL_HSM2kEKFvRNS0_3QFIERKNS0_3MpzEEJS1_St17reference_wrapperIS2_ES9_IS5_EEENSt15__invoke_resultIT_JDpT0_EE4typeEOSD_DpOSE_
FN:90,98,_ZSt8__invokeIMN6BICYCL8CL_HSMqkEKFvRNS0_3QFIERKNS0_3MpzEEJS1_St17reference_wrapperIS2_ES9_IS5_EEENSt15__invoke_resultIT_JDpT0_EE4typeEOSD_DpOSE_
FN:90,98,_ZSt8__invokeIRM21AccessControlContractFvPKN6BICYCL3QFIEmmRS2_EJRPS0_RS4_RmSC_S5_EENSt15__invoke_resultIT_JDpT0_EE4typeEOSE_DpOSF_
FN:90,98,_ZSt8__invokeIRM21AccessControlContractFvRSt6vectorISt5tupleIJN6BICYCL6_Utils17CL_HSM_CipherTextINS3_8CL_HSMqkEEE11curve_pointEESaIS9_EEmmNS4_16CL_HSM_PublicKeyIS6_EERS9_EJRPS0_SC_RmSL_RSE_SF_EENSt15__invoke_resultIT_JDpT0_EE4typeEOSO_DpOSP_
FN:90,98,_ZSt8__invokeIRM21AccessControlContractFvRSt6vectorISt5tupleIJN6BICYCL6_Utils17CL_HSM_CipherTextINS3_8CL_HSMqkEEES7_S7_EESaIS8_EEmmNS4_16CL_HSM_PublicKeyIS6_EERS8_EJRPS0_SB_RmSK_RSD_SE_EENSt15__invoke_resultIT_JDpT0_EE4typeEOSN_DpOSO_
FN:90,98,_ZSt8__invokeIRM4UserFvN6BICYCL8CL_HSMqkENS1_6_Utils16CL_HSM_PublicKeyIS2_EENS3_17CL_HSM_CipherTextIS2_EES7_RSt5tupleIJS7_S7_S7_EEEJRPS0_RS2_RS5_RS7_SI_SA_EENSt15__invoke_resultIT_JDpT0_EE4typeEOSK_DpOSL_
FN:90,98,_ZSt8__invokeIRM4UserFvN6BICYCL8CL_HSMqkENS1_6_Utils17CL_HSM_CipherTextIS2_EERNS1_3QFIEEJRPS0_RS2_RS5_S7_EENSt15__invoke_resultIT_JDpT0_EE4typeEOSG_DpOSH_
FN:90,98,_ZSt8__invokeIRM4UserFvRN6BICYCL8CL_HSMqkERKNS1_6_Utils16CL_HSM_PublicKeyIS2_EERSt6vectorISt5tupleIJNS4_17CL_HSM_CipherTextIS2_EE11curve_pointEESaISE_EEPSt5mutexEJRPS0_S3_RS6_SH_RSJ_EENSt15__invoke_resultIT_JDpT0_EE4typeEOSS_DpOST_
FN:90,98,_ZSt8__invokeIRM9ValidatorFvN6BICYCL8CL_HSMqkENS1_6_Utils16CL_HSM_PublicKeyIS2_EENS3_17CL_HSM_CipherTextIS2_EES7_RSt5tupleIJS7_S7_S7_EEEJRPS0_RS2_RS5_RS7_SI_SA_EENSt15__invoke_resultIT_JDpT0_EE4typeEOSK_DpOSL_
FN:90,98,_ZSt8__invokeIRM9ValidatorFvN6BICYCL8CL_HSMqkENS1_6_Utils16CL_HSM_PublicKeyIS2_EERSt5tupleIJNS3_17CL_HSM_CipherTextIS2_EE11curve_pointEEPSt5mutexEJRPS0_RS2_RS5_SB_RSD_EENSt15__invoke_resultIT_JDpT0_EE4typeEOSN_DpOSO_
FN:90,98,_ZSt8__invokeIRM9ValidatorFvN6BICYCL8CL_HSMqkENS1_6_Utils17CL_HSM_CipherTextIS2_EERNS1_3QFIEEJRPS0_RS2_RS5_S7_EENSt15__invoke_resultIT_JDpT0_EE4typeEOSG_DpOSH_
FN:90,98,_ZSt8__invokeIZN10ThreadPoolC4EmEUlvE_JEENSt15__invoke_resultIT_JDpT0_EE4typeEOS3_DpOS4_
FNDA:24,_ZSt10__invoke_rIvRSt5_BindIFM21AccessControlContractFvPKN6BICYCL3QFIEmmRS3_EPS1_S5_mmSt17reference_wrapperIS3_EEEJEENSt9enable_ifIX16is_invocable_r_vIT_T0_JDpT1_EEESG_E4typeEOSH_DpOSI_
FNDA:12,_ZSt10__invoke_rIvRSt5_BindIFM21AccessControlContractFvRSt6vectorISt5tupleIJN6BICYCL6_Utils17CL_HSM_CipherTextINS4_8CL_HSMqkEEE11curve_pointEESaISA_EEmmNS5_16CL_HSM_PublicKeyIS7_EERSA_EPS1_St17reference_wrapperISC_EmmSF_SK_ISA_EEEJEENSt9enable_ifIX16is_invocable_r_vIT_T0_JDpT1_EEESR_E4typeEOSS_DpOST_
FNDA:12,_ZSt10__invoke_rIvRSt5_BindIFM21AccessControlContractFvRSt6vectorISt5tupleIJN6BICYCL6_Utils17CL_HSM_CipherTextINS4_8CL_HSMqkEEES8_S8_EESaIS9_EEmmNS5_16CL_HSM_PublicKeyIS7_EERS9_EPS1_St17reference_wrapperISB_EmmSE_SJ_IS9_EEEJEENSt9enable_ifIX16is_invocable_r_vIT_T0_JDpT1_EEESQ_E4typeEOSR_DpOSS_
FNDA:100,_ZSt10__invoke_rIvRSt5_BindIFM4UserFvN6BICYCL8CL_HSMqkENS2_6_Utils16CL_HSM_PublicKeyIS3_EENS4_17CL_HSM_CipherTextIS3_EES8_RSt5tupleIJS8_S8_S8_EEEPS1_S3_S6_S8_S8_St17reference_wrapperISA_EEEJEENSt9enable_ifIX16is_invocable_r_vIT_T0_JDpT1_EEESL_E4typeEOSM_DpOSN_
FNDA:200,_ZSt10__invoke_rIvRSt5_BindIFM4UserFvN6BICYCL8CL_HSMqkENS2_6_Utils17CL_HSM_CipherTextIS3_EERNS2_3QFIEEPS1_S3_S6_St17reference_wrapperIS7_EEEJEENSt9enable_ifIX16is_invocable_r_vIT_T0_JDpT1_EEESI_E4typeEOSJ_DpOSK_
FNDA:100,_ZSt10__invoke_rIvRSt5_BindIFM4UserFvRN6BICYCL8CL_HSMqkERKNS2_6_Utils16CL_HSM_PublicKeyIS3_EERSt6vectorISt5tupleIJNS5_17CL_HSM_CipherTextIS3_EE11curve_pointEESaISF_EEPSt5mutexEPS1_S3_S7_St17reference_wrapperISH_ESK_EEJEENSt9enable_ifIX16is_invocable_r_vIT_T0_JDpT1_EEESU_E4typeEOSV_DpOSW_
FNDA:2000,_ZSt10__invoke_rIvRSt5_BindIFM9ValidatorFvN6BICYCL8CL_HSMqkENS2_6_Utils16CL_HSM_PublicKeyIS3_EENS4_17CL_HSM_CipherTextIS3_EES8_RSt5tupleIJS8_S8_S8_EEEPS1_S3_S6_S8_S8_St17reference_wrapperISA_EEEJEENSt9enable_ifIX16is_invocable_r_vIT_T0_JDpT1_EEESL_E4typeEOSM_DpOSN_
FNDA:2000,_ZSt10__invoke_rIvRSt5_BindIFM9ValidatorFvN6BICYCL8CL_HSMqkENS2_6_Utils16CL_HSM_PublicKeyIS3_EERSt5tupleIJNS4_17CL_HSM_CipherTextIS3_EE11curve_pointEEPSt5mutexEPS1_S3_S6_St17reference_wrapperISB_ESE_EEJEENSt9enable_ifIX16is_invocable_r_vIT_T0_JDpT1_EEESO_E4typeEOSP_DpOSQ_
FNDA:4000,_ZSt10__invoke_rIvRSt5_BindIFM9ValidatorFvN6BICYCL8CL_HSMqkENS2_6_Utils17CL_HSM_CipherTextIS3_EERNS2_3QFIEEPS1_S3_S6_St17reference_wrapperIS7_EEEJEENSt9enable_ifIX16is_invocable_r_vIT_T0_JDpT1_EEESI_E4typeEOSJ_DpOSK_
FNDA:0,_ZSt8__invfwdIN6BICYCL8CL_HSM2kES1_EOT0_RNSt16remove_referenceIT_E4typeE
FNDA:16804,_ZSt8__invfwdIN6BICYCL8CL_HSMqkES1_EOT0_RNSt16remove_referenceIT_E4typeE
FNDA:24,_ZSt13__invoke_implIvRSt5_BindIFM21AccessControlContractFvPKN6BICYCL3QFIEmmRS3_EPS1_S5_mmSt17reference_wrapperIS3_EEEJEET_St14__invoke_otherOT0_DpOT1_
FNDA:12,_ZSt13__invoke_implIvRSt5_BindIFM21AccessControlContractFvRSt6vectorISt5tupleIJN6BICYCL6_Utils17CL_HSM_CipherTextINS4_8CL_HSMqkEEE11curve_pointEESaISA_EEmmNS5_16CL_HSM_PublicKeyIS7_EERSA_EPS1_St17reference_wrapperISC_EmmSF_SK_ISA_EEEJEET_St14__invoke_otherOT0_DpOT1_
FNDA:12,_ZSt13__invoke_implIvRSt5_BindIFM21AccessControlContractFvRSt6vectorISt5tupleIJN6BICYCL6_Utils17CL_HSM_CipherTextINS4_8CL_HSMqkEEES8_S8_EESaIS9_EEmmNS5_16CL_HSM_PublicKeyIS7_EERS9_EPS1_St17reference_wrapperISB_EmmSE_SJ_IS9_EEEJEET_St14__invoke_otherOT0_DpOT1_
FNDA:100,_ZSt13__invoke_implIvRSt5_BindIFM4UserFvN6BICYCL8CL_HSMqkENS2_6_Utils16CL_HSM_PublicKeyIS3_EENS4_17CL_HSM_CipherTextIS3_EES8_RSt5tupleIJS8_S8_S8_EEEPS1_S3_S6_S8_S8_St17reference_wrapperISA_EEEJEET_St14__invoke_otherOT0_DpOT1_
FNDA:200,_ZSt13__invoke_implIvRSt5_BindIFM4UserFvN6BICYCL8CL_HSMqkENS2_6_Utils17CL_HSM_CipherTextIS3_EERNS2_3QFIEEPS1_S3_S6_St17reference_wrapperIS7_EEEJEET_St14__invoke_otherOT0_DpOT1_
FNDA:100,_ZSt13__invoke_implIvRSt5_BindIFM4UserFvRN6BICYCL8CL_HSMqkERKNS2_6_Utils16CL_HSM_PublicKeyIS3_EERSt6vectorISt5tupleIJNS5_17CL_HSM_CipherTextIS3_EE11curve_pointEESaISF_EEPSt5mutexEPS1_S3_S7_St17reference_wrapperISH_ESK_EEJEET_St14__invoke_otherOT0_DpOT1_
FNDA:2000,_ZSt13__invoke_implIvRSt5_BindIFM9ValidatorFvN6BICYCL8CL_HSMqkENS2_6_Utils16CL_HSM_PublicKeyIS3_EENS4_17CL_HSM_CipherTextIS3_EES8_RSt5tupleIJS8_S8_S8_EEEPS1_S3_S6_S8_S8_St17reference_wrapperISA_EEEJEET_St14__invoke_otherOT0_DpOT1_
FNDA:2000,_ZSt13__invoke_implIvRSt5_BindIFM9ValidatorFvN6BICYCL8CL_HSMqkENS2_6_Utils16CL_HSM_PublicKeyIS3_EERSt5tupleIJNS4_17CL_HSM_CipherTextIS3_EE11curve_pointEEPSt5mutexEPS1_S3_S6_St17reference_wrapperISB_ESE_EEJEET_St14__invoke_otherOT0_DpOT1_
FNDA:4000,_ZSt13__invoke_implIvRSt5_BindIFM9ValidatorFvN6BICYCL8CL_HSMqkENS2_6_Utils17CL_HSM_CipherTextIS3_EERNS2_3QFIEEPS1_S3_S6_St17reference_wrapperIS7_EEEJEET_St14__invoke_otherOT0_DpOT1_
FNDA:12,_ZSt13__invoke_implIvZN10ThreadPoolC4EmEUlvE_JEET_St14__invoke_otherOT0_DpOT1_
FNDA:0,_ZSt13__invoke_implIvMN6BICYCL8CL_HSM2kEKFvRNS0_3QFIERKNS0_3MpzEES1_JSt17reference_wrapperIS2_ES9_IS5_EEET_St19__invoke_memfun_refOT0_OT1_DpOT2_
FNDA:16804,_ZSt13__invoke_implIvMN6BICYCL8CL_HSMqkEKFvRNS0_3QFIERKNS0_3MpzEES1_JSt17reference_wrapperIS2_ES9_IS5_EEET_St19__invoke_memfun_refOT0_OT1_DpOT2_
FNDA:24,_ZSt13__invoke_implIvRM21AccessControlContractFvPKN6BICYCL3QFIEmmRS2_ERPS0_JRS4_RmSC_S5_EET_St21__invoke_memfun_derefOT0_OT1_DpOT2_
FNDA:12,_ZSt13__invoke_implIvRM21AccessControlContractFvRSt6vectorISt5tupleIJN6BICYCL6_Utils17CL_HSM_CipherTextINS3_8CL_HSMqkEEE11curve_pointEESaIS9_EEmmNS4_16CL_HSM_PublicKeyIS6_EERS9_ERPS0_JSC_RmSL_RSE_SF_EET_St21__invoke_memfun_derefOT0_OT1_DpOT2_
FNDA:12,_ZSt13__invoke_implIvRM21AccessControlContractFvRSt6vectorISt5tupleIJN6BICYCL6_Utils17CL_HSM_CipherTextINS3_8CL_HSMqkEEES7_S7_EESaIS8_EEmmNS4_16CL_HSM_PublicKeyIS6_EERS8_ERPS0_JSB_RmSK_RSD_SE_EET_St21__invoke_memfun_derefOT0_OT1_DpOT2_
FNDA:100,_ZSt13__invoke_implIvRM4UserFvN6BICYCL8CL_HSMqkENS1_6_Utils16CL_HSM_PublicKeyIS2_EENS3_17CL_HSM_CipherTextIS2_EES7_RSt5tupleIJS7_S7_S7_EEERPS0_JRS2_RS5_RS7_SI_SA_EET_St21__invoke_memfun_derefOT0_OT1_DpOT2_
FNDA:200,_ZSt13__invoke_implIvRM4UserFvN6BICYCL8CL_HSMqkENS1_6_Utils17CL_HSM_CipherTextIS2_EERNS1_3QFIEERPS0_JRS2_RS5_S7_EET_St21__invoke_memfun_derefOT0_OT1_DpOT2_
FNDA:100,_ZSt13__invoke_implIvRM4UserFvRN6BICYCL8CL_HSMqkERKNS1_6_Utils16CL_HSM_PublicKeyIS2_EERSt6vectorISt5tupleIJNS4_17CL_HSM_CipherTextIS2_EE11curve_pointEESaISE_EEPSt5mutexERPS0_JS3_RS6_SH_RSJ_EET_St21__invoke_memfun_derefOT0_OT1_DpOT2_
FNDA:2000,_ZSt13__invoke_implIvRM9ValidatorFvN6BICYCL8CL_HSMqkENS1_6_Utils16CL_HSM_PublicKeyIS2_EENS3_17CL_HSM_CipherTextIS2_EES7_RSt5tupleIJS7_S7_S7_EEERPS0_JRS2_RS5_RS7_SI_SA_EET_St21__invoke_memfun_derefOT0_OT1_DpOT2_
FNDA:2000,_ZSt13__invoke_implIvRM9ValidatorFvN6BICYCL8CL_HSMqkENS1_6_Utils16CL_HSM_PublicKeyIS2_EERSt5tupleIJNS3_17CL_HSM_CipherTextIS2_EE11curve_pointEEPSt5mutexERPS0_JRS2_RS5_SB_RSD_EET_St21__invoke_memfun_derefOT0_OT1_DpOT2_
FNDA:4000,_ZSt13__invoke_implIvRM9ValidatorFvN6BICYCL8CL_HSMqkENS1_6_Utils17CL_HSM_CipherTextIS2_EERNS1_3QFIEERPS0_JRS2_RS5_S7_EET_St21__invoke_memfun_derefOT0_OT1_DpOT2_
FNDA:0,_ZSt8__invokeIMN6BICYCL8CL_HSM2kEKFvRNS0_3QFIERKNS0_3MpzEEJS1_St17reference_wrapperIS2_ES9_IS5_EEENSt15__invoke_resultIT_JDpT0_EE4typeEOSD_DpOSE_
FNDA:16804,_ZSt8__invokeIMN6BICYCL8CL_HSMqkEKFvRNS0_3QFIERKNS0_3MpzEEJS1_St17reference_wrapperIS2_ES9_IS5_EEENSt15__invoke_resultIT_JDpT0_EE4typeEOSD_DpOSE_
FNDA:24,_ZSt8__invokeIRM21AccessControlContractFvPKN6BICYCL3QFIEmmRS2_EJRPS0_RS4_RmSC_S5_EENSt15__invoke_resultIT_JDpT0_EE4typeEOSE_DpOSF_
FNDA:12,_ZSt8__invokeIRM21AccessControlContractFvRSt6vectorISt5tupleIJN6BICYCL6_Utils17CL_HSM_CipherTextINS3_8CL_HSMqkEEE11curve_pointEESaIS9_EEmmNS4_16CL_HSM_PublicKeyIS6_EERS9_EJRPS0_SC_RmSL_RSE_SF_EENSt15__invoke_resultIT_JDpT0_EE4typeEOSO_DpOSP_
FNDA:12,_ZSt8__invokeIRM21AccessControlContractFvRSt6vectorISt5tupleIJN6BICYCL6_Utils17CL_HSM_CipherTextINS3_8CL_HSMqkEEES7_S7_EESaIS8_EEmmNS4_16CL_HSM_PublicKeyIS6_EERS8_EJRPS0_SB_RmSK_RSD_SE_EENSt15__invoke_resultIT_JDpT0_EE4typeEOSN_DpOSO_
FNDA:100,_ZSt8__invokeIRM4UserFvN6BICYCL8CL_HSMqkENS1_6_Utils16CL_HSM_PublicKeyIS2_EENS3_17CL_HSM_CipherTextIS2_EES7_RSt5tupleIJS7_S7_S7_EEEJRPS0_RS2_RS5_RS7_SI_SA_EENSt15__invoke_resultIT_JDpT0_EE4typeEOSK_DpOSL_
FNDA:200,_ZSt8__invokeIRM4UserFvN6BICYCL8CL_HSMqkENS1_6_Utils17CL_HSM_CipherTextIS2_EERNS1_3QFIEEJRPS0_RS2_RS5_S7_EENSt15__invoke_resultIT_JDpT0_EE4typeEOSG_DpOSH_
FNDA:100,_ZSt8__invokeIRM4UserFvRN6BICYCL8CL_HSMqkERKNS1_6_Utils16CL_HSM_PublicKeyIS2_EERSt6vectorISt5tupleIJNS4_17CL_HSM_CipherTextIS2_EE11curve_pointEESaISE_EEPSt5mutexEJRPS0_S3_RS6_SH_RSJ_EENSt15__invoke_resultIT_JDpT0_EE4typeEOSS_DpOST_
FNDA:2000,_ZSt8__invokeIRM9ValidatorFvN6BICYCL8CL_HSMqkENS1_6_Utils16CL_HSM_PublicKeyIS2_EENS3_17CL_HSM_CipherTextIS2_EES7_RSt5tupleIJS7_S7_S7_EEEJRPS0_RS2_RS5_RS7_SI_SA_EENSt15__invoke_resultIT_JDpT0_EE4typeEOSK_DpOSL_
FNDA:2000,_ZSt8__invokeIRM9ValidatorFvN6BICYCL8CL_HSMqkENS1_6_Utils16CL_HSM_PublicKeyIS2_EERSt5tupleIJNS3_17CL_HSM_CipherTextIS2_EE11curve_pointEEPSt5mutexEJRPS0_RS2_RS5_SB_RSD_EENSt15__invoke_resultIT_JDpT0_EE4typeEOSN_DpOSO_
FNDA:4000,_ZSt8__invokeIRM9ValidatorFvN6BICYCL8CL_HSMqkENS1_6_Utils17CL_HSM_CipherTextIS2_EERNS1_3QFIEEJRPS0_RS2_RS5_S7_EENSt15__invoke_resultIT_JDpT0_EE4typeEOSG_DpOSH_
FNDA:12,_ZSt8__invokeIZN10ThreadPoolC4EmEUlvE_JEENSt15__invoke_resultIT_JDpT0_EE4typeEOS3_DpOS4_
FNF:44
FNH:41
DA:55,16804
DA:56,16804
DA:60,8460
DA:61,8460
DA:65,16804
DA:67,16804
DA:71,8448
DA:74,8448
DA:90,25264
DA:96,25264
DA:97,25264
DA:104,8448
DA:111,8448
DA:117,8448
LF:14
LH:14
end_of_record
TN:
SF:/usr/include/c++/14.2.1/bits/move.h
FN:126,127,_ZSt4moveIRM21AccessControlContractFvPKN6BICYCL3QFIEmmRS2_EEONSt16remove_referenceIT_E4typeEOSA_
FN:126,127,_ZSt4moveIRM21AccessControlContractFvRSt6vectorISt5tupleIJN6BICYCL6_Utils17CL_HSM_CipherTextINS3_8CL_HSMqkEEE11curve_pointEESaIS9_EEmmNS4_16CL_HSM_PublicKeyIS6_EERS9_EEONSt16remove_referenceIT_E4typeEOSK_
FN:126,127,_ZSt4moveIRM21AccessControlContractFvRSt6vectorISt5tupleIJN6BICYCL6_Utils17CL_HSM_CipherTextINS3_8CL_HSMqkEEES7_S7_EESaIS8_EEmmNS4_16CL_HSM_PublicKeyIS6_EERS8_EEONSt16remove_referenceIT_E4typeEOSJ_
FN:126,127,_ZSt4moveIRM4UserFvN6BICYCL8CL_HSMqkENS1_6_Utils16CL_HSM_PublicKeyIS2_EENS3_17CL_HSM_CipherTextIS2_EES7_RSt5tupleIJS7_S7_S7_EEEEONSt16remove_referenceIT_E4typeEOSF_
FN:126,127,_ZSt4moveIRM4UserFvN6BICYCL8CL_HSMqkENS1_6_Utils17CL_HSM_CipherTextIS2_EERNS1_3QFIEEEONSt16remove_referenceIT_E4typeEOSC_
FN:126,127,_ZSt4moveIRM4UserFvRN6BICYCL8CL_HSMqkERKNS1_6_Utils16CL_HSM_PublicKeyIS2_EERSt6vectorISt5tupleIJNS4_17CL_HSM_CipherTextIS2_EE11curve_pointEESaISE_EEPSt5mutexEEONSt16remove_referenceIT_E4typeEOSO_
FN:126,127,_ZSt4moveIRM9ValidatorFvN6BICYCL8CL_HSMqkENS1_6_Utils16CL_HSM_PublicKeyIS2_EENS3_17CL_HSM_CipherTextIS2_EES7_RSt5tupleIJS7_S7_S7_EEEEONSt16remove_referenceIT_E4typeEOSF_
FN:126,127,_ZSt4moveIRM9ValidatorFvN6BICYCL8CL_HSMqkENS1_6_Utils16CL_HSM_PublicKeyIS2_EERSt5tupleIJNS3_17CL_HSM_CipherTextIS2_EE11curve_pointEEPSt5mutexEEONSt16remove_referenceIT_E4typeEOSI_
FN:126,127,_ZSt4moveIRM9ValidatorFvN6BICYCL8CL_HSMqkENS1_6_Utils17CL_HSM_CipherTextIS2_EERNS1_3QFIEEEONSt16remove_referenceIT_E4typeEOSC_
FN:126,127,_ZSt4moveIRNSt6thread2idEEONSt16remove_referenceIT_E4typeEOS4_
FN:126,127,_ZSt4moveIRNSt7__cxx1112basic_stringIcSt11char_traitsIcESaIcEEEEONSt16remove_referenceIT_E4typeEOS8_
FN:126,127,_ZSt4moveIRPFbRSt9_Any_dataRKS0_St18_Manager_operationEEONSt16remove_referenceIT_E4typeEOS9_
FN:126,127,_ZSt4moveIRPFvRKSt9_Any_dataEEONSt16remove_referenceIT_E4typeEOS7_
FN:126,127,_ZSt4moveIRPNSt6thread6_StateEEONSt16remove_referenceIT_E4typeEOS5_
FN:126,127,_ZSt4moveIRSaIcEEONSt16remove_referenceIT_E4typeEOS3_
FN:126,127,_ZSt4moveIRSt11_Tuple_implILm1EJ11curve_pointEEEONSt16remove_referenceIT_E4typeEOS5_
FN:126,127,_ZSt4moveIRSt11_Tuple_implILm1EJN6BICYCL6_Utils17CL_HSM_CipherTextINS1_8CL_HSMqkEEES5_EEEONSt16remove_referenceIT_E4typeEOS9_
FN:126,127,_ZSt4moveIRSt11_Tuple_implILm2EJN6BICYCL6_Utils17CL_HSM_CipherTextINS1_8CL_HSMqkEEEEEEONSt16remove_referenceIT_E4typeEOS9_
FN:126,127,_ZSt4moveIRSt5_BindIFM21AccessControlContractFvPKN6BICYCL3QFIEmmRS3_EPS1_S5_mmSt17reference_wrapperIS3_EEEEONSt16remove_referenceIT_E4typeEOSG_
FN:126,127,_ZSt4moveIRSt5_BindIFM21AccessControlContractFvRSt6vectorISt5tupleIJN6BICYCL6_Utils17CL_HSM_CipherTextINS4_8CL_HSMqkEEE11curve_pointEESaISA_EEmmNS5_16CL_HSM_PublicKeyIS7_EERSA_EPS1_St17reference_wrapperISC_EmmSF_SK_ISA_EEEEONSt16remove_referenceIT_E4typeEOSR_
FN:126,127,_ZSt4moveIRSt5_BindIFM21AccessControlContractFvRSt6vectorISt5tupleIJN6BICYCL6_Utils17CL_HSM_CipherTextINS4_8CL_HSMqkEEES8_S8_EESaIS9_EEmmNS5_16CL_HSM_PublicKeyIS7_EERS9_EPS1_St17reference_wrapperISB_EmmSE_SJ_IS9_EEEEONSt16remove_referenceIT_E4typeEOSQ_
FN:126,127,_ZSt4moveIRSt5_BindIFM4UserFvN6BICYCL8CL_HSMqkENS2_6_Utils16CL_HSM_PublicKeyIS3_EENS4_17CL_HSM_CipherTextIS3_EES8_RSt5tupleIJS8_S8_S8_EEEPS1_S3_S6_S8_S8_St17reference_wrapperISA_EEEEONSt16remove_referenceIT_E4typeEOSL_
FN:126,127,_ZSt4moveIRSt5_BindIFM4UserFvN6BICYCL8CL_HSMqkENS2_6_Utils17CL_HSM_CipherTextIS3_EERNS2_3QFIEEPS1_S3_S6_St17reference_wrapperIS7_EEEEONSt16remove_referenceIT_E4typeEOSI_
FN:126,127,_ZSt4moveIRSt5_BindIFM4UserFvRN6BICYCL8CL_HSMqkERKNS2_6_Utils16CL_HSM_PublicKeyIS3_EERSt6vectorISt5tupleIJNS5_17CL_HSM_CipherTextIS3_EE11curve_pointEESaISF_EEPSt5mutexEPS1_S3_S7_St17reference_wrapperISH_ESK_EEEONSt16remove_referenceIT_E4typeEOSU_
FN:126,127,_ZSt4moveIRSt5_BindIFM9ValidatorFvN6BICYCL8CL_HSMqkENS2_6_Utils16CL_HSM_PublicKeyIS3_EENS4_17CL_HSM_CipherTextIS3_EES8_RSt5tupleIJS8_S8_S8_EEEPS1_S3_S6_S8_S8_St17reference_wrapperISA_EEEEONSt16remove_referenceIT_E4typeEOSL_
FN:126,127,_ZSt4moveIRSt5_BindIFM9ValidatorFvN6BICYCL8CL_HSMqkENS2_6_Utils16CL_HSM_PublicKeyIS3_EERSt5tupleIJNS4_17CL_HSM_CipherTextIS3_EE11curve_pointEEPSt5mutexEPS1_S3_S6_St17reference_wrapperISB_ESE_EEEONSt16remove_referenceIT_E4typeEOSO_
FN:126,127,_ZSt4moveIRSt5_BindIFM9ValidatorFvN6BICYCL8CL_HSMqkENS2_6_Utils17CL_HSM_CipherTextIS3_EERNS2_3QFIEEPS1_S3_S6_St17reference_wrapperIS7_EEEEONSt16remove_referenceIT_E4typeEOSI_
FN:126,127,_ZSt4moveIRSt5tupleIJMN6BICYCL8CL_HSM2kEKFvRNS1_3QFIERKNS1_3MpzEES2_St17reference_wrapperIS3_ESA_IS6_EEEEONSt16remove_referenceIT_E4typeEOSG_
FN:126,127,_ZSt4moveIRSt5tupleIJMN6BICYCL8CL_HSMqkEKFvRNS1_3QFIERKNS1_3MpzEES2_St17reference_wrapperIS3_ESA_IS6_EEEEONSt16remove_referenceIT_E4typeEOSG_
FN:126,127,_ZSt4moveIRSt5tupleIJN6BICYCL6_Utils17CL_HSM_CipherTextINS1_8CL_HSMqkEEE11curve_pointEEEONSt16remove_referenceIT_E4typeEOSA_
FN:126,127,_ZSt4moveIRSt5tupleIJN6BICYCL6_Utils17CL_HSM_CipherTextINS1_8CL_HSMqkEEES5_S5_EEEONSt16remove_referenceIT_E4typeEOS9_
FN:126,127,_ZSt4moveIRSt5tupleIJZN10ThreadPoolC4EmEUlvE_EEEONSt16remove_referenceIT_E4typeEOS6_
FN:126,127,_ZSt4moveIRSt6threadEONSt16remove_referenceIT_E4typeEOS3_
FN:126,127,_ZSt4moveIRSt8functionIFvvEEEONSt16remove_referenceIT_E4typeEOS5_
FN:126,127,_ZSt4moveIRSt9_Any_dataEONSt16remove_referenceIT_E4typeEOS3_
FN:126,127,_ZSt4moveIRZNSt7__cxx119to_stringEiEUlPcmE_EONSt16remove_referenceIT_E4typeEOS5_
FN:213,224,_ZSt4swapINSt6thread2idEENSt9enable_ifIXsrSt6__and_IJSt6__not_ISt15__is_tuple_likeIT_EESt21is_move_constructibleIS6_ESt18is_move_assignableIS6_EEE5valueEvE4typeERS6_SG_
FN:213,224,_ZSt4swapIPFbRSt9_Any_dataRKS0_St18_Manager_operationEENSt9enable_ifIXsrSt6__and_IJSt6__not_ISt15__is_tuple_likeIT_EESt21is_move_constructibleISB_ESt18is_move_assignableISB_EEE5valueEvE4typeERSB_SL_
FN:213,224,_ZSt4swapIPFvRKSt9_Any_dataEENSt9enable_ifIXsrSt6__and_IJSt6__not_ISt15__is_tuple_likeIT_EESt21is_move_constructibleIS9_ESt18is_move_assignableIS9_EEE5valueEvE4typeERS9_SJ_
FN:213,224,_ZSt4swapISt9_Any_dataENSt9enable_ifIXsrSt6__and_IJSt6__not_ISt15__is_tuple_likeIT_EESt21is_move_constructibleIS5_ESt18is_move_assignableIS5_EEE5valueEvE4typeERS5_SF_
FN:51,52,_ZSt11__addressofI4UserEPT_RS1_
FN:51,52,_ZSt11__addressofI9ValidatorEPT_RS1_
FN:51,52,_ZSt11__addressofIKN6BICYCL3MpzEEPT_RS3_
FN:51,52,_ZSt11__addressofIN6BICYCL3QFIEEPT_RS2_
FN:51,52,_ZSt11__addressofINSt7__cxx1112basic_stringIcSt11char_traitsIcESaIcEEEEPT_RS6_
FN:51,52,_ZSt11__addressofISt5mutexEPT_RS1_
FN:51,52,_ZSt11__addressofISt5tupleIJN6BICYCL6_Utils17CL_HSM_CipherTextINS1_8CL_HSMqkEEE11curve_pointEEEPT_RS8_
FN:51,52,_ZSt11__addressofISt5tupleIJN6BICYCL6_Utils17CL_HSM_CipherTextINS1_8CL_HSMqkEEES5_S5_EEEPT_RS7_
FN:51,52,_ZSt11__addressofISt6threadEPT_RS1_
FN:51,52,_ZSt11__addressofISt6vectorISt5tupleIJN6BICYCL6_Utils17CL_HSM_CipherTextINS2_8CL_HSMqkEEE11curve_pointEESaIS8_EEEPT_RSB_
FN:51,52,_ZSt11__addressofISt6vectorISt5tupleIJN6BICYCL6_Utils17CL_HSM_CipherTextINS2_8CL_HSMqkEEES6_S6_EESaIS7_EEEPT_RSA_
FN:51,52,_ZSt11__addressofISt8functionIFvvEEEPT_RS3_
FN:51,52,_ZSt11__addressofIhEPT_RS0_
FN:70,71,_ZSt7forwardI11curve_pointEOT_RNSt16remove_referenceIS1_E4typeE
FN:70,71,_ZSt7forwardIM21AccessControlContractFvPKN6BICYCL3QFIEmmRS2_EEOT_RNSt16remove_referenceIS8_E4typeE
FN:70,71,_ZSt7forwardIM21AccessControlContractFvRSt6vectorISt5tupleIJN6BICYCL6_Utils17CL_HSM_CipherTextINS3_8CL_HSMqkEEE11curve_pointEESaIS9_EEmmNS4_16CL_HSM_PublicKeyIS6_EERS9_EEOT_RNSt16remove_referenceISI_E4typeE
FN:70,71,_ZSt7forwardIM21AccessControlContractFvRSt6vectorISt5tupleIJN6BICYCL6_Utils17CL_HSM_CipherTextINS3_8CL_HSMqkEEES7_S7_EESaIS8_EEmmNS4_16CL_HSM_PublicKeyIS6_EERS8_EEOT_RNSt16remove_referenceISH_E4typeE
FN:70,71,_ZSt7forwardIM4UserFvN6BICYCL8CL_HSMqkENS1_6_Utils16CL_HSM_PublicKeyIS2_EENS3_17CL_HSM_CipherTextIS2_EES7_RSt5tupleIJS7_S7_S7_EEEEOT_RNSt16remove_referenceISD_E4typeE
FN:70,71,_ZSt7forwardIM4UserFvN6BICYCL8CL_HSMqkENS1_6_Utils17CL_HSM_CipherTextIS2_EERNS1_3QFIEEEOT_RNSt16remove_referenceISA_E4typeE
FN:70,71,_ZSt7forwardIM4UserFvRN6BICYCL8CL_HSMqkERKNS1_6_Utils16CL_HSM_PublicKeyIS2_EERSt6vectorISt5tupleIJNS4_17CL_HSM_CipherTextIS2_EE11curve_pointEESaISE_EEPSt5mutexEEOT_RNSt16remove_referenceISM_E4typeE
FN:70,71,_ZSt7forwardIM9ValidatorFvN6BICYCL8CL_HSMqkENS1_6_Utils16CL_HSM_PublicKeyIS2_EENS3_17CL_HSM_CipherTextIS2_EES7_RSt5tupleIJS7_S7_S7_EEEEOT_RNSt16remove_referenceISD_E4typeE
FN:70,71,_ZSt7forwardIM9ValidatorFvN6BICYCL8CL_HSMqkENS1_6_Utils16CL_HSM_PublicKeyIS2_EERSt5tupleIJNS3_17CL_HSM_CipherTextIS2_EE11curve_pointEEPSt5mutexEEOT_RNSt16remove_referenceISG_E4typeE
FN:70,71,_ZSt7forwardIM9ValidatorFvN6BICYCL8CL_HSMqkENS1_6_Utils17CL_HSM_CipherTextIS2_EERNS1_3QFIEEEOT_RNSt16remove_referenceISA_E4typeE
FN:70,71,_ZSt7forwardIMN6BICYCL8CL_HSM2kEKFvRNS0_3QFIERKNS0_3MpzEEEOT_RNSt16remove_referenceIS9_E4typeE
FN:70,71,_ZSt7forwardIMN6BICYCL8CL_HSMqkEKFvRNS0_3QFIERKNS0_3MpzEEEOT_RNSt16remove_referenceIS9_E4typeE
FN:70,71,_ZSt7forwardIN6BICYCL6_Utils17CL_HSM_CipherTextINS0_8CL_HSMqkEEEEOT_RNSt16remove_referenceIS5_E4typeE
FN:70,71,_ZSt7forwardIN6BICYCL8CL_HSM2kEEOT_RNSt16remove_referenceIS2_E4typeE
FN:70,71,_ZSt7forwardIN6BICYCL8CL_HSMqkEEOT_RNSt16remove_referenceIS2_E4typeE
FN:70,71,_ZSt7forwardINSt7__cxx1112basic_stringIcSt11char_traitsIcESaIcEEEEOT_RNSt16remove_referenceIS6_E4typeE
FN:70,71,_ZSt7forwardIP21AccessControlContractEOT_RNSt16remove_referenceIS2_E4typeE
FN:70,71,_ZSt7forwardIP4UserEOT_RNSt16remove_referenceIS2_E4typeE
FN:70,71,_ZSt7forwardIP9ValidatorEOT_RNSt16remove_referenceIS2_E4typeE
FN:70,71,_ZSt7forwardIPSt5mutexEOT_RNSt16remove_referenceIS2_E4typeE
FN:70,71,_ZSt7forwardIR11curve_pointEOT_RNSt16remove_referenceIS2_E4typeE
FN:70,71,_ZSt7forwardIRKN6BICYCL3MpzEEOT_RNSt16remove_referenceIS4_E4typeE
FN:70,71,_ZSt7forwardIRKN6BICYCL6_Utils16CL_HSM_PublicKeyINS0_8CL_HSMqkEEEEOT_RNSt16remove_referenceIS7_E4typeE
FN:70,71,_ZSt7forwardIRKN6BICYCL6_Utils17CL_HSM_CipherTextINS0_8CL_HSMqkEEEEOT_RNSt16remove_referenceIS7_E4typeE
FN:70,71,_ZSt7forwardIRKN6BICYCL8CL_HSM2kEEOT_RNSt16remove_referenceIS4_E4typeE
FN:70,71,_ZSt7forwardIRKN6BICYCL8CL_HSMqkEEOT_RNSt16remove_referenceIS4_E4typeE
FN:70,71,_ZSt7forwardIRKNSt7__cxx1112basic_stringIcSt11char_traitsIcESaIcEEEEOT_RNSt16remove_referenceIS8_E4typeE
FN:70,71,_ZSt7forwardIRKSt5_BindIFM21AccessControlContractFvPKN6BICYCL3QFIEmmRS3_EPS1_S5_mmSt17reference_wrapperIS3_EEEEOT_RNSt16remove_referenceISG_E4typeE
FN:70,71,_ZSt7forwardIRKSt5_BindIFM21AccessControlContractFvRSt6vectorISt5tupleIJN6BICYCL6_Utils17CL_HSM_CipherTextINS4_8CL_HSMqkEEE11curve_pointEESaISA_EEmmNS5_16CL_HSM_PublicKeyIS7_EERSA_EPS1_St17reference_wrapperISC_EmmSF_SK_ISA_EEEEOT_RNSt16remove_referenceISR_E4typeE
FN:70,71,_ZSt7forwardIRKSt5_BindIFM21AccessControlContractFvRSt6vectorISt5tupleIJN6BICYCL6_Utils17CL_HSM_CipherTextINS4_8CL_HSMqkEEES8_S8_EESaIS9_EEmmNS5_16CL_HSM_PublicKeyIS7_EERS9_EPS1_St17reference_wrapperISB_EmmSE_SJ_IS9_EEEEOT_RNSt16remove_referenceISQ_E4typeE
FN:70,71,_ZSt7forwardIRKSt5_BindIFM4UserFvN6BICYCL8CL_HSMqkENS2_6_Utils16CL_HSM_PublicKeyIS3_EENS4_17CL_HSM_CipherTextIS3_EES8_RSt5tupleIJS8_S8_S8_EEEPS1_S3_S6_S8_S8_St17reference_wrapperISA_EEEEOT_RNSt16remove_referenceISL_E4typeE
FN:70,71,_ZSt7forwardIRKSt5_BindIFM4UserFvN6BICYCL8CL_HSMqkENS2_6_Utils17CL_HSM_CipherTextIS3_EERNS2_3QFIEEPS1_S3_S6_St17reference_wrapperIS7_EEEEOT_RNSt16remove_referenceISI_E4typeE
FN:70,71,_ZSt7forwardIRKSt5_BindIFM4UserFvRN6BICYCL8CL_HSMqkERKNS2_6_Utils16CL_HSM_PublicKeyIS3_EERSt6vectorISt5tupleIJNS5_17CL_HSM_CipherTextIS3_EE11curve_pointEESaISF_EEPSt5mutexEPS1_S3_S7_St17reference_wrapperISH_ESK_EEEOT_RNSt16remove_referenceISU_E4typeE
FN:70,71,_ZSt7forwardIRKSt5_BindIFM9ValidatorFvN6BICYCL8CL_HSMqkENS2_6_Utils16CL_HSM_PublicKeyIS3_EENS4_17CL_HSM_CipherTextIS3_EES8_RSt5tupleIJS8_S8_S8_EEEPS1_S3_S6_S8_S8_St17reference_wrapperISA_EEEEOT_RNSt16remove_referenceISL_E4typeE
FN:70,71,_ZSt7forwardIRKSt5_BindIFM9ValidatorFvN6BICYCL8CL_HSMqkENS2_6_Utils16CL_HSM_PublicKeyIS3_EERSt5tupleIJNS4_17CL_HSM_CipherTextIS3_EE11curve_pointEEPSt5mutexEPS1_S3_S6_St17reference_wrapperISB_ESE_EEEOT_RNSt16remove_referenceISO_E4typeE
FN:70,71,_ZSt7forwardIRKSt5_BindIFM9ValidatorFvN6BICYCL8CL_HSMqkENS2_6_Utils17CL_HSM_CipherTextIS3_EERNS2_3QFIEEPS1_S3_S6_St17reference_wrapperIS7_EEEEOT_RNSt16remove_referenceISI_E4typeE
FN:70,71,_ZSt7forwardIRKSt5tupleIJN6BICYCL6_Utils17CL_HSM_CipherTextINS1_8CL_HSMqkEEE11curve_pointEEEOT_RNSt16remove_referenceISA_E4typeE
FN:70,71,_ZSt7forwardIRKSt5tupleIJN6BICYCL6_Utils17CL_HSM_CipherTextINS1_8CL_HSMqkEEES5_S5_EEEOT_RNSt16remove_referenceIS9_E4typeE
FN:70,71,_ZSt7forwardIRM21AccessControlContractFvPKN6BICYCL3QFIEmmRS2_EEOT_RNSt16remove_referenceIS9_E4typeE
FN:70,71,_ZSt7forwardIRM21AccessControlContractFvRSt6vectorISt5tupleIJN6BICYCL6_Utils17CL_HSM_CipherTextINS3_8CL_HSMqkEEE11curve_pointEESaIS9_EEmmNS4_16CL_HSM_PublicKeyIS6_EERS9_EEOT_RNSt16remove_referenceISJ_E4typeE
FN:70,71,_ZSt7forwardIRM21AccessControlContractFvRSt6vectorISt5tupleIJN6BICYCL6_Utils17CL_HSM_CipherTextINS3_8CL_HSMqkEEES7_S7_EESaIS8_EEmmNS4_16CL_HSM_PublicKeyIS6_EERS8_EEOT_RNSt16remove_referenceISI_E4typeE
FN:70,71,_ZSt7forwardIRM4UserFvN6BICYCL8CL_HSMqkENS1_6_Utils16CL_HSM_PublicKeyIS2_EENS3_17CL_HSM_CipherTextIS2_EES7_RSt5tupleIJS7_S7_S7_EEEEOT_RNSt16remove_referenceISE_E4typeE
FN:70,71,_ZSt7forwardIRM4UserFvN6BICYCL8CL_HSMqkENS1_6_Utils17CL_HSM_CipherTextIS2_EERNS1_3QFIEEEOT_RNSt16remove_referenceISB_E4typeE
FN:70,71,_ZSt7forwardIRM4UserFvRN6BICYCL8CL_HSMqkERKNS1_6_Utils16CL_HSM_PublicKeyIS2_EERSt6vectorISt5tupleIJNS4_17CL_HSM_CipherTextIS2_EE11curve_pointEESaISE_EEPSt5mutexEEOT_RNSt16remove_referenceISN_E4typeE
FN:70,71,_ZSt7forwardIRM9ValidatorFvN6BICYCL8CL_HSMqkENS1_6_Utils16CL_HSM_PublicKeyIS2_EENS3_17CL_HSM_CipherTextIS2_EES7_RSt5tupleIJS7_S7_S7_EEEEOT_RNSt16remove_referenceISE_E4typeE
FN:70,71,_ZSt7forwardIRM9ValidatorFvN6BICYCL8CL_HSMqkENS1_6_Utils16CL_HSM_PublicKeyIS2_EERSt5tupleIJNS3_17CL_HSM_CipherTextIS2_EE11curve_pointEEPSt5mutexEEOT_RNSt16remove_referenceISH_E4typeE
FN:70,71,_ZSt7forwardIRM9ValidatorFvN6BICYCL8CL_HSMqkENS1_6_Utils17CL_HSM_CipherTextIS2_EERNS1_3QFIEEEOT_RNSt16remove_referenceISB_E4typeE
FN:70,71,_ZSt7forwardIRMN6BICYCL8CL_HSM2kEKFvRNS0_3QFIERKNS0_3MpzEEEOT_RNSt16remove_referenceISA_E4typeE
FN:70,71,_ZSt7forwardIRMN6BICYCL8CL_HSMqkEKFvRNS0_3QFIERKNS0_3MpzEEEOT_RNSt16remove_referenceISA_E4typeE
FN:70,71,_ZSt7forwardIRN6BICYCL3QFIEEOT_RNSt16remove_referenceIS3_E4typeE
FN:70,71,_ZSt7forwardIRN6BICYCL6_Utils16CL_HSM_ClearTextINS0_8CL_HSMqkEEEEOT_RNSt16remove_referenceIS6_E4typeE
FN:70,71,_ZSt7forwardIRN6BICYCL6_Utils16CL_HSM_PublicKeyINS0_8CL_HSMqkEEEEOT_RNSt16remove_referenceIS6_E4typeE
FN:70,71,_ZSt7forwardIRN6BICYCL6_Utils17CL_HSM_CipherTextINS0_8CL_HSMqkEEEEOT_RNSt16remove_referenceIS6_E4typeE
FN:70,71,_ZSt7forwardIRN6BICYCL8CL_HSMqkEEOT_RNSt16remove_referenceIS3_E4typeE
FN:70,71,_ZSt7forwardIRNSt7__cxx1112basic_stringIcSt11char_traitsIcESaIcEEEEOT_RNSt16remove_referenceIS7_E4typeE
FN:70,71,_ZSt7forwardIRP14PolicyContractEOT_RNSt16remove_referenceIS3_E4typeE
FN:70,71,_ZSt7forwardIRP21AccessControlContractEOT_RNSt16remove_referenceIS3_E4typeE
FN:70,71,_ZSt7forwardIRP4UserEOT_RNSt16remove_referenceIS3_E4typeE
FN:70,71,_ZSt7forwardIRP9ValidatorEOT_RNSt16remove_referenceIS3_E4typeE
FN:70,71,_ZSt7forwardIRPKN6BICYCL3QFIEEOT_RNSt16remove_referenceIS5_E4typeE
FN:70,71,_ZSt7forwardIRPSt13_Rb_tree_nodeISt4pairIKNSt7__cxx1112basic_stringIcSt11char_traitsIcESaIcEEESt5tupleIJP14PolicyContractN6BICYCL6_Utils16CL_HSM_PublicKeyINSC_8CL_HSMqkEEENSD_17CL_HSM_CipherTextISF_EES7_EEEEEOT_RNSt16remove_referenceISO_E4typeE
FN:70,71,_ZSt7forwardIRPSt13_Rb_tree_nodeISt4pairIKNSt7__cxx1112basic_stringIcSt11char_traitsIcESaIcEEESt5tupleIJS7_N6BICYCL6_Utils16CL_HSM_ClearTextINSA_8CL_HSMqkEEEEEEEEOT_RNSt16remove_referenceISK_E4typeE
FN:70,71,_ZSt7forwardIRPSt13_Rb_tree_nodeISt4pairIKNSt7__cxx1112basic_stringIcSt11char_traitsIcESaIcEEESt5tupleIJS7_N6BICYCL6_Utils17CL_HSM_CipherTextINSA_8CL_HSMqkEEE11curve_pointS7_EEEEEOT_RNSt16remove_referenceISL_E4typeE
FN:70,71,_ZSt7forwardIRPSt13_Rb_tree_nodeISt4pairIKNSt7__cxx1112basic_stringIcSt11char_traitsIcESaIcEEESt5tupleIJS7_N6BICYCL6_Utils17CL_HSM_CipherTextINSA_8CL_HSMqkEEESE_SE_SE_EEEEEOT_RNSt16remove_referenceISK_E4typeE
FN:70,71,_ZSt7forwardIRPSt18_Rb_tree_node_baseEOT_RNSt16remove_referenceIS3_E4typeE
FN:70,71,_ZSt7forwardIRPSt5mutexEOT_RNSt16remove_referenceIS3_E4typeE
FN:70,71,_ZSt7forwardIRSt17_Rb_tree_iteratorISt4pairIKNSt7__cxx1112basic_stringIcSt11char_traitsIcESaIcEEESt5tupleIJP14PolicyContractN6BICYCL6_Utils16CL_HSM_PublicKeyINSC_8CL_HSMqkEEENSD_17CL_HSM_CipherTextISF_EES7_EEEEEOT_RNSt16remove_referenceISN_E4typeE
FN:70,71,_ZSt7forwardIRSt17_Rb_tree_iteratorISt4pairIKNSt7__cxx1112basic_stringIcSt11char_traitsIcESaIcEEESt5tupleIJS7_N6BICYCL6_Utils16CL_HSM_ClearTextINSA_8CL_HSMqkEEEEEEEEOT_RNSt16remove_referenceISJ_E4typeE
FN:70,71,_ZSt7forwardIRSt17_Rb_tree_iteratorISt4pairIKNSt7__cxx1112basic_stringIcSt11char_traitsIcESaIcEEESt5tupleIJS7_N6BICYCL6_Utils17CL_HSM_CipherTextINSA_8CL_HSMqkEEE11curve_pointS7_EEEEEOT_RNSt16remove_referenceISK_E4typeE
FN:70,71,_ZSt7forwardIRSt17_Rb_tree_iteratorISt4pairIKNSt7__cxx1112basic_stringIcSt11char_traitsIcESaIcEEESt5tupleIJS7_N6BICYCL6_Utils17CL_HSM_CipherTextINSA_8CL_HSMqkEEESE_SE_SE_EEEEEOT_RNSt16remove_referenceISJ_E4typeE
FN:70,71,_ZSt7forwardIRSt5_BindIFM21AccessControlContractFvPKN6BICYCL3QFIEmmRS3_EPS1_S5_mmSt17reference_wrapperIS3_EEEEOT_RNSt16remove_referenceISF_E4typeE
FN:70,71,_ZSt7forwardIRSt5_BindIFM21AccessControlContractFvRSt6vectorISt5tupleIJN6BICYCL6_Utils17CL_HSM_CipherTextINS4_8CL_HSMqkEEE11curve_pointEESaISA_EEmmNS5_16CL_HSM_PublicKeyIS7_EERSA_EPS1_St17reference_wrapperISC_EmmSF_SK_ISA_EEEEOT_RNSt16remove_referenceISQ_E4typeE
FN:70,71,_ZSt7forwardIRSt5_BindIFM21AccessControlContractFvRSt6vectorISt5tupleIJN6BICYCL6_Utils17CL_HSM_CipherTextINS4_8CL_HSMqkEEES8_S8_EESaIS9_EEmmNS5_16CL_HSM_PublicKeyIS7_EERS9_EPS1_St17reference_wrapperISB_EmmSE_SJ_IS9_EEEEOT_RNSt16remove_referenceISP_E4typeE
FN:70,71,_ZSt7forwardIRSt5_BindIFM4UserFvN6BICYCL8CL_HSMqkENS2_6_Utils16CL_HSM_PublicKeyIS3_EENS4_17CL_HSM_CipherTextIS3_EES8_RSt5tupleIJS8_S8_S8_EEEPS1_S3_S6_S8_S8_St17reference_wrapperISA_EEEEOT_RNSt16remove_referenceISK_E4typeE
FN:70,71,_ZSt7forwardIRSt5_BindIFM4UserFvN6BICYCL8CL_HSMqkENS2_6_Utils17CL_HSM_CipherTextIS3_EERNS2_3QFIEEPS1_S3_S6_St17reference_wrapperIS7_EEEEOT_RNSt16remove_referenceISH_E4typeE
FN:70,71,_ZSt7forwardIRSt5_BindIFM4UserFvRN6BICYCL8CL_HSMqkERKNS2_6_Utils16CL_HSM_PublicKeyIS3_EERSt6vectorISt5tupleIJNS5_17CL_HSM_CipherTextIS3_EE11curve_pointEESaISF_EEPSt5mutexEPS1_S3_S7_St17reference_wrapperISH_ESK_EEEOT_RNSt16remove_referenceIST_E4typeE
FN:70,71,_ZSt7forwardIRSt5_BindIFM9ValidatorFvN6BICYCL8CL_HSMqkENS2_6_Utils16CL_HSM_PublicKeyIS3_EENS4_17CL_HSM_CipherTextIS3_EES8_RSt5tupleIJS8_S8_S8_EEEPS1_S3_S6_S8_S8_St17reference_wrapperISA_EEEEOT_RNSt16remove_referenceISK_E4typeE
FN:70,71,_ZSt7forwardIRSt5_BindIFM9ValidatorFvN6BICYCL8CL_HSMqkENS2_6_Utils16CL_HSM_PublicKeyIS3_EERSt5tupleIJNS4_17CL_HSM_CipherTextIS3_EE11curve_pointEEPSt5mutexEPS1_S3_S6_St17reference_wrapperISB_ESE_EEEOT_RNSt16remove_referenceISN_E4typeE
FN:70,71,_ZSt7forwardIRSt5_BindIFM9ValidatorFvN6BICYCL8CL_HSMqkENS2_6_Utils17CL_HSM_CipherTextIS3_EERNS2_3QFIEEPS1_S3_S6_St17reference_wrapperIS7_EEEEOT_RNSt16remove_referenceISH_E4typeE
FN:70,71,_ZSt7forwardIRSt5tupleIJN6BICYCL6_Utils17CL_HSM_CipherTextINS1_8CL_HSMqkEEE11curve_pointEEEOT_RNSt16remove_referenceIS9_E4typeE
FN:70,71,_ZSt7forwardIRSt5tupleIJN6BICYCL6_Utils17CL_HSM_CipherTextINS1_8CL_HSMqkEEES5_S5_EEEOT_RNSt16remove_referenceIS8_E4typeE
FN:70,71,_ZSt7forwardIRSt6vectorISt5tupleIJN6BICYCL6_Utils17CL_HSM_CipherTextINS2_8CL_HSMqkEEE11curve_pointEESaIS8_EEEOT_RNSt16remove_referenceISC_E4typeE
FN:70,71,_ZSt7forwardIRSt6vectorISt5tupleIJN6BICYCL6_Utils17CL_HSM_CipherTextINS2_8CL_HSMqkEEES6_S6_EESaIS7_EEEOT_RNSt16remove_referenceISB_E4typeE
FN:70,71,_ZSt7forwardIRmEOT_RNSt16remove_referenceIS1_E4typeE
FN:70,71,_ZSt7forwardISt17reference_wrapperIKN6BICYCL3MpzEEEOT_RNSt16remove_referenceIS5_E4typeE
FN:70,71,_ZSt7forwardISt17reference_wrapperIN6BICYCL3QFIEEEOT_RNSt16remove_referenceIS4_E4typeE
FN:70,71,_ZSt7forwardISt17reference_wrapperISt5tupleIJN6BICYCL6_Utils17CL_HSM_CipherTextINS2_8CL_HSMqkEEE11curve_pointEEEEOT_RNSt16remove_referenceISA_E4typeE
FN:70,71,_ZSt7forwardISt17reference_wrapperISt5tupleIJN6BICYCL6_Utils17CL_HSM_CipherTextINS2_8CL_HSMqkEEES6_S6_EEEEOT_RNSt16remove_referenceIS9_E4typeE
FN:70,71,_ZSt7forwardISt17reference_wrapperISt6vectorISt5tupleIJN6BICYCL6_Utils17CL_HSM_CipherTextINS3_8CL_HSMqkEEE11curve_pointEESaIS9_EEEEOT_RNSt16remove_referenceISD_E4typeE
FN:70,71,_ZSt7forwardISt17reference_wrapperISt6vectorISt5tupleIJN6BICYCL6_Utils17CL_HSM_CipherTextINS3_8CL_HSMqkEEES7_S7_EESaIS8_EEEEOT_RNSt16remove_referenceISC_E4typeE
FN:70,71,_ZSt7forwardISt4pairINSt7__cxx1112basic_stringIcSt11char_traitsIcESaIcEEESt5tupleIJP14PolicyContractN6BICYCL6_Utils16CL_HSM_PublicKeyINSA_8CL_HSMqkEEENSB_17CL_HSM_CipherTextISD_EES6_EEEEOT_RNSt16remove_referenceISJ_E4typeE
FN:70,71,_ZSt7forwardISt4pairINSt7__cxx1112basic_stringIcSt11char_traitsIcESaIcEEESt5tupleIJS6_N6BICYCL6_Utils16CL_HSM_ClearTextINS8_8CL_HSMqkEEEEEEEOT_RNSt16remove_referenceISF_E4typeE
FN:70,71,_ZSt7forwardISt4pairINSt7__cxx1112basic_stringIcSt11char_traitsIcESaIcEEESt5tupleIJS6_N6BICYCL6_Utils17CL_HSM_CipherTextINS8_8CL_HSMqkEEE11curve_pointS6_EEEEOT_RNSt16remove_referenceISG_E4typeE
FN:70,71,_ZSt7forwardISt4pairINSt7__cxx1112basic_stringIcSt11char_traitsIcESaIcEEESt5tupleIJS6_N6BICYCL6_Utils17CL_HSM_CipherTextINS8_8CL_HSMqkEEESC_SC_SC_EEEEOT_RNSt16remove_referenceISF_E4typeE
FN:70,71,_ZSt7forwardISt5_BindIFM21AccessControlContractFvPKN6BICYCL3QFIEmmRS3_EPS1_S5_mmSt17reference_wrapperIS3_EEEEOT_RNSt16remove_referenceISE_E4typeE
FN:70,71,_ZSt7forwardISt5_BindIFM21AccessControlContractFvRSt6vectorISt5tupleIJN6BICYCL6_Utils17CL_HSM_CipherTextINS4_8CL_HSMqkEEE11curve_pointEESaISA_EEmmNS5_16CL_HSM_PublicKeyIS7_EERSA_EPS1_St17reference_wrapperISC_EmmSF_SK_ISA_EEEEOT_RNSt16remove_referenceISP_E4typeE
FN:70,71,_ZSt7forwardISt5_BindIFM21AccessControlContractFvRSt6vectorISt5tupleIJN6BICYCL6_Utils17CL_HSM_CipherTextINS4_8CL_HSMqkEEES8_S8_EESaIS9_EEmmNS5_16CL_HSM_PublicKeyIS7_EERS9_EPS1_St17reference_wrapperISB_EmmSE_SJ_IS9_EEEEOT_RNSt16remove_referenceISO_E4typeE
FN:70,71,_ZSt7forwardISt5_BindIFM4UserFvN6BICYCL8CL_HSMqkENS2_6_Utils16CL_HSM_PublicKeyIS3_EENS4_17CL_HSM_CipherTextIS3_EES8_RSt5tupleIJS8_S8_S8_EEEPS1_S3_S6_S8_S8_St17reference_wrapperISA_EEEEOT_RNSt16remove_referenceISJ_E4typeE
FN:70,71,_ZSt7forwardISt5_BindIFM4UserFvN6BICYCL8CL_HSMqkENS2_6_Utils17CL_HSM_CipherTextIS3_EERNS2_3QFIEEPS1_S3_S6_St17reference_wrapperIS7_EEEEOT_RNSt16remove_referenceISG_E4typeE
FN:70,71,_ZSt7forwardISt5_BindIFM4UserFvRN6BICYCL8CL_HSMqkERKNS2_6_Utils16CL_HSM_PublicKeyIS3_EERSt6vectorISt5tupleIJNS5_17CL_HSM_CipherTextIS3_EE11curve_pointEESaISF_EEPSt5mutexEPS1_S3_S7_St17reference_wrapperISH_ESK_EEEOT_RNSt16remove_referenceISS_E4typeE
FN:70,71,_ZSt7forwardISt5_BindIFM9ValidatorFvN6BICYCL8CL_HSMqkENS2_6_Utils16CL_HSM_PublicKeyIS3_EENS4_17CL_HSM_CipherTextIS3_EES8_RSt5tupleIJS8_S8_S8_EEEPS1_S3_S6_S8_S8_St17reference_wrapperISA_EEEEOT_RNSt16remove_referenceISJ_E4typeE
FN:70,71,_ZSt7forwardISt5_BindIFM9ValidatorFvN6BICYCL8CL_HSMqkENS2_6_Utils16CL_HSM_PublicKeyIS3_EERSt5tupleIJNS4_17CL_HSM_CipherTextIS3_EE11curve_pointEEPSt5mutexEPS1_S3_S6_St17reference_wrapperISB_ESE_EEEOT_RNSt16remove_referenceISM_E4typeE
FN:70,71,_ZSt7forwardISt5_BindIFM9ValidatorFvN6BICYCL8CL_HSMqkENS2_6_Utils17CL_HSM_CipherTextIS3_EERNS2_3QFIEEPS1_S3_S6_St17reference_wrapperIS7_EEEEOT_RNSt16remove_referenceISG_E4typeE
FN:70,71,_ZSt7forwardISt5tupleIJN6BICYCL6_Utils17CL_HSM_CipherTextINS1_8CL_HSMqkEEE11curve_pointEEEOT_RNSt16remove_referenceIS8_E4typeE
FN:70,71,_ZSt7forwardISt5tupleIJN6BICYCL6_Utils17CL_HSM_CipherTextINS1_8CL_HSMqkEEES5_S5_EEEOT_RNSt16remove_referenceIS7_E4typeE
FN:70,71,_ZSt7forwardISt5tupleIJNSt7__cxx1112basic_stringIcSt11char_traitsIcESaIcEEEN6BICYCL6_Utils16CL_HSM_ClearTextINS7_8CL_HSMqkEEEEEEOT_RNSt16remove_referenceISD_E4typeE
FN:70,71,_ZSt7forwardISt5tupleIJNSt7__cxx1112basic_stringIcSt11char_traitsIcESaIcEEEN6BICYCL6_Utils17CL_HSM_CipherTextINS7_8CL_HSMqkEEE11curve_pointS6_EEEOT_RNSt16remove_referenceISE_E4typeE
FN:70,71,_ZSt7forwardISt5tupleIJNSt7__cxx1112basic_stringIcSt11char_traitsIcESaIcEEEN6BICYCL6_Utils17CL_HSM_CipherTextINS7_8CL_HSMqkEEESB_SB_SB_EEEOT_RNSt16remove_referenceISD_E4typeE
FN:70,71,_ZSt7forwardISt5tupleIJP14PolicyContractN6BICYCL6_Utils16CL_HSM_PublicKeyINS3_8CL_HSMqkEEENS4_17CL_HSM_CipherTextIS6_EENSt7__cxx1112basic_stringIcSt11char_traitsIcESaIcEEEEEEOT_RNSt16remove_referenceISH_E4typeE
FN:70,71,_ZSt7forwardISt6threadEOT_RNSt16remove_referenceIS1_E4typeE
FN:70,71,_ZSt7forwardIZN10ThreadPoolC4EmEUlvE_EOT_RNSt16remove_referenceIS2_E4typeE
FN:70,71,_ZSt7forwardIbEOT_RNSt16remove_referenceIS0_E4typeE
FNDA:24,_ZSt4moveIRM21AccessControlContractFvPKN6BICYCL3QFIEmmRS2_EEONSt16remove_referenceIT_E4typeEOSA_
FNDA:12,_ZSt4moveIRM21AccessControlContractFvRSt6vectorISt5tupleIJN6BICYCL6_Utils17CL_HSM_CipherTextINS3_8CL_HSMqkEEE11curve_pointEESaIS9_EEmmNS4_16CL_HSM_PublicKeyIS6_EERS9_EEONSt16remove_referenceIT_E4typeEOSK_
FNDA:12,_ZSt4moveIRM21AccessControlContractFvRSt6vectorISt5tupleIJN6BICYCL6_Utils17CL_HSM_CipherTextINS3_8CL_HSMqkEEES7_S7_EESaIS8_EEmmNS4_16CL_HSM_PublicKeyIS6_EERS8_EEONSt16remove_referenceIT_E4typeEOSJ_
FNDA:100,_ZSt4moveIRM4UserFvN6BICYCL8CL_HSMqkENS1_6_Utils16CL_HSM_PublicKeyIS2_EENS3_17CL_HSM_CipherTextIS2_EES7_RSt5tupleIJS7_S7_S7_EEEEONSt16remove_referenceIT_E4typeEOSF_
FNDA:200,_ZSt4moveIRM4UserFvN6BICYCL8CL_HSMqkENS1_6_Utils17CL_HSM_CipherTextIS2_EERNS1_3QFIEEEONSt16remove_referenceIT_E4typeEOSC_
FNDA:100,_ZSt4moveIRM4UserFvRN6BICYCL8CL_HSMqkERKNS1_6_Utils16CL_HSM_PublicKeyIS2_EERSt6vectorISt5tupleIJNS4_17CL_HSM_CipherTextIS2_EE11curve_pointEESaISE_EEPSt5mutexEEONSt16remove_referenceIT_E4typeEOSO_
FNDA:2000,_ZSt4moveIRM9ValidatorFvN6BICYCL8CL_HSMqkENS1_6_Utils16CL_HSM_PublicKeyIS2_EENS3_17CL_HSM_CipherTextIS2_EES7_RSt5tupleIJS7_S7_S7_EEEEONSt16remove_referenceIT_E4typeEOSF_
FNDA:2000,_ZSt4moveIRM9ValidatorFvN6BICYCL8CL_HSMqkENS1_6_Utils16CL_HSM_PublicKeyIS2_EERSt5tupleIJNS3_17CL_HSM_CipherTextIS2_EE11curve_pointEEPSt5mutexEEONSt16remove_referenceIT_E4typeEOSI_
FNDA:4000,_ZSt4moveIRM9ValidatorFvN6BICYCL8CL_HSMqkENS1_6_Utils17CL_HSM_CipherTextIS2_EERNS1_3QFIEEEONSt16remove_referenceIT_E4typeEOSC_
FNDA:45,_ZSt4moveIRNSt6thread2idEEONSt16remove_referenceIT_E4typeEOS4_
FNDA:2,_ZSt4moveIRNSt7__cxx1112basic_stringIcSt11char_traitsIcESaIcEEEEONSt16remove_referenceIT_E4typeEOS8_
FNDA:25344,_ZSt4moveIRPFbRSt9_Any_dataRKS0_St18_Manager_operationEEONSt16remove_referenceIT_E4typeEOS9_
FNDA:25344,_ZSt4moveIRPFvRKSt9_Any_dataEEONSt16remove_referenceIT_E4typeEOS7_
FNDA:0,_ZSt4moveIRPNSt6thread6_StateEEONSt16remove_referenceIT_E4typeEOS5_
FNDA:0,_ZSt4moveIRSaIcEEONSt16remove_referenceIT_E4typeEOS3_
FNDA:2012,_ZSt4moveIRSt11_Tuple_implILm1EJ11curve_pointEEEONSt16remove_referenceIT_E4typeEOS5_
FNDA:2112,_ZSt4moveIRSt11_Tuple_implILm1EJN6BICYCL6_Utils17CL_HSM_CipherTextINS1_8CL_HSMqkEEES5_EEEONSt16remove_referenceIT_E4typeEOS9_
FNDA:2112,_ZSt4moveIRSt11_Tuple_implILm2EJN6BICYCL6_Utils17CL_HSM_CipherTextINS1_8CL_HSMqkEEEEEEONSt16remove_referenceIT_E4typeEOS9_
FNDA:24,_ZSt4moveIRSt5_BindIFM21AccessControlContractFvPKN6BICYCL3QFIEmmRS3_EPS1_S5_mmSt17reference_wrapperIS3_EEEEONSt16remove_referenceIT_E4typeEOSG_
FNDA:12,_ZSt4moveIRSt5_BindIFM21AccessControlContractFvRSt6vectorISt5tupleIJN6BICYCL6_Utils17CL_HSM_CipherTextINS4_8CL_HSMqkEEE11curve_pointEESaISA_EEmmNS5_16CL_HSM_PublicKeyIS7_EERSA_EPS1_St17reference_wrapperISC_EmmSF_SK_ISA_EEEEONSt16remove_referenceIT_E4typeEOSR_
FNDA:12,_ZSt4moveIRSt5_BindIFM21AccessControlContractFvRSt6vectorISt5tupleIJN6BICYCL6_Utils17CL_HSM_CipherTextINS4_8CL_HSMqkEEES8_S8_EESaIS9_EEmmNS5_16CL_HSM_PublicKeyIS7_EERS9_EPS1_St17reference_wrapperISB_EmmSE_SJ_IS9_EEEEONSt16remove_referenceIT_E4typeEOSQ_
FNDA:100,_ZSt4moveIRSt5_BindIFM4UserFvN6BICYCL8CL_HSMqkENS2_6_Utils16CL_HSM_PublicKeyIS3_EENS4_17CL_HSM_CipherTextIS3_EES8_RSt5tupleIJS8_S8_S8_EEEPS1_S3_S6_S8_S8_St17reference_wrapperISA_EEEEONSt16remove_referenceIT_E4typeEOSL_
FNDA:200,_ZSt4moveIRSt5_BindIFM4UserFvN6BICYCL8CL_HSMqkENS2_6_Utils17CL_HSM_CipherTextIS3_EERNS2_3QFIEEPS1_S3_S6_St17reference_wrapperIS7_EEEEONSt16remove_referenceIT_E4typeEOSI_
FNDA:100,_ZSt4moveIRSt5_BindIFM4UserFvRN6BICYCL8CL_HSMqkERKNS2_6_Utils16CL_HSM_PublicKeyIS3_EERSt6vectorISt5tupleIJNS5_17CL_HSM_CipherTextIS3_EE11curve_pointEESaISF_EEPSt5mutexEPS1_S3_S7_St17reference_wrapperISH_ESK_EEEONSt16remove_referenceIT_E4typeEOSU_
FNDA:2000,_ZSt4moveIRSt5_BindIFM9ValidatorFvN6BICYCL8CL_HSMqkENS2_6_Utils16CL_HSM_PublicKeyIS3_EENS4_17CL_HSM_CipherTextIS3_EES8_RSt5tupleIJS8_S8_S8_EEEPS1_S3_S6_S8_S8_St17reference_wrapperISA_EEEEONSt16remove_referenceIT_E4typeEOSL_
FNDA:2000,_ZSt4moveIRSt5_BindIFM9ValidatorFvN6BICYCL8CL_HSMqkENS2_6_Utils16CL_HSM_PublicKeyIS3_EERSt5tupleIJNS4_17CL_HSM_CipherTextIS3_EE11curve_pointEEPSt5mutexEPS1_S3_S6_St17reference_wrapperISB_ESE_EEEONSt16remove_referenceIT_E4typeEOSO_
FNDA:4000,_ZSt4moveIRSt5_BindIFM9ValidatorFvN6BICYCL8CL_HSMqkENS2_6_Utils17CL_HSM_CipherTextIS3_EERNS2_3QFIEEPS1_S3_S6_St17reference_wrapperIS7_EEEEONSt16remove_referenceIT_E4typeEOSI_
FNDA:0,_ZSt4moveIRSt5tupleIJMN6BICYCL8CL_HSM2kEKFvRNS1_3QFIERKNS1_3MpzEES2_St17reference_wrapperIS3_ESA_IS6_EEEEONSt16remove_referenceIT_E4typeEOSG_
FNDA:67216,_ZSt4moveIRSt5tupleIJMN6BICYCL8CL_HSMqkEKFvRNS1_3QFIERKNS1_3MpzEES2_St17reference_wrapperIS3_ESA_IS6_EEEEONSt16remove_referenceIT_E4typeEOSG_
FNDA:4124,_ZSt4moveIRSt5tupleIJN6BICYCL6_Utils17CL_HSM_CipherTextINS1_8CL_HSMqkEEE11curve_pointEEEONSt16remove_referenceIT_E4typeEOSA_
FNDA:4224,_ZSt4moveIRSt5tupleIJN6BICYCL6_Utils17CL_HSM_CipherTextINS1_8CL_HSMqkEEES5_S5_EEEONSt16remove_referenceIT_E4typeEOS9_
FNDA:12,_ZSt4moveIRSt5tupleIJZN10ThreadPoolC4EmEUlvE_EEEONSt16remove_referenceIT_E4typeEOS6_
FNDA:15,_ZSt4moveIRSt6threadEONSt16remove_referenceIT_E4typeEOS3_
FNDA:16896,_ZSt4moveIRSt8functionIFvvEEEONSt16remove_referenceIT_E4typeEOS5_
FNDA:25344,_ZSt4moveIRSt9_Any_dataEONSt16remove_referenceIT_E4typeEOS3_
FNDA:2,_ZSt4moveIRZNSt7__cxx119to_stringEiEUlPcmE_EONSt16remove_referenceIT_E4typeEOS5_
FNDA:15,_ZSt4swapINSt6thread2idEENSt9enable_ifIXsrSt6__and_IJSt6__not_ISt15__is_tuple_likeIT_EESt21is_move_constructibleIS6_ESt18is_move_assignableIS6_EEE5valueEvE4typeERS6_SG_
FNDA:8448,_ZSt4swapIPFbRSt9_Any_dataRKS0_St18_Manager_operationEENSt9enable_ifIXsrSt6__and_IJSt6__not_ISt15__is_tuple_likeIT_EESt21is_move_constructibleISB_ESt18is_move_assignableISB_EEE5valueEvE4typeERSB_SL_
FNDA:8448,_ZSt4swapIPFvRKSt9_Any_dataEENSt9enable_ifIXsrSt6__and_IJSt6__not_ISt15__is_tuple_likeIT_EESt21is_move_constructibleIS9_ESt18is_move_assignableIS9_EEE5valueEvE4typeERS9_SJ_
FNDA:8448,_ZSt4swapISt9_Any_dataENSt9enable_ifIXsrSt6__and_IJSt6__not_ISt15__is_tuple_likeIT_EESt21is_move_constructibleIS5_ESt18is_move_assignableIS5_EEE5valueEvE4typeERS5_SF_
FNDA:200,_ZSt11__addressofI4UserEPT_RS1_
FNDA:4000,_ZSt11__addressofI9ValidatorEPT_RS1_
FNDA:16804,_ZSt11__addressofIKN6BICYCL3MpzEEPT_RS3_
FNDA:21028,_ZSt11__addressofIN6BICYCL3QFIEEPT_RS2_
FNDA:1,_ZSt11__addressofINSt7__cxx1112basic_stringIcSt11char_traitsIcESaIcEEEEPT_RS6_
FNDA:16917,_ZSt11__addressofISt5mutexEPT_RS1_
FNDA:12418,_ZSt11__addressofISt5tupleIJN6BICYCL6_Utils17CL_HSM_CipherTextINS1_8CL_HSMqkEEE11curve_pointEEEPT_RS8_
FNDA:12414,_ZSt11__addressofISt5tupleIJN6BICYCL6_Utils17CL_HSM_CipherTextINS1_8CL_HSMqkEEES5_S5_EEEPT_RS7_
FNDA:57,_ZSt11__addressofISt6threadEPT_RS1_
FNDA:112,_ZSt11__addressofISt6vectorISt5tupleIJN6BICYCL6_Utils17CL_HSM_CipherTextINS2_8CL_HSMqkEEE11curve_pointEESaIS8_EEEPT_RSB_
FNDA:12,_ZSt11__addressofISt6vectorISt5tupleIJN6BICYCL6_Utils17CL_HSM_CipherTextINS2_8CL_HSMqkEEES6_S6_EESaIS7_EEEPT_RSA_
FNDA:0,_ZSt11__addressofISt8functionIFvvEEEPT_RS3_
FNDA:33616,_ZSt11__addressofIhEPT_RS0_
FNDA:2012,_ZSt7forwardI11curve_pointEOT_RNSt16remove_referenceIS1_E4typeE
FNDA:48,_ZSt7forwardIM21AccessControlContractFvPKN6BICYCL3QFIEmmRS2_EEOT_RNSt16remove_referenceIS8_E4typeE
FNDA:24,_ZSt7forwardIM21AccessControlContractFvRSt6vectorISt5tupleIJN6BICYCL6_Utils17CL_HSM_CipherTextINS3_8CL_HSMqkEEE11curve_pointEESaIS9_EEmmNS4_16CL_HSM_PublicKeyIS6_EERS9_EEOT_RNSt16remove_referenceISI_E4typeE
FNDA:24,_ZSt7forwardIM21AccessControlContractFvRSt6vectorISt5tupleIJN6BICYCL6_Utils17CL_HSM_CipherTextINS3_8CL_HSMqkEEES7_S7_EESaIS8_EEmmNS4_16CL_HSM_PublicKeyIS6_EERS8_EEOT_RNSt16remove_referenceISH_E4typeE
FNDA:200,_ZSt7forwardIM4UserFvN6BICYCL8CL_HSMqkENS1_6_Utils16CL_HSM_PublicKeyIS2_EENS3_17CL_HSM_CipherTextIS2_EES7_RSt5tupleIJS7_S7_S7_EEEEOT_RNSt16remove_referenceISD_E4typeE
FNDA:400,_ZSt7forwardIM4UserFvN6BICYCL8CL_HSMqkENS1_6_Utils17CL_HSM_CipherTextIS2_EERNS1_3QFIEEEOT_RNSt16remove_referenceISA_E4typeE
FNDA:200,_ZSt7forwardIM4UserFvRN6BICYCL8CL_HSMqkERKNS1_6_Utils16CL_HSM_PublicKeyIS2_EERSt6vectorISt5tupleIJNS4_17CL_HSM_CipherTextIS2_EE11curve_pointEESaISE_EEPSt5mutexEEOT_RNSt16remove_referenceISM_E4typeE
FNDA:4000,_ZSt7forwardIM9ValidatorFvN6BICYCL8CL_HSMqkENS1_6_Utils16CL_HSM_PublicKeyIS2_EENS3_17CL_HSM_CipherTextIS2_EES7_RSt5tupleIJS7_S7_S7_EEEEOT_RNSt16remove_referenceISD_E4typeE
FNDA:4000,_ZSt7forwardIM9ValidatorFvN6BICYCL8CL_HSMqkENS1_6_Utils16CL_HSM_PublicKeyIS2_EERSt5tupleIJNS3_17CL_HSM_CipherTextIS2_EE11curve_pointEEPSt5mutexEEOT_RNSt16remove_referenceISG_E4typeE
FNDA:8000,_ZSt7forwardIM9ValidatorFvN6BICYCL8CL_HSMqkENS1_6_Utils17CL_HSM_CipherTextIS2_EERNS1_3QFIEEEOT_RNSt16remove_referenceISA_E4typeE
FNDA:0,_ZSt7forwardIMN6BICYCL8CL_HSM2kEKFvRNS0_3QFIERKNS0_3MpzEEEOT_RNSt16remove_referenceIS9_E4typeE
FNDA:33608,_ZSt7forwardIMN6BICYCL8CL_HSMqkEKFvRNS0_3QFIERKNS0_3MpzEEEOT_RNSt16remove_referenceIS9_E4typeE
FNDA:8348,_ZSt7forwardIN6BICYCL6_Utils17CL_HSM_CipherTextINS0_8CL_HSMqkEEEEOT_RNSt16remove_referenceIS5_E4typeE
FNDA:0,_ZSt7forwardIN6BICYCL8CL_HSM2kEEOT_RNSt16remove_referenceIS2_E4typeE
FNDA:33608,_ZSt7forwardIN6BICYCL8CL_HSMqkEEOT_RNSt16remove_referenceIS2_E4typeE
FNDA:11,_ZSt7forwardINSt7__cxx1112basic_stringIcSt11char_traitsIcESaIcEEEEOT_RNSt16remove_referenceIS6_E4typeE
FNDA:288,_ZSt7forwardIP21AccessControlContractEOT_RNSt16remove_referenceIS2_E4typeE
FNDA:2400,_ZSt7forwardIP4UserEOT_RNSt16remove_referenceIS2_E4typeE
FNDA:48000,_ZSt7forwardIP9ValidatorEOT_RNSt16remove_referenceIS2_E4typeE
FNDA:21000,_ZSt7forwardIPSt5mutexEOT_RNSt16remove_referenceIS2_E4typeE
FNDA:20626,_ZSt7forwardIR11curve_pointEOT_RNSt16remove_referenceIS2_E4typeE
FNDA:16804,_ZSt7forwardIRKN6BICYCL3MpzEEOT_RNSt16remove_referenceIS4_E4typeE
FNDA:4,_ZSt7forwardIRKN6BICYCL6_Utils16CL_HSM_PublicKeyINS0_8CL_HSMqkEEEEOT_RNSt16remove_referenceIS7_E4typeE
FNDA:5,_ZSt7forwardIRKN6BICYCL6_Utils17CL_HSM_CipherTextINS0_8CL_HSMqkEEEEOT_RNSt16remove_referenceIS7_E4typeE
FNDA:0,_ZSt7forwardIRKN6BICYCL8CL_HSM2kEEOT_RNSt16remove_referenceIS4_E4typeE
FNDA:100824,_ZSt7forwardIRKN6BICYCL8CL_HSMqkEEOT_RNSt16remove_referenceIS4_E4typeE
FNDA:6,_ZSt7forwardIRKNSt7__cxx1112basic_stringIcSt11char_traitsIcESaIcEEEEOT_RNSt16remove_referenceIS8_E4typeE
FNDA:0,_ZSt7forwardIRKSt5_BindIFM21AccessControlContractFvPKN6BICYCL3QFIEmmRS3_EPS1_S5_mmSt17reference_wrapperIS3_EEEEOT_RNSt16remove_referenceISG_E4typeE
FNDA:0,_ZSt7forwardIRKSt5_BindIFM21AccessControlContractFvRSt6vectorISt5tupleIJN6BICYCL6_Utils17CL_HSM_CipherTextINS4_8CL_HSMqkEEE11curve_pointEESaISA_EEmmNS5_16CL_HSM_PublicKeyIS7_EERSA_EPS1_St17reference_wrapperISC_EmmSF_SK_ISA_EEEEOT_RNSt16remove_referenceISR_E4typeE
FNDA:0,_ZSt7forwardIRKSt5_BindIFM21AccessControlContractFvRSt6vectorISt5tupleIJN6BICYCL6_Utils17CL_HSM_CipherTextINS4_8CL_HSMqkEEES8_S8_EESaIS9_EEmmNS5_16CL_HSM_PublicKeyIS7_EERS9_EPS1_St17reference_wrapperISB_EmmSE_SJ_IS9_EEEEOT_RNSt16remove_referenceISQ_E4typeE
FNDA:0,_ZSt7forwardIRKSt5_BindIFM4UserFvN6BICYCL8CL_HSMqkENS2_6_Utils16CL_HSM_PublicKeyIS3_EENS4_17CL_HSM_CipherTextIS3_EES8_RSt5tupleIJS8_S8_S8_EEEPS1_S3_S6_S8_S8_St17reference_wrapperISA_EEEEOT_RNSt16remove_referenceISL_E4typeE
FNDA:0,_ZSt7forwardIRKSt5_BindIFM4UserFvN6BICYCL8CL_HSMqkENS2_6_Utils17CL_HSM_CipherTextIS3_EERNS2_3QFIEEPS1_S3_S6_St17reference_wrapperIS7_EEEEOT_RNSt16remove_referenceISI_E4typeE
FNDA:0,_ZSt7forwardIRKSt5_BindIFM4UserFvRN6BICYCL8CL_HSMqkERKNS2_6_Utils16CL_HSM_PublicKeyIS3_EERSt6vectorISt5tupleIJNS5_17CL_HSM_CipherTextIS3_EE11curve_pointEESaISF_EEPSt5mutexEPS1_S3_S7_St17reference_wrapperISH_ESK_EEEOT_RNSt16remove_referenceISU_E4typeE
FNDA:0,_ZSt7forwardIRKSt5_BindIFM9ValidatorFvN6BICYCL8CL_HSMqkENS2_6_Utils16CL_HSM_PublicKeyIS3_EENS4_17CL_HSM_CipherTextIS3_EES8_RSt5tupleIJS8_S8_S8_EEEPS1_S3_S6_S8_S8_St17reference_wrapperISA_EEEEOT_RNSt16remove_referenceISL_E4typeE
FNDA:0,_ZSt7forwardIRKSt5_BindIFM9ValidatorFvN6BICYCL8CL_HSMqkENS2_6_Utils16CL_HSM_PublicKeyIS3_EERSt5tupleIJNS4_17CL_HSM_CipherTextIS3_EE11curve_pointEEPSt5mutexEPS1_S3_S6_St17reference_wrapperISB_ESE_EEEOT_RNSt16remove_referenceISO_E4typeE
FNDA:0,_ZSt7forwardIRKSt5_BindIFM9ValidatorFvN6BICYCL8CL_HSMqkENS2_6_Utils17CL_HSM_CipherTextIS3_EERNS2_3QFIEEPS1_S3_S6_St17reference_wrapperIS7_EEEEOT_RNSt16remove_referenceISI_E4typeE
FNDA:4147,_ZSt7forwardIRKSt5tupleIJN6BICYCL6_Utils17CL_HSM_CipherTextINS1_8CL_HSMqkEEE11curve_pointEEEOT_RNSt16remove_referenceISA_E4typeE
FNDA:4095,_ZSt7forwardIRKSt5tupleIJN6BICYCL6_Utils17CL_HSM_CipherTextINS1_8CL_HSMqkEEES5_S5_EEEOT_RNSt16remove_referenceIS9_E4typeE
FNDA:24,_ZSt7forwardIRM21AccessControlContractFvPKN6BICYCL3QFIEmmRS2_EEOT_RNSt16remove_referenceIS9_E4typeE
FNDA:12,_ZSt7forwardIRM21AccessControlContractFvRSt6vectorISt5tupleIJN6BICYCL6_Utils17CL_HSM_CipherTextINS3_8CL_HSMqkEEE11curve_pointEESaIS9_EEmmNS4_16CL_HSM_PublicKeyIS6_EERS9_EEOT_RNSt16remove_referenceISJ_E4typeE
FNDA:12,_ZSt7forwardIRM21AccessControlContractFvRSt6vectorISt5tupleIJN6BICYCL6_Utils17CL_HSM_CipherTextINS3_8CL_HSMqkEEES7_S7_EESaIS8_EEmmNS4_16CL_HSM_PublicKeyIS6_EERS8_EEOT_RNSt16remove_referenceISI_E4typeE
FNDA:100,_ZSt7forwardIRM4UserFvN6BICYCL8CL_HSMqkENS1_6_Utils16CL_HSM_PublicKeyIS2_EENS3_17CL_HSM_CipherTextIS2_EES7_RSt5tupleIJS7_S7_S7_EEEEOT_RNSt16remove_referenceISE_E4typeE
FNDA:200,_ZSt7forwardIRM4UserFvN6BICYCL8CL_HSMqkENS1_6_Utils17CL_HSM_CipherTextIS2_EERNS1_3QFIEEEOT_RNSt16remove_referenceISB_E4typeE
FNDA:100,_ZSt7forwardIRM4UserFvRN6BICYCL8CL_HSMqkERKNS1_6_Utils16CL_HSM_PublicKeyIS2_EERSt6vectorISt5tupleIJNS4_17CL_HSM_CipherTextIS2_EE11curve_pointEESaISE_EEPSt5mutexEEOT_RNSt16remove_referenceISN_E4typeE
FNDA:2000,_ZSt7forwardIRM9ValidatorFvN6BICYCL8CL_HSMqkENS1_6_Utils16CL_HSM_PublicKeyIS2_EENS3_17CL_HSM_CipherTextIS2_EES7_RSt5tupleIJS7_S7_S7_EEEEOT_RNSt16remove_referenceISE_E4typeE
FNDA:2000,_ZSt7forwardIRM9ValidatorFvN6BICYCL8CL_HSMqkENS1_6_Utils16CL_HSM_PublicKeyIS2_EERSt5tupleIJNS3_17CL_HSM_CipherTextIS2_EE11curve_pointEEPSt5mutexEEOT_RNSt16remove_referenceISH_E4typeE
FNDA:4000,_ZSt7forwardIRM9ValidatorFvN6BICYCL8CL_HSMqkENS1_6_Utils17CL_HSM_CipherTextIS2_EERNS1_3QFIEEEOT_RNSt16remove_referenceISB_E4typeE
FNDA:0,_ZSt7forwardIRMN6BICYCL8CL_HSM2kEKFvRNS0_3QFIERKNS0_3MpzEEEOT_RNSt16remove_referenceISA_E4typeE
FNDA:100824,_ZSt7forwardIRMN6BICYCL8CL_HSMqkEKFvRNS0_3QFIERKNS0_3MpzEEEOT_RNSt16remove_referenceISA_E4typeE
FNDA:29476,_ZSt7forwardIRN6BICYCL3QFIEEOT_RNSt16remove_referenceIS3_E4typeE
FNDA:5,_ZSt7forwardIRN6BICYCL6_Utils16CL_HSM_ClearTextINS0_8CL_HSMqkEEEEOT_RNSt16remove_referenceIS6_E4typeE
FNDA:46512,_ZSt7forwardIRN6BICYCL6_Utils16CL_HSM_PublicKeyINS0_8CL_HSMqkEEEEOT_RNSt16remove_referenceIS6_E4typeE
FNDA:178587,_ZSt7forwardIRN6BICYCL6_Utils17CL_HSM_CipherTextINS0_8CL_HSMqkEEEEOT_RNSt16remove_referenceIS6_E4typeE
FNDA:84000,_ZSt7forwardIRN6BICYCL8CL_HSMqkEEOT_RNSt16remove_referenceIS3_E4typeE
FNDA:23,_ZSt7forwardIRNSt7__cxx1112basic_stringIcSt11char_traitsIcESaIcEEEEOT_RNSt16remove_referenceIS7_E4typeE
FNDA:4,_ZSt7forwardIRP14PolicyContractEOT_RNSt16remove_referenceIS3_E4typeE
FNDA:144,_ZSt7forwardIRP21AccessControlContractEOT_RNSt16remove_referenceIS3_E4typeE
FNDA:1200,_ZSt7forwardIRP4UserEOT_RNSt16remove_referenceIS3_E4typeE
FNDA:24000,_ZSt7forwardIRP9ValidatorEOT_RNSt16remove_referenceIS3_E4typeE
FNDA:240,_ZSt7forwardIRPKN6BICYCL3QFIEEOT_RNSt16remove_referenceIS5_E4typeE
FNDA:1,_ZSt7forwardIRPSt13_Rb_tree_nodeISt4pairIKNSt7__cxx1112basic_stringIcSt11char_traitsIcESaIcEEESt5tupleIJP14PolicyContractN6BICYCL6_Utils16CL_HSM_PublicKeyINSC_8CL_HSMqkEEENSD_17CL_HSM_CipherTextISF_EES7_EEEEEOT_RNSt16remove_referenceISO_E4typeE
FNDA:1,_ZSt7forwardIRPSt13_Rb_tree_nodeISt4pairIKNSt7__cxx1112basic_stringIcSt11char_traitsIcESaIcEEESt5tupleIJS7_N6BICYCL6_Utils16CL_HSM_ClearTextINSA_8CL_HSMqkEEEEEEEEOT_RNSt16remove_referenceISK_E4typeE
FNDA:1,_ZSt7forwardIRPSt13_Rb_tree_nodeISt4pairIKNSt7__cxx1112basic_stringIcSt11char_traitsIcESaIcEEESt5tupleIJS7_N6BICYCL6_Utils17CL_HSM_CipherTextINSA_8CL_HSMqkEEE11curve_pointS7_EEEEEOT_RNSt16remove_referenceISL_E4typeE
FNDA:1,_ZSt7forwardIRPSt13_Rb_tree_nodeISt4pairIKNSt7__cxx1112basic_stringIcSt11char_traitsIcESaIcEEESt5tupleIJS7_N6BICYCL6_Utils17CL_HSM_CipherTextINSA_8CL_HSMqkEEESE_SE_SE_EEEEEOT_RNSt16remove_referenceISK_E4typeE
FNDA:4,_ZSt7forwardIRPSt18_Rb_tree_node_baseEOT_RNSt16remove_referenceIS3_E4typeE
FNDA:6300,_ZSt7forwardIRPSt5mutexEOT_RNSt16remove_referenceIS3_E4typeE
FNDA:1,_ZSt7forwardIRSt17_Rb_tree_iteratorISt4pairIKNSt7__cxx1112basic_stringIcSt11char_traitsIcESaIcEEESt5tupleIJP14PolicyContractN6BICYCL6_Utils16CL_HSM_PublicKeyINSC_8CL_HSMqkEEENSD_17CL_HSM_CipherTextISF_EES7_EEEEEOT_RNSt16remove_referenceISN_E4typeE
FNDA:1,_ZSt7forwardIRSt17_Rb_tree_iteratorISt4pairIKNSt7__cxx1112basic_stringIcSt11char_traitsIcESaIcEEESt5tupleIJS7_N6BICYCL6_Utils16CL_HSM_ClearTextINSA_8CL_HSMqkEEEEEEEEOT_RNSt16remove_referenceISJ_E4typeE
FNDA:1,_ZSt7forwardIRSt17_Rb_tree_iteratorISt4pairIKNSt7__cxx1112basic_stringIcSt11char_traitsIcESaIcEEESt5tupleIJS7_N6BICYCL6_Utils17CL_HSM_CipherTextINSA_8CL_HSMqkEEE11curve_pointS7_EEEEEOT_RNSt16remove_referenceISK_E4typeE
FNDA:1,_ZSt7forwardIRSt17_Rb_tree_iteratorISt4pairIKNSt7__cxx1112basic_stringIcSt11char_traitsIcESaIcEEESt5tupleIJS7_N6BICYCL6_Utils17CL_HSM_CipherTextINSA_8CL_HSMqkEEESE_SE_SE_EEEEEOT_RNSt16remove_referenceISJ_E4typeE
FNDA:48,_ZSt7forwardIRSt5_BindIFM21AccessControlContractFvPKN6BICYCL3QFIEmmRS3_EPS1_S5_mmSt17reference_wrapperIS3_EEEEOT_RNSt16remove_referenceISF_E4typeE
FNDA:24,_ZSt7forwardIRSt5_BindIFM21AccessControlContractFvRSt6vectorISt5tupleIJN6BICYCL6_Utils17CL_HSM_CipherTextINS4_8CL_HSMqkEEE11curve_pointEESaISA_EEmmNS5_16CL_HSM_PublicKeyIS7_EERSA_EPS1_St17reference_wrapperISC_EmmSF_SK_ISA_EEEEOT_RNSt16remove_referenceISQ_E4typeE
FNDA:24,_ZSt7forwardIRSt5_BindIFM21AccessControlContractFvRSt6vectorISt5tupleIJN6BICYCL6_Utils17CL_HSM_CipherTextINS4_8CL_HSMqkEEES8_S8_EESaIS9_EEmmNS5_16CL_HSM_PublicKeyIS7_EERS9_EPS1_St17reference_wrapperISB_EmmSE_SJ_IS9_EEEEOT_RNSt16remove_referenceISP_E4typeE
FNDA:200,_ZSt7forwardIRSt5_BindIFM4UserFvN6BICYCL8CL_HSMqkENS2_6_Utils16CL_HSM_PublicKeyIS3_EENS4_17CL_HSM_CipherTextIS3_EES8_RSt5tupleIJS8_S8_S8_EEEPS1_S3_S6_S8_S8_St17reference_wrapperISA_EEEEOT_RNSt16remove_referenceISK_E4typeE
FNDA:400,_ZSt7forwardIRSt5_BindIFM4UserFvN6BICYCL8CL_HSMqkENS2_6_Utils17CL_HSM_CipherTextIS3_EERNS2_3QFIEEPS1_S3_S6_St17reference_wrapperIS7_EEEEOT_RNSt16remove_referenceISH_E4typeE
FNDA:200,_ZSt7forwardIRSt5_BindIFM4UserFvRN6BICYCL8CL_HSMqkERKNS2_6_Utils16CL_HSM_PublicKeyIS3_EERSt6vectorISt5tupleIJNS5_17CL_HSM_CipherTextIS3_EE11curve_pointEESaISF_EEPSt5mutexEPS1_S3_S7_St17reference_wrapperISH_ESK_EEEOT_RNSt16remove_referenceIST_E4typeE
FNDA:4000,_ZSt7forwardIRSt5_BindIFM9ValidatorFvN6BICYCL8CL_HSMqkENS2_6_Utils16CL_HSM_PublicKeyIS3_EENS4_17CL_HSM_CipherTextIS3_EES8_RSt5tupleIJS8_S8_S8_EEEPS1_S3_S6_S8_S8_St17reference_wrapperISA_EEEEOT_RNSt16remove_referenceISK_E4typeE
FNDA:4000,_ZSt7forwardIRSt5_BindIFM9ValidatorFvN6BICYCL8CL_HSMqkENS2_6_Utils16CL_HSM_PublicKeyIS3_EERSt5tupleIJNS4_17CL_HSM_CipherTextIS3_EE11curve_pointEEPSt5mutexEPS1_S3_S6_St17reference_wrapperISB_ESE_EEEOT_RNSt16remove_referenceISN_E4typeE
FNDA:8000,_ZSt7forwardIRSt5_BindIFM9ValidatorFvN6BICYCL8CL_HSMqkENS2_6_Utils17CL_HSM_CipherTextIS3_EERNS2_3QFIEEPS1_S3_S6_St17reference_wrapperIS7_EEEEOT_RNSt16remove_referenceISH_E4typeE
FNDA:6036,_ZSt7forwardIRSt5tupleIJN6BICYCL6_Utils17CL_HSM_CipherTextINS1_8CL_HSMqkEEE11curve_pointEEEOT_RNSt16remove_referenceIS9_E4typeE
FNDA:6336,_ZSt7forwardIRSt5tupleIJN6BICYCL6_Utils17CL_HSM_CipherTextINS1_8CL_HSMqkEEES5_S5_EEEOT_RNSt16remove_referenceIS8_E4typeE
FNDA:336,_ZSt7forwardIRSt6vectorISt5tupleIJN6BICYCL6_Utils17CL_HSM_CipherTextINS2_8CL_HSMqkEEE11curve_pointEESaIS8_EEEOT_RNSt16remove_referenceISC_E4typeE
FNDA:36,_ZSt7forwardIRSt6vectorISt5tupleIJN6BICYCL6_Utils17CL_HSM_CipherTextINS2_8CL_HSMqkEEES6_S6_EESaIS7_EEEOT_RNSt16remove_referenceISB_E4typeE
FNDA:1104,_ZSt7forwardIRmEOT_RNSt16remove_referenceIS1_E4typeE
FNDA:201648,_ZSt7forwardISt17reference_wrapperIKN6BICYCL3MpzEEEOT_RNSt16remove_referenceIS5_E4typeE
FNDA:222884,_ZSt7forwardISt17reference_wrapperIN6BICYCL3QFIEEEOT_RNSt16remove_referenceIS4_E4typeE
FNDA:18132,_ZSt7forwardISt17reference_wrapperISt5tupleIJN6BICYCL6_Utils17CL_HSM_CipherTextINS2_8CL_HSMqkEEE11curve_pointEEEEOT_RNSt16remove_referenceISA_E4typeE
FNDA:23232,_ZSt7forwardISt17reference_wrapperISt5tupleIJN6BICYCL6_Utils17CL_HSM_CipherTextINS2_8CL_HSMqkEEES6_S6_EEEEOT_RNSt16remove_referenceIS9_E4typeE
FNDA:984,_ZSt7forwardISt17reference_wrapperISt6vectorISt5tupleIJN6BICYCL6_Utils17CL_HSM_CipherTextINS3_8CL_HSMqkEEE11curve_pointEESaIS9_EEEEOT_RNSt16remove_referenceISD_E4typeE
FNDA:84,_ZSt7forwardISt17reference_wrapperISt6vectorISt5tupleIJN6BICYCL6_Utils17CL_HSM_CipherTextINS3_8CL_HSMqkEEES7_S7_EESaIS8_EEEEOT_RNSt16remove_referenceISC_E4typeE
FNDA:8,_ZSt7forwardISt4pairINSt7__cxx1112basic_stringIcSt11char_traitsIcESaIcEEESt5tupleIJP14PolicyContractN6BICYCL6_Utils16CL_HSM_PublicKeyINSA_8CL_HSMqkEEENSB_17CL_HSM_CipherTextISD_EES6_EEEEOT_RNSt16remove_referenceISJ_E4typeE
FNDA:8,_ZSt7forwardISt4pairINSt7__cxx1112basic_stringIcSt11char_traitsIcESaIcEEESt5tupleIJS6_N6BICYCL6_Utils16CL_HSM_ClearTextINS8_8CL_HSMqkEEEEEEEOT_RNSt16remove_referenceISF_E4typeE
FNDA:8,_ZSt7forwardISt4pairINSt7__cxx1112basic_stringIcSt11char_traitsIcESaIcEEESt5tupleIJS6_N6BICYCL6_Utils17CL_HSM_CipherTextINS8_8CL_HSMqkEEE11curve_pointS6_EEEEOT_RNSt16remove_referenceISG_E4typeE
FNDA:8,_ZSt7forwardISt4pairINSt7__cxx1112basic_stringIcSt11char_traitsIcESaIcEEESt5tupleIJS6_N6BICYCL6_Utils17CL_HSM_CipherTextINS8_8CL_HSMqkEEESC_SC_SC_EEEEOT_RNSt16remove_referenceISF_E4typeE
FNDA:170,_ZSt7forwardISt5_BindIFM21AccessControlContractFvPKN6BICYCL3QFIEmmRS3_EPS1_S5_mmSt17reference_wrapperIS3_EEEEOT_RNSt16remove_referenceISE_E4typeE
FNDA:85,_ZSt7forwardISt5_BindIFM21AccessControlContractFvRSt6vectorISt5tupleIJN6BICYCL6_Utils17CL_HSM_CipherTextINS4_8CL_HSMqkEEE11curve_pointEESaISA_EEmmNS5_16CL_HSM_PublicKeyIS7_EERSA_EPS1_St17reference_wrapperISC_EmmSF_SK_ISA_EEEEOT_RNSt16remove_referenceISP_E4typeE
FNDA:85,_ZSt7forwardISt5_BindIFM21AccessControlContractFvRSt6vectorISt5tupleIJN6BICYCL6_Utils17CL_HSM_CipherTextINS4_8CL_HSMqkEEES8_S8_EESaIS9_EEmmNS5_16CL_HSM_PublicKeyIS7_EERS9_EPS1_St17reference_wrapperISB_EmmSE_SJ_IS9_EEEEOT_RNSt16remove_referenceISO_E4typeE
FNDA:706,_ZSt7forwardISt5_BindIFM4UserFvN6BICYCL8CL_HSMqkENS2_6_Utils16CL_HSM_PublicKeyIS3_EENS4_17CL_HSM_CipherTextIS3_EES8_RSt5tupleIJS8_S8_S8_EEEPS1_S3_S6_S8_S8_St17reference_wrapperISA_EEEEOT_RNSt16remove_referenceISJ_E4typeE
FNDA:1412,_ZSt7forwardISt5_BindIFM4UserFvN6BICYCL8CL_HSMqkENS2_6_Utils17CL_HSM_CipherTextIS3_EERNS2_3QFIEEPS1_S3_S6_St17reference_wrapperIS7_EEEEOT_RNSt16remove_referenceISG_E4typeE
FNDA:706,_ZSt7forwardISt5_BindIFM4UserFvRN6BICYCL8CL_HSMqkERKNS2_6_Utils16CL_HSM_PublicKeyIS3_EERSt6vectorISt5tupleIJNS5_17CL_HSM_CipherTextIS3_EE11curve_pointEESaISF_EEPSt5mutexEPS1_S3_S7_St17reference_wrapperISH_ESK_EEEOT_RNSt16remove_referenceISS_E4typeE
FNDA:14125,_ZSt7forwardISt5_BindIFM9ValidatorFvN6BICYCL8CL_HSMqkENS2_6_Utils16CL_HSM_PublicKeyIS3_EENS4_17CL_HSM_CipherTextIS3_EES8_RSt5tupleIJS8_S8_S8_EEEPS1_S3_S6_S8_S8_St17reference_wrapperISA_EEEEOT_RNSt16remove_referenceISJ_E4typeE
FNDA:14125,_ZSt7forwardISt5_BindIFM9ValidatorFvN6BICYCL8CL_HSMqkENS2_6_Utils16CL_HSM_PublicKeyIS3_EERSt5tupleIJNS4_17CL_HSM_CipherTextIS3_EE11curve_pointEEPSt5mutexEPS1_S3_S6_St17reference_wrapperISB_ESE_EEEOT_RNSt16remove_referenceISM_E4typeE
FNDA:28250,_ZSt7forwardISt5_BindIFM9ValidatorFvN6BICYCL8CL_HSMqkENS2_6_Utils17CL_HSM_CipherTextIS3_EERNS2_3QFIEEPS1_S3_S6_St17reference_wrapperIS7_EEEEOT_RNSt16remove_referenceISG_E4typeE
FNDA:6348,_ZSt7forwardISt5tupleIJN6BICYCL6_Utils17CL_HSM_CipherTextINS1_8CL_HSMqkEEE11curve_pointEEEOT_RNSt16remove_referenceIS8_E4typeE
FNDA:6349,_ZSt7forwardISt5tupleIJN6BICYCL6_Utils17CL_HSM_CipherTextINS1_8CL_HSMqkEEES5_S5_EEEOT_RNSt16remove_referenceIS7_E4typeE
FNDA:3,_ZSt7forwardISt5tupleIJNSt7__cxx1112basic_stringIcSt11char_traitsIcESaIcEEEN6BICYCL6_Utils16CL_HSM_ClearTextINS7_8CL_HSMqkEEEEEEOT_RNSt16remove_referenceISD_E4typeE
FNDA:3,_ZSt7forwardISt5tupleIJNSt7__cxx1112basic_stringIcSt11char_traitsIcESaIcEEEN6BICYCL6_Utils17CL_HSM_CipherTextINS7_8CL_HSMqkEEE11curve_pointS6_EEEOT_RNSt16remove_referenceISE_E4typeE
FNDA:3,_ZSt7forwardISt5tupleIJNSt7__cxx1112basic_stringIcSt11char_traitsIcESaIcEEEN6BICYCL6_Utils17CL_HSM_CipherTextINS7_8CL_HSMqkEEESB_SB_SB_EEEOT_RNSt16remove_referenceISD_E4typeE
FNDA:3,_ZSt7forwardISt5tupleIJP14PolicyContractN6BICYCL6_Utils16CL_HSM_PublicKeyINS3_8CL_HSMqkEEENS4_17CL_HSM_CipherTextIS6_EENSt7__cxx1112basic_stringIcSt11char_traitsIcESaIcEEEEEEOT_RNSt16remove_referenceISH_E4typeE
FNDA:30,_ZSt7forwardISt6threadEOT_RNSt16remove_referenceIS1_E4typeE
FNDA:149,_ZSt7forwardIZN10ThreadPoolC4EmEUlvE_EOT_RNSt16remove_referenceIS2_E4typeE
FNDA:4,_ZSt7forwardIbEOT_RNSt16remove_referenceIS0_E4typeE
FNF:165
FNH:148
DA:51,117579
DA:52,117579
DA:70,1362753
DA:71,1362753
DA:126,191700
DA:127,191700
DA:213,25359
DA:221,25359
DA:222,25359
DA:223,25359
DA:224,25359
LF:11
LH:11
end_of_record
TN:
SF:/usr/include/c++/14.2.1/bits/new_allocator.h
FN:104,104,_ZNSt15__new_allocatorI4UserED2Ev
FN:104,104,_ZNSt15__new_allocatorI9ValidatorED2Ev
FN:104,104,_ZNSt15__new_allocatorINSt7__cxx1112basic_stringIcSt11char_traitsIcESaIcEEEED2Ev
FN:104,104,_ZNSt15__new_allocatorIPSt8functionIFvvEEED2Ev
FN:104,104,_ZNSt15__new_allocatorISt13_Rb_tree_nodeISt4pairIKNSt7__cxx1112basic_stringIcSt11char_traitsIcESaIcEEESt5tupleIJP14PolicyContractN6BICYCL6_Utils16CL_HSM_PublicKeyINSC_8CL_HSMqkEEENSD_17CL_HSM_CipherTextISF_EES7_EEEEED2Ev
FN:104,104,_ZNSt15__new_allocatorISt13_Rb_tree_nodeISt4pairIKNSt7__cxx1112basic_stringIcSt11char_traitsIcESaIcEEESt5tupleIJS7_N6BICYCL6_Utils16CL_HSM_ClearTextINSA_8CL_HSMqkEEEEEEEED2Ev
FN:104,104,_ZNSt15__new_allocatorISt13_Rb_tree_nodeISt4pairIKNSt7__cxx1112basic_stringIcSt11char_traitsIcESaIcEEESt5tupleIJS7_N6BICYCL6_Utils17CL_HSM_CipherTextINSA_8CL_HSMqkEEE11curve_pointS7_EEEEED2Ev
FN:104,104,_ZNSt15__new_allocatorISt13_Rb_tree_nodeISt4pairIKNSt7__cxx1112basic_stringIcSt11char_traitsIcESaIcEEESt5tupleIJS7_N6BICYCL6_Utils17CL_HSM_CipherTextINSA_8CL_HSMqkEEESE_SE_SE_EEEEED2Ev
FN:104,104,_ZNSt15__new_allocatorISt5tupleIJN6BICYCL6_Utils17CL_HSM_CipherTextINS1_8CL_HSMqkEEE11curve_pointEEED2Ev
FN:104,104,_ZNSt15__new_allocatorISt5tupleIJN6BICYCL6_Utils17CL_HSM_CipherTextINS1_8CL_HSMqkEEES5_S5_EEED2Ev
FN:104,104,_ZNSt15__new_allocatorISt6threadED2Ev
FN:104,104,_ZNSt15__new_allocatorISt8functionIFvvEEED2Ev
FN:104,104,_ZNSt15__new_allocatorIcED2Ev
FN:104,104,_ZNSt15__new_allocatorIhED2Ev
FN:126,152,_ZNSt15__new_allocatorI4UserE8allocateEmPKv
FN:126,152,_ZNSt15__new_allocatorI9ValidatorE8allocateEmPKv
FN:126,152,_ZNSt15__new_allocatorINSt7__cxx1112basic_stringIcSt11char_traitsIcESaIcEEEE8allocateEmPKv
FN:126,152,_ZNSt15__new_allocatorIPSt8functionIFvvEEE8allocateEmPKv
FN:126,152,_ZNSt15__new_allocatorISt13_Rb_tree_nodeISt4pairIKNSt7__cxx1112basic_stringIcSt11char_traitsIcESaIcEEESt5tupleIJP14PolicyContractN6BICYCL6_Utils16CL_HSM_PublicKeyINSC_8CL_HSMqkEEENSD_17CL_HSM_CipherTextISF_EES7_EEEEE8allocateEmPKv
FN:126,152,_ZNSt15__new_allocatorISt13_Rb_tree_nodeISt4pairIKNSt7__cxx1112basic_stringIcSt11char_traitsIcESaIcEEESt5tupleIJS7_N6BICYCL6_Utils16CL_HSM_ClearTextINSA_8CL_HSMqkEEEEEEEE8allocateEmPKv
FN:126,152,_ZNSt15__new_allocatorISt13_Rb_tree_nodeISt4pairIKNSt7__cxx1112basic_stringIcSt11char_traitsIcESaIcEEESt5tupleIJS7_N6BICYCL6_Utils17CL_HSM_CipherTextINSA_8CL_HSMqkEEE11curve_pointS7_EEEEE8allocateEmPKv
FN:126,152,_ZNSt15__new_allocatorISt13_Rb_tree_nodeISt4pairIKNSt7__cxx1112basic_stringIcSt11char_traitsIcESaIcEEESt5tupleIJS7_N6BICYCL6_Utils17CL_HSM_CipherTextINSA_8CL_HSMqkEEESE_SE_SE_EEEEE8allocateEmPKv
FN:126,152,_ZNSt15__new_allocatorISt5tupleIJN6BICYCL6_Utils17CL_HSM_CipherTextINS1_8CL_HSMqkEEE11curve_pointEEE8allocateEmPKv
FN:126,152,_ZNSt15__new_allocatorISt5tupleIJN6BICYCL6_Utils17CL_HSM_CipherTextINS1_8CL_HSMqkEEES5_S5_EEE8allocateEmPKv
FN:126,152,_ZNSt15__new_allocatorISt6threadE8allocateEmPKv
FN:126,152,_ZNSt15__new_allocatorISt8functionIFvvEEE8allocateEmPKv
FN:126,152,_ZNSt15__new_allocatorIhE8allocateEmPKv
FN:156,173,_ZNSt15__new_allocatorI4UserE10deallocateEPS0_m
FN:156,173,_ZNSt15__new_allocatorI9ValidatorE10deallocateEPS0_m
FN:156,173,_ZNSt15__new_allocatorINSt7__cxx1112basic_stringIcSt11char_traitsIcESaIcEEEE10deallocateEPS5_m
FN:156,173,_ZNSt15__new_allocatorIPSt8functionIFvvEEE10deallocateEPS3_m
FN:156,173,_ZNSt15__new_allocatorISt13_Rb_tree_nodeISt4pairIKNSt7__cxx1112basic_stringIcSt11char_traitsIcESaIcEEESt5tupleIJP14PolicyContractN6BICYCL6_Utils16CL_HSM_PublicKeyINSC_8CL_HSMqkEEENSD_17CL_HSM_CipherTextISF_EES7_EEEEE10deallocateEPSL_m
FN:156,173,_ZNSt15__new_allocatorISt13_Rb_tree_nodeISt4pairIKNSt7__cxx1112basic_stringIcSt11char_traitsIcESaIcEEESt5tupleIJS7_N6BICYCL6_Utils16CL_HSM_ClearTextINSA_8CL_HSMqkEEEEEEEE10deallocateEPSH_m
FN:156,173,_ZNSt15__new_allocatorISt13_Rb_tree_nodeISt4pairIKNSt7__cxx1112basic_stringIcSt11char_traitsIcESaIcEEESt5tupleIJS7_N6BICYCL6_Utils17CL_HSM_CipherTextINSA_8CL_HSMqkEEE11curve_pointS7_EEEEE10deallocateEPSI_m
FN:156,173,_ZNSt15__new_allocatorISt13_Rb_tree_nodeISt4pairIKNSt7__cxx1112basic_stringIcSt11char_traitsIcESaIcEEESt5tupleIJS7_N6BICYCL6_Utils17CL_HSM_CipherTextINSA_8CL_HSMqkEEESE_SE_SE_EEEEE10deallocateEPSH_m
FN:156,173,_ZNSt15__new_allocatorISt5tupleIJN6BICYCL6_Utils17CL_HSM_CipherTextINS1_8CL_HSMqkEEE11curve_pointEEE10deallocateEPS7_m
FN:156,173,_ZNSt15__new_allocatorISt5tupleIJN6BICYCL6_Utils17CL_HSM_CipherTextINS1_8CL_HSMqkEEES5_S5_EEE10deallocateEPS6_m
FN:156,173,_ZNSt15__new_allocatorISt6threadE10deallocateEPS0_m
FN:156,173,_ZNSt15__new_allocatorISt8functionIFvvEEE10deallocateEPS2_m
FN:156,173,_ZNSt15__new_allocatorIhE10deallocateEPhm
FNDA:3,_ZNSt15__new_allocatorI4UserED2Ev
FNDA:3,_ZNSt15__new_allocatorI9ValidatorED2Ev
FNDA:1,_ZNSt15__new_allocatorINSt7__cxx1112basic_stringIcSt11char_traitsIcESaIcEEEED2Ev
FNDA:14,_ZNSt15__new_allocatorIPSt8functionIFvvEEED2Ev
FNDA:1,_ZNSt15__new_allocatorISt13_Rb_tree_nodeISt4pairIKNSt7__cxx1112basic_stringIcSt11char_traitsIcESaIcEEESt5tupleIJP14PolicyContractN6BICYCL6_Utils16CL_HSM_PublicKeyINSC_8CL_HSMqkEEENSD_17CL_HSM_CipherTextISF_EES7_EEEEED2Ev
FNDA:1,_ZNSt15__new_allocatorISt13_Rb_tree_nodeISt4pairIKNSt7__cxx1112basic_stringIcSt11char_traitsIcESaIcEEESt5tupleIJS7_N6BICYCL6_Utils16CL_HSM_ClearTextINSA_8CL_HSMqkEEEEEEEED2Ev
FNDA:1,_ZNSt15__new_allocatorISt13_Rb_tree_nodeISt4pairIKNSt7__cxx1112basic_stringIcSt11char_traitsIcESaIcEEESt5tupleIJS7_N6BICYCL6_Utils17CL_HSM_CipherTextINSA_8CL_HSMqkEEE11curve_pointS7_EEEEED2Ev
FNDA:1,_ZNSt15__new_allocatorISt13_Rb_tree_nodeISt4pairIKNSt7__cxx1112basic_stringIcSt11char_traitsIcESaIcEEESt5tupleIJS7_N6BICYCL6_Utils17CL_HSM_CipherTextINSA_8CL_HSMqkEEESE_SE_SE_EEEEED2Ev
FNDA:7,_ZNSt15__new_allocatorISt5tupleIJN6BICYCL6_Utils17CL_HSM_CipherTextINS1_8CL_HSMqkEEE11curve_pointEEED2Ev
FNDA:2,_ZNSt15__new_allocatorISt5tupleIJN6BICYCL6_Utils17CL_HSM_CipherTextINS1_8CL_HSMqkEEES5_S5_EEED2Ev
FNDA:1,_ZNSt15__new_allocatorISt6threadED2Ev
FNDA:1,_ZNSt15__new_allocatorISt8functionIFvvEEED2Ev
FNDA:4206,_ZNSt15__new_allocatorIcED2Ev
FNDA:100848,_ZNSt15__new_allocatorIhED2Ev
FNDA:1,_ZNSt15__new_allocatorI4UserE8allocateEmPKv
FNDA:1,_ZNSt15__new_allocatorI9ValidatorE8allocateEmPKv
FNDA:1,_ZNSt15__new_allocatorINSt7__cxx1112basic_stringIcSt11char_traitsIcESaIcEEEE8allocateEmPKv
FNDA:7,_ZNSt15__new_allocatorIPSt8functionIFvvEEE8allocateEmPKv
FNDA:1,_ZNSt15__new_allocatorISt13_Rb_tree_nodeISt4pairIKNSt7__cxx1112basic_stringIcSt11char_traitsIcESaIcEEESt5tupleIJP14PolicyContractN6BICYCL6_Utils16CL_HSM_PublicKeyINSC_8CL_HSMqkEEENSD_17CL_HSM_CipherTextISF_EES7_EEEEE8allocateEmPKv
FNDA:1,_ZNSt15__new_allocatorISt13_Rb_tree_nodeISt4pairIKNSt7__cxx1112basic_stringIcSt11char_traitsIcESaIcEEESt5tupleIJS7_N6BICYCL6_Utils16CL_HSM_ClearTextINSA_8CL_HSMqkEEEEEEEE8allocateEmPKv
FNDA:1,_ZNSt15__new_allocatorISt13_Rb_tree_nodeISt4pairIKNSt7__cxx1112basic_stringIcSt11char_traitsIcESaIcEEESt5tupleIJS7_N6BICYCL6_Utils17CL_HSM_CipherTextINSA_8CL_HSMqkEEE11curve_pointS7_EEEEE8allocateEmPKv
FNDA:1,_ZNSt15__new_allocatorISt13_Rb_tree_nodeISt4pairIKNSt7__cxx1112basic_stringIcSt11char_traitsIcESaIcEEESt5tupleIJS7_N6BICYCL6_Utils17CL_HSM_CipherTextINSA_8CL_HSMqkEEESE_SE_SE_EEEEE8allocateEmPKv
FNDA:16,_ZNSt15__new_allocatorISt5tupleIJN6BICYCL6_Utils17CL_HSM_CipherTextINS1_8CL_HSMqkEEE11curve_pointEEE8allocateEmPKv
FNDA:14,_ZNSt15__new_allocatorISt5tupleIJN6BICYCL6_Utils17CL_HSM_CipherTextINS1_8CL_HSMqkEEES5_S5_EEE8allocateEmPKv
FNDA:5,_ZNSt15__new_allocatorISt6threadE8allocateEmPKv
FNDA:529,_ZNSt15__new_allocatorISt8functionIFvvEEE8allocateEmPKv
FNDA:33616,_ZNSt15__new_allocatorIhE8allocateEmPKv
FNDA:1,_ZNSt15__new_allocatorI4UserE10deallocateEPS0_m
FNDA:1,_ZNSt15__new_allocatorI9ValidatorE10deallocateEPS0_m
FNDA:1,_ZNSt15__new_allocatorINSt7__cxx1112basic_stringIcSt11char_traitsIcESaIcEEEE10deallocateEPS5_m
FNDA:7,_ZNSt15__new_allocatorIPSt8functionIFvvEEE10deallocateEPS3_m
FNDA:1,_ZNSt15__new_allocatorISt13_Rb_tree_nodeISt4pairIKNSt7__cxx1112basic_stringIcSt11char_traitsIcESaIcEEESt5tupleIJP14PolicyContractN6BICYCL6_Utils16CL_HSM_PublicKeyINSC_8CL_HSMqkEEENSD_17CL_HSM_CipherTextISF_EES7_EEEEE10deallocateEPSL_m
FNDA:1,_ZNSt15__new_allocatorISt13_Rb_tree_nodeISt4pairIKNSt7__cxx1112basic_stringIcSt11char_traitsIcESaIcEEESt5tupleIJS7_N6BICYCL6_Utils16CL_HSM_ClearTextINSA_8CL_HSMqkEEEEEEEE10deallocateEPSH_m
FNDA:1,_ZNSt15__new_allocatorISt13_Rb_tree_nodeISt4pairIKNSt7__cxx1112basic_stringIcSt11char_traitsIcESaIcEEESt5tupleIJS7_N6BICYCL6_Utils17CL_HSM_CipherTextINSA_8CL_HSMqkEEE11curve_pointS7_EEEEE10deallocateEPSI_m
FNDA:1,_ZNSt15__new_allocatorISt13_Rb_tree_nodeISt4pairIKNSt7__cxx1112basic_stringIcSt11char_traitsIcESaIcEEESt5tupleIJS7_N6BICYCL6_Utils17CL_HSM_CipherTextINSA_8CL_HSMqkEEESE_SE_SE_EEEEE10deallocateEPSH_m
FNDA:16,_ZNSt15__new_allocatorISt5tupleIJN6BICYCL6_Utils17CL_HSM_CipherTextINS1_8CL_HSMqkEEE11curve_pointEEE10deallocateEPS7_m
FNDA:14,_ZNSt15__new_allocatorISt5tupleIJN6BICYCL6_Utils17CL_HSM_CipherTextINS1_8CL_HSMqkEEES5_S5_EEE10deallocateEPS6_m
FNDA:5,_ZNSt15__new_allocatorISt6threadE10deallocateEPS0_m
FNDA:529,_ZNSt15__new_allocatorISt8functionIFvvEEE10deallocateEPS2_m
FNDA:33616,_ZNSt15__new_allocatorIhE10deallocateEPhm
FNF:40
FNH:40
DA:88,37850
DA:92,67240
DA:104,105090
DA:126,34194
DA:134,34194
DA:138,0
DA:139,0
DA:140,0
DA:151,34194
DA:156,34194
DA:172,34194
DA:183,34211
DA:191,12704
DA:198,8467
DA:233,68405
LF:15
LH:12
end_of_record
TN:
SF:/usr/include/c++/14.2.1/bits/ptr_traits.h
FN:205,209,_ZSt12__to_addressINSt7__cxx1112basic_stringIcSt11char_traitsIcESaIcEEEEPT_S7_
FN:205,209,_ZSt12__to_addressISt5tupleIJN6BICYCL6_Utils17CL_HSM_CipherTextINS1_8CL_HSMqkEEE11curve_pointEEEPT_S9_
FN:205,209,_ZSt12__to_addressISt5tupleIJN6BICYCL6_Utils17CL_HSM_CipherTextINS1_8CL_HSMqkEEES5_S5_EEEPT_S8_
FN:205,209,_ZSt12__to_addressISt6threadEPT_S2_
FNDA:1,_ZSt12__to_addressINSt7__cxx1112basic_stringIcSt11char_traitsIcESaIcEEEEPT_S7_
FNDA:12,_ZSt12__to_addressISt5tupleIJN6BICYCL6_Utils17CL_HSM_CipherTextINS1_8CL_HSMqkEEE11curve_pointEEEPT_S9_
FNDA:13,_ZSt12__to_addressISt5tupleIJN6BICYCL6_Utils17CL_HSM_CipherTextINS1_8CL_HSMqkEEES5_S5_EEEPT_S8_
FNDA:5,_ZSt12__to_addressISt6threadEPT_S2_
FNF:4
FNH:4
DA:205,31
DA:208,31
LF:2
LH:2
end_of_record
TN:
SF:/usr/include/c++/14.2.1/bits/random.h
FN:1760,1760,_ZNSt13random_deviceC2Ev
FN:1765,1766,_ZNSt13random_deviceD2Ev
FN:1781,1782,_ZNSt13random_deviceclEv
FN:244,250,_ZNSt8__detail4_ModImLm4294967296ELm1ELm0ELb1ELb1EE6__calcEm
FN:244,250,_ZNSt8__detail4_ModImLm624ELm1ELm0ELb1ELb1EE6__calcEm
FN:255,261,_ZNSt8__detail5__modImLm4294967296ELm1ELm0EEET_S1_
FN:255,261,_ZNSt8__detail5__modImLm624ELm1ELm0EEET_S1_
FN:647,648,_ZNSt23mersenne_twister_engineImLm32ELm624ELm397ELm31ELm2567483615ELm11ELm4294967295ELm7ELm2636928640ELm15ELm4022730752ELm18ELm1812433253EEC2Em
FNDA:2,_ZNSt13random_deviceC2Ev
FNDA:2,_ZNSt13random_deviceD2Ev
FNDA:2,_ZNSt13random_deviceclEv
FNDA:1248,_ZNSt8__detail4_ModImLm4294967296ELm1ELm0ELb1ELb1EE6__calcEm
FNDA:1246,_ZNSt8__detail4_ModImLm624ELm1ELm0ELb1ELb1EE6__calcEm
FNDA:1248,_ZNSt8__detail5__modImLm4294967296ELm1ELm0EEET_S1_
FNDA:1246,_ZNSt8__detail5__modImLm624ELm1ELm0EEET_S1_
FNDA:2,_ZNSt23mersenne_twister_engineImLm32ELm624ELm397ELm31ELm2567483615ELm11ELm4294967295ELm7ELm2636928640ELm15ELm4022730752ELm18ELm1812433253EEC2Em
FNF:8
FNH:8
DA:244,2494
DA:246,2494
DA:248,2494
DA:249,2494
DA:255,2494
DA:260,2494
DA:647,2
DA:648,2
DA:1760,6
DA:1765,2
DA:1766,2
DA:1781,2
DA:1782,2
LF:13
LH:13
end_of_record
TN:
SF:/usr/include/c++/14.2.1/bits/random.tcc
FN:326,343,_ZNSt23mersenne_twister_engineImLm32ELm624ELm397ELm31ELm2567483615ELm11ELm4294967295ELm7ELm2636928640ELm15ELm4022730752ELm18ELm1812433253EE4seedEm
FN:397,425,_ZNSt23mersenne_twister_engineImLm32ELm624ELm397ELm31ELm2567483615ELm11ELm4294967295ELm7ELm2636928640ELm15ELm4022730752ELm18ELm1812433253EE11_M_gen_randEv
FN:453,469,_ZNSt23mersenne_twister_engineImLm32ELm624ELm397ELm31ELm2567483615ELm11ELm4294967295ELm7ELm2636928640ELm15ELm4022730752ELm18ELm1812433253EEclEv
FNDA:2,_ZNSt23mersenne_twister_engineImLm32ELm624ELm397ELm31ELm2567483615ELm11ELm4294967295ELm7ELm2636928640ELm15ELm4022730752ELm18ELm1812433253EE4seedEm
FNDA:2,_ZNSt23mersenne_twister_engineImLm32ELm624ELm397ELm31ELm2567483615ELm11ELm4294967295ELm7ELm2636928640ELm15ELm4022730752ELm18ELm1812433253EE11_M_gen_randEv
FNDA:2,_ZNSt23mersenne_twister_engineImLm32ELm624ELm397ELm31ELm2567483615ELm11ELm4294967295ELm7ELm2636928640ELm15ELm4022730752ELm18ELm1812433253EEclEv
FNF:3
FNH:3
DA:326,2
DA:330,2
DA:331,2
DA:333,1248
DA:335,1246
DA:336,1246
DA:337,1246
DA:338,1246
DA:339,1246
DA:340,1246
DA:342,2
DA:343,2
DA:397,2
DA:401,2
DA:402,2
DA:404,456
DA:406,454
DA:407,454
DA:408,908
DA:409,454
DA:412,794
DA:414,792
DA:415,792
DA:416,1584
DA:417,792
DA:420,2
DA:421,2
DA:422,4
DA:423,2
DA:424,2
DA:425,2
DA:453,2
DA:458,2
DA:459,2
DA:462,2
DA:463,2
DA:464,2
DA:465,2
DA:466,2
DA:468,2
LF:40
LH:40
end_of_record
TN:
SF:/usr/include/c++/14.2.1/bits/refwrap.h
FN:317,317,_ZNSt17reference_wrapperIKN6BICYCL3MpzEE6_S_funERS2_
FN:317,317,_ZNSt17reference_wrapperIN6BICYCL3QFIEE6_S_funERS1_
FN:317,317,_ZNSt17reference_wrapperISt5tupleIJN6BICYCL6_Utils17CL_HSM_CipherTextINS1_8CL_HSMqkEEE11curve_pointEEE6_S_funERS7_
FN:317,317,_ZNSt17reference_wrapperISt5tupleIJN6BICYCL6_Utils17CL_HSM_CipherTextINS1_8CL_HSMqkEEES5_S5_EEE6_S_funERS6_
FN:317,317,_ZNSt17reference_wrapperISt6vectorISt5tupleIJN6BICYCL6_Utils17CL_HSM_CipherTextINS2_8CL_HSMqkEEE11curve_pointEESaIS8_EEE6_S_funERSA_
FN:317,317,_ZNSt17reference_wrapperISt6vectorISt5tupleIJN6BICYCL6_Utils17CL_HSM_CipherTextINS2_8CL_HSMqkEEES6_S6_EESaIS7_EEE6_S_funERS9_
FN:334,337,_ZNSt17reference_wrapperIKN6BICYCL3MpzEEC2IRS2_vPS2_EEOT_
FN:334,337,_ZNSt17reference_wrapperIN6BICYCL3QFIEEC2IRS1_vPS1_EEOT_
FN:334,337,_ZNSt17reference_wrapperISt5tupleIJN6BICYCL6_Utils17CL_HSM_CipherTextINS1_8CL_HSMqkEEE11curve_pointEEEC2IRS7_vPS7_EEOT_
FN:334,337,_ZNSt17reference_wrapperISt5tupleIJN6BICYCL6_Utils17CL_HSM_CipherTextINS1_8CL_HSMqkEEES5_S5_EEEC2IRS6_vPS6_EEOT_
FN:334,337,_ZNSt17reference_wrapperISt6vectorISt5tupleIJN6BICYCL6_Utils17CL_HSM_CipherTextINS2_8CL_HSMqkEEE11curve_pointEESaIS8_EEEC2IRSA_vPSA_EEOT_
FN:334,337,_ZNSt17reference_wrapperISt6vectorISt5tupleIJN6BICYCL6_Utils17CL_HSM_CipherTextINS2_8CL_HSMqkEEES6_S6_EESaIS7_EEEC2IRS9_vPS9_EEOT_
FN:345,346,_ZNKSt17reference_wrapperIKN6BICYCL3MpzEEcvRS2_Ev
FN:345,346,_ZNKSt17reference_wrapperIN6BICYCL3QFIEEcvRS1_Ev
FN:350,351,_ZNKSt17reference_wrapperIKN6BICYCL3MpzEE3getEv
FN:350,351,_ZNKSt17reference_wrapperIN6BICYCL3QFIEE3getEv
FN:350,351,_ZNKSt17reference_wrapperISt5tupleIJN6BICYCL6_Utils17CL_HSM_CipherTextINS1_8CL_HSMqkEEE11curve_pointEEE3getEv
FN:350,351,_ZNKSt17reference_wrapperISt5tupleIJN6BICYCL6_Utils17CL_HSM_CipherTextINS1_8CL_HSMqkEEES5_S5_EEE3getEv
FN:350,351,_ZNKSt17reference_wrapperISt6vectorISt5tupleIJN6BICYCL6_Utils17CL_HSM_CipherTextINS2_8CL_HSMqkEEE11curve_pointEESaIS8_EEE3getEv
FN:350,351,_ZNKSt17reference_wrapperISt6vectorISt5tupleIJN6BICYCL6_Utils17CL_HSM_CipherTextINS2_8CL_HSMqkEEES6_S6_EESaIS7_EEE3getEv
FN:425,426,_ZSt3refIN6BICYCL3QFIEESt17reference_wrapperIT_ERS3_
FN:425,426,_ZSt3refISt5tupleIJN6BICYCL6_Utils17CL_HSM_CipherTextINS1_8CL_HSMqkEEE11curve_pointEEESt17reference_wrapperIT_ERS9_
FN:425,426,_ZSt3refISt5tupleIJN6BICYCL6_Utils17CL_HSM_CipherTextINS1_8CL_HSMqkEEES5_S5_EEESt17reference_wrapperIT_ERS8_
FN:425,426,_ZSt3refISt6vectorISt5tupleIJN6BICYCL6_Utils17CL_HSM_CipherTextINS2_8CL_HSMqkEEE11curve_pointEESaIS8_EEESt17reference_wrapperIT_ERSC_
FN:425,426,_ZSt3refISt6vectorISt5tupleIJN6BICYCL6_Utils17CL_HSM_CipherTextINS2_8CL_HSMqkEEES6_S6_EESaIS7_EEESt17reference_wrapperIT_ERSB_
FN:432,433,_ZSt4crefIN6BICYCL3MpzEESt17reference_wrapperIKT_ERS4_
FNDA:16804,_ZNSt17reference_wrapperIKN6BICYCL3MpzEE6_S_funERS2_
FNDA:21028,_ZNSt17reference_wrapperIN6BICYCL3QFIEE6_S_funERS1_
FNDA:2012,_ZNSt17reference_wrapperISt5tupleIJN6BICYCL6_Utils17CL_HSM_CipherTextINS1_8CL_HSMqkEEE11curve_pointEEE6_S_funERS7_
FNDA:2112,_ZNSt17reference_wrapperISt5tupleIJN6BICYCL6_Utils17CL_HSM_CipherTextINS1_8CL_HSMqkEEES5_S5_EEE6_S_funERS6_
FNDA:112,_ZNSt17reference_wrapperISt6vectorISt5tupleIJN6BICYCL6_Utils17CL_HSM_CipherTextINS2_8CL_HSMqkEEE11curve_pointEESaIS8_EEE6_S_funERSA_
FNDA:12,_ZNSt17reference_wrapperISt6vectorISt5tupleIJN6BICYCL6_Utils17CL_HSM_CipherTextINS2_8CL_HSMqkEEES6_S6_EESaIS7_EEE6_S_funERS9_
FNDA:16804,_ZNSt17reference_wrapperIKN6BICYCL3MpzEEC2IRS2_vPS2_EEOT_
FNDA:21028,_ZNSt17reference_wrapperIN6BICYCL3QFIEEC2IRS1_vPS1_EEOT_
FNDA:2012,_ZNSt17reference_wrapperISt5tupleIJN6BICYCL6_Utils17CL_HSM_CipherTextINS1_8CL_HSMqkEEE11curve_pointEEEC2IRS7_vPS7_EEOT_
FNDA:2112,_ZNSt17reference_wrapperISt5tupleIJN6BICYCL6_Utils17CL_HSM_CipherTextINS1_8CL_HSMqkEEES5_S5_EEEC2IRS6_vPS6_EEOT_
FNDA:112,_ZNSt17reference_wrapperISt6vectorISt5tupleIJN6BICYCL6_Utils17CL_HSM_CipherTextINS2_8CL_HSMqkEEE11curve_pointEESaIS8_EEEC2IRSA_vPSA_EEOT_
FNDA:12,_ZNSt17reference_wrapperISt6vectorISt5tupleIJN6BICYCL6_Utils17CL_HSM_CipherTextINS2_8CL_HSMqkEEES6_S6_EESaIS7_EEEC2IRS9_vPS9_EEOT_
FNDA:16804,_ZNKSt17reference_wrapperIKN6BICYCL3MpzEEcvRS2_Ev
FNDA:16804,_ZNKSt17reference_wrapperIN6BICYCL3QFIEEcvRS1_Ev
FNDA:16804,_ZNKSt17reference_wrapperIKN6BICYCL3MpzEE3getEv
FNDA:21028,_ZNKSt17reference_wrapperIN6BICYCL3QFIEE3getEv
FNDA:2012,_ZNKSt17reference_wrapperISt5tupleIJN6BICYCL6_Utils17CL_HSM_CipherTextINS1_8CL_HSMqkEEE11curve_pointEEE3getEv
FNDA:2112,_ZNKSt17reference_wrapperISt5tupleIJN6BICYCL6_Utils17CL_HSM_CipherTextINS1_8CL_HSMqkEEES5_S5_EEE3getEv
FNDA:112,_ZNKSt17reference_wrapperISt6vectorISt5tupleIJN6BICYCL6_Utils17CL_HSM_CipherTextINS2_8CL_HSMqkEEE11curve_pointEESaIS8_EEE3getEv
FNDA:12,_ZNKSt17reference_wrapperISt6vectorISt5tupleIJN6BICYCL6_Utils17CL_HSM_CipherTextINS2_8CL_HSMqkEEES6_S6_EESaIS7_EEE3getEv
FNDA:21028,_ZSt3refIN6BICYCL3QFIEESt17reference_wrapperIT_ERS3_
FNDA:2012,_ZSt3refISt5tupleIJN6BICYCL6_Utils17CL_HSM_CipherTextINS1_8CL_HSMqkEEE11curve_pointEEESt17reference_wrapperIT_ERS9_
FNDA:2112,_ZSt3refISt5tupleIJN6BICYCL6_Utils17CL_HSM_CipherTextINS1_8CL_HSMqkEEES5_S5_EEESt17reference_wrapperIT_ERS8_
FNDA:112,_ZSt3refISt6vectorISt5tupleIJN6BICYCL6_Utils17CL_HSM_CipherTextINS2_8CL_HSMqkEEE11curve_pointEESaIS8_EEESt17reference_wrapperIT_ERSC_
FNDA:12,_ZSt3refISt6vectorISt5tupleIJN6BICYCL6_Utils17CL_HSM_CipherTextINS2_8CL_HSMqkEEES6_S6_EESaIS7_EEESt17reference_wrapperIT_ERSB_
FNDA:16804,_ZSt4crefIN6BICYCL3MpzEESt17reference_wrapperIKT_ERS4_
FNF:26
FNH:26
DA:317,42080
DA:334,42080
DA:336,42080
DA:337,42080
DA:345,33608
DA:346,33608
DA:350,42080
DA:351,42080
DA:425,25276
DA:426,25276
DA:432,16804
DA:433,16804
LF:12
LH:12
end_of_record
TN:
SF:/usr/include/c++/14.2.1/bits/std_function.h
FN:134,143,_ZNSt14_Function_base13_Base_managerISt5_BindIFM21AccessControlContractFvPKN6BICYCL3QFIEmmRS4_EPS2_S6_mmSt17reference_wrapperIS4_EEEE14_M_get_pointerERKSt9_Any_data
FN:134,143,_ZNSt14_Function_base13_Base_managerISt5_BindIFM21AccessControlContractFvRSt6vectorISt5tupleIJN6BICYCL6_Utils17CL_HSM_CipherTextINS5_8CL_HSMqkEEE11curve_pointEESaISB_EEmmNS6_16CL_HSM_PublicKeyIS8_EERSB_EPS2_St17reference_wrapperISD_EmmSG_SL_ISB_EEEE14_M_get_pointerERKSt9_Any_data
FN:134,143,_ZNSt14_Function_base13_Base_managerISt5_BindIFM21AccessControlContractFvRSt6vectorISt5tupleIJN6BICYCL6_Utils17CL_HSM_CipherTextINS5_8CL_HSMqkEEES9_S9_EESaISA_EEmmNS6_16CL_HSM_PublicKeyIS8_EERSA_EPS2_St17reference_wrapperISC_EmmSF_SK_ISA_EEEE14_M_get_pointerERKSt9_Any_data
FN:134,143,_ZNSt14_Function_base13_Base_managerISt5_BindIFM4UserFvN6BICYCL8CL_HSMqkENS3_6_Utils16CL_HSM_PublicKeyIS4_EENS5_17CL_HSM_CipherTextIS4_EES9_RSt5tupleIJS9_S9_S9_EEEPS2_S4_S7_S9_S9_St17reference_wrapperISB_EEEE14_M_get_pointerERKSt9_Any_data
FN:134,143,_ZNSt14_Function_base13_Base_managerISt5_BindIFM4UserFvN6BICYCL8CL_HSMqkENS3_6_Utils17CL_HSM_CipherTextIS4_EERNS3_3QFIEEPS2_S4_S7_St17reference_wrapperIS8_EEEE14_M_get_pointerERKSt9_Any_data
FN:134,143,_ZNSt14_Function_base13_Base_managerISt5_BindIFM4UserFvRN6BICYCL8CL_HSMqkERKNS3_6_Utils16CL_HSM_PublicKeyIS4_EERSt6vectorISt5tupleIJNS6_17CL_HSM_CipherTextIS4_EE11curve_pointEESaISG_EEPSt5mutexEPS2_S4_S8_St17reference_wrapperISI_ESL_EEE14_M_get_pointerERKSt9_Any_data
FN:134,143,_ZNSt14_Function_base13_Base_managerISt5_BindIFM9ValidatorFvN6BICYCL8CL_HSMqkENS3_6_Utils16CL_HSM_PublicKeyIS4_EENS5_17CL_HSM_CipherTextIS4_EES9_RSt5tupleIJS9_S9_S9_EEEPS2_S4_S7_S9_S9_St17reference_wrapperISB_EEEE14_M_get_pointerERKSt9_Any_data
FN:134,143,_ZNSt14_Function_base13_Base_managerISt5_BindIFM9ValidatorFvN6BICYCL8CL_HSMqkENS3_6_Utils16CL_HSM_PublicKeyIS4_EERSt5tupleIJNS5_17CL_HSM_CipherTextIS4_EE11curve_pointEEPSt5mutexEPS2_S4_S7_St17reference_wrapperISC_ESF_EEE14_M_get_pointerERKSt9_Any_data
FN:134,143,_ZNSt14_Function_base13_Base_managerISt5_BindIFM9ValidatorFvN6BICYCL8CL_HSMqkENS3_6_Utils17CL_HSM_CipherTextIS4_EERNS3_3QFIEEPS2_S4_S7_St17reference_wrapperIS8_EEEE14_M_get_pointerERKSt9_Any_data
FN:158,162,_ZNSt14_Function_base13_Base_managerISt5_BindIFM21AccessControlContractFvPKN6BICYCL3QFIEmmRS4_EPS2_S6_mmSt17reference_wrapperIS4_EEEE9_M_createIRKSE_EEvRSt9_Any_dataOT_St17integral_constantIbLb0EE
FN:158,162,_ZNSt14_Function_base13_Base_managerISt5_BindIFM21AccessControlContractFvPKN6BICYCL3QFIEmmRS4_EPS2_S6_mmSt17reference_wrapperIS4_EEEE9_M_createISE_EEvRSt9_Any_dataOT_St17integral_constantIbLb0EE
FN:158,162,_ZNSt14_Function_base13_Base_managerISt5_BindIFM21AccessControlContractFvRSt6vectorISt5tupleIJN6BICYCL6_Utils17CL_HSM_CipherTextINS5_8CL_HSMqkEEE11curve_pointEESaISB_EEmmNS6_16CL_HSM_PublicKeyIS8_EERSB_EPS2_St17reference_wrapperISD_EmmSG_SL_ISB_EEEE9_M_createIRKSP_EEvRSt9_Any_dataOT_St17integral_constantIbLb0EE
FN:158,162,_ZNSt14_Function_base13_Base_managerISt5_BindIFM21AccessControlContractFvRSt6vectorISt5tupleIJN6BICYCL6_Utils17CL_HSM_CipherTextINS5_8CL_HSMqkEEE11curve_pointEESaISB_EEmmNS6_16CL_HSM_PublicKeyIS8_EERSB_EPS2_St17reference_wrapperISD_EmmSG_SL_ISB_EEEE9_M_createISP_EEvRSt9_Any_dataOT_St17integral_constantIbLb0EE
FN:158,162,_ZNSt14_Function_base13_Base_managerISt5_BindIFM21AccessControlContractFvRSt6vectorISt5tupleIJN6BICYCL6_Utils17CL_HSM_CipherTextINS5_8CL_HSMqkEEES9_S9_EESaISA_EEmmNS6_16CL_HSM_PublicKeyIS8_EERSA_EPS2_St17reference_wrapperISC_EmmSF_SK_ISA_EEEE9_M_createIRKSO_EEvRSt9_Any_dataOT_St17integral_constantIbLb0EE
FN:158,162,_ZNSt14_Function_base13_Base_managerISt5_BindIFM21AccessControlContractFvRSt6vectorISt5tupleIJN6BICYCL6_Utils17CL_HSM_CipherTextINS5_8CL_HSMqkEEES9_S9_EESaISA_EEmmNS6_16CL_HSM_PublicKeyIS8_EERSA_EPS2_St17reference_wrapperISC_EmmSF_SK_ISA_EEEE9_M_createISO_EEvRSt9_Any_dataOT_St17integral_constantIbLb0EE
FN:158,162,_ZNSt14_Function_base13_Base_managerISt5_BindIFM4UserFvN6BICYCL8CL_HSMqkENS3_6_Utils16CL_HSM_PublicKeyIS4_EENS5_17CL_HSM_CipherTextIS4_EES9_RSt5tupleIJS9_S9_S9_EEEPS2_S4_S7_S9_S9_St17reference_wrapperISB_EEEE9_M_createIRKSJ_EEvRSt9_Any_dataOT_St17integral_constantIbLb0EE
FN:158,162,_ZNSt14_Function_base13_Base_managerISt5_BindIFM4UserFvN6BICYCL8CL_HSMqkENS3_6_Utils16CL_HSM_PublicKeyIS4_EENS5_17CL_HSM_CipherTextIS4_EES9_RSt5tupleIJS9_S9_S9_EEEPS2_S4_S7_S9_S9_St17reference_wrapperISB_EEEE9_M_createISJ_EEvRSt9_Any_dataOT_St17integral_constantIbLb0EE
FN:158,162,_ZNSt14_Function_base13_Base_managerISt5_BindIFM4UserFvN6BICYCL8CL_HSMqkENS3_6_Utils17CL_HSM_CipherTextIS4_EERNS3_3QFIEEPS2_S4_S7_St17reference_wrapperIS8_EEEE9_M_createIRKSG_EEvRSt9_Any_dataOT_St17integral_constantIbLb0EE
FN:158,162,_ZNSt14_Function_base13_Base_managerISt5_BindIFM4UserFvN6BICYCL8CL_HSMqkENS3_6_Utils17CL_HSM_CipherTextIS4_EERNS3_3QFIEEPS2_S4_S7_St17reference_wrapperIS8_EEEE9_M_createISG_EEvRSt9_Any_dataOT_St17integral_constantIbLb0EE
FN:158,162,_ZNSt14_Function_base13_Base_managerISt5_BindIFM4UserFvRN6BICYCL8CL_HSMqkERKNS3_6_Utils16CL_HSM_PublicKeyIS4_EERSt6vectorISt5tupleIJNS6_17CL_HSM_CipherTextIS4_EE11curve_pointEESaISG_EEPSt5mutexEPS2_S4_S8_St17reference_wrapperISI_ESL_EEE9_M_createIRKSS_EEvRSt9_Any_dataOT_St17integral_constantIbLb0EE
FN:158,162,_ZNSt14_Function_base13_Base_managerISt5_BindIFM4UserFvRN6BICYCL8CL_HSMqkERKNS3_6_Utils16CL_HSM_PublicKeyIS4_EERSt6vectorISt5tupleIJNS6_17CL_HSM_CipherTextIS4_EE11curve_pointEESaISG_EEPSt5mutexEPS2_S4_S8_St17reference_wrapperISI_ESL_EEE9_M_createISS_EEvRSt9_Any_dataOT_St17integral_constantIbLb0EE
FN:158,162,_ZNSt14_Function_base13_Base_managerISt5_BindIFM9ValidatorFvN6BICYCL8CL_HSMqkENS3_6_Utils16CL_HSM_PublicKeyIS4_EENS5_17CL_HSM_CipherTextIS4_EES9_RSt5tupleIJS9_S9_S9_EEEPS2_S4_S7_S9_S9_St17reference_wrapperISB_EEEE9_M_createIRKSJ_EEvRSt9_Any_dataOT_St17integral_constantIbLb0EE
FN:158,162,_ZNSt14_Function_base13_Base_managerISt5_BindIFM9ValidatorFvN6BICYCL8CL_HSMqkENS3_6_Utils16CL_HSM_PublicKeyIS4_EENS5_17CL_HSM_CipherTextIS4_EES9_RSt5tupleIJS9_S9_S9_EEEPS2_S4_S7_S9_S9_St17reference_wrapperISB_EEEE9_M_createISJ_EEvRSt9_Any_dataOT_St17integral_constantIbLb0EE
FN:158,162,_ZNSt14_Function_base13_Base_managerISt5_BindIFM9ValidatorFvN6BICYCL8CL_HSMqkENS3_6_Utils16CL_HSM_PublicKeyIS4_EERSt5tupleIJNS5_17CL_HSM_CipherTextIS4_EE11curve_pointEEPSt5mutexEPS2_S4_S7_St17reference_wrapperISC_ESF_EEE9_M_createIRKSM_EEvRSt9_Any_dataOT_St17integral_constantIbLb0EE
FN:158,162,_ZNSt14_Function_base13_Base_managerISt5_BindIFM9ValidatorFvN6BICYCL8CL_HSMqkENS3_6_Utils16CL_HSM_PublicKeyIS4_EERSt5tupleIJNS5_17CL_HSM_CipherTextIS4_EE11curve_pointEEPSt5mutexEPS2_S4_S7_St17reference_wrapperISC_ESF_EEE9_M_createISM_EEvRSt9_Any_dataOT_St17integral_constantIbLb0EE
FN:158,162,_ZNSt14_Function_base13_Base_managerISt5_BindIFM9ValidatorFvN6BICYCL8CL_HSMqkENS3_6_Utils17CL_HSM_CipherTextIS4_EERNS3_3QFIEEPS2_S4_S7_St17reference_wrapperIS8_EEEE9_M_createIRKSG_EEvRSt9_Any_dataOT_St17integral_constantIbLb0EE
FN:158,162,_ZNSt14_Function_base13_Base_managerISt5_BindIFM9ValidatorFvN6BICYCL8CL_HSMqkENS3_6_Utils17CL_HSM_CipherTextIS4_EERNS3_3QFIEEPS2_S4_S7_St17reference_wrapperIS8_EEEE9_M_createISG_EEvRSt9_Any_dataOT_St17integral_constantIbLb0EE
FN:173,176,_ZNSt14_Function_base13_Base_managerISt5_BindIFM21AccessControlContractFvPKN6BICYCL3QFIEmmRS4_EPS2_S6_mmSt17reference_wrapperIS4_EEEE10_M_destroyERSt9_Any_dataSt17integral_constantIbLb0EE
FN:173,176,_ZNSt14_Function_base13_Base_managerISt5_BindIFM21AccessControlContractFvRSt6vectorISt5tupleIJN6BICYCL6_Utils17CL_HSM_CipherTextINS5_8CL_HSMqkEEE11curve_pointEESaISB_EEmmNS6_16CL_HSM_PublicKeyIS8_EERSB_EPS2_St17reference_wrapperISD_EmmSG_SL_ISB_EEEE10_M_destroyERSt9_Any_dataSt17integral_constantIbLb0EE
FN:173,176,_ZNSt14_Function_base13_Base_managerISt5_BindIFM21AccessControlContractFvRSt6vectorISt5tupleIJN6BICYCL6_Utils17CL_HSM_CipherTextINS5_8CL_HSMqkEEES9_S9_EESaISA_EEmmNS6_16CL_HSM_PublicKeyIS8_EERSA_EPS2_St17reference_wrapperISC_EmmSF_SK_ISA_EEEE10_M_destroyERSt9_Any_dataSt17integral_constantIbLb0EE
FN:173,176,_ZNSt14_Function_base13_Base_managerISt5_BindIFM4UserFvN6BICYCL8CL_HSMqkENS3_6_Utils16CL_HSM_PublicKeyIS4_EENS5_17CL_HSM_CipherTextIS4_EES9_RSt5tupleIJS9_S9_S9_EEEPS2_S4_S7_S9_S9_St17reference_wrapperISB_EEEE10_M_destroyERSt9_Any_dataSt17integral_constantIbLb0EE
FN:173,176,_ZNSt14_Function_base13_Base_managerISt5_BindIFM4UserFvN6BICYCL8CL_HSMqkENS3_6_Utils17CL_HSM_CipherTextIS4_EERNS3_3QFIEEPS2_S4_S7_St17reference_wrapperIS8_EEEE10_M_destroyERSt9_Any_dataSt17integral_constantIbLb0EE
FN:173,176,_ZNSt14_Function_base13_Base_managerISt5_BindIFM4UserFvRN6BICYCL8CL_HSMqkERKNS3_6_Utils16CL_HSM_PublicKeyIS4_EERSt6vectorISt5tupleIJNS6_17CL_HSM_CipherTextIS4_EE11curve_pointEESaISG_EEPSt5mutexEPS2_S4_S8_St17reference_wrapperISI_ESL_EEE10_M_destroyERSt9_Any_dataSt17integral_constantIbLb0EE
FN:173,176,_ZNSt14_Function_base13_Base_managerISt5_BindIFM9ValidatorFvN6BICYCL8CL_HSMqkENS3_6_Utils16CL_HSM_PublicKeyIS4_EENS5_17CL_HSM_CipherTextIS4_EES9_RSt5tupleIJS9_S9_S9_EEEPS2_S4_S7_S9_S9_St17reference_wrapperISB_EEEE10_M_destroyERSt9_Any_dataSt17integral_constantIbLb0EE
FN:173,176,_ZNSt14_Function_base13_Base_managerISt5_BindIFM9ValidatorFvN6BICYCL8CL_HSMqkENS3_6_Utils16CL_HSM_PublicKeyIS4_EERSt5tupleIJNS5_17CL_HSM_CipherTextIS4_EE11curve_pointEEPSt5mutexEPS2_S4_S7_St17reference_wrapperISC_ESF_EEE10_M_destroyERSt9_Any_dataSt17integral_constantIbLb0EE
FN:173,176,_ZNSt14_Function_base13_Base_managerISt5_BindIFM9ValidatorFvN6BICYCL8CL_HSMqkENS3_6_Utils17CL_HSM_CipherTextIS4_EERNS3_3QFIEEPS2_S4_S7_St17reference_wrapperIS8_EEEE10_M_destroyERSt9_Any_dataSt17integral_constantIbLb0EE
FN:180,207,_ZNSt14_Function_base13_Base_managerISt5_BindIFM21AccessControlContractFvPKN6BICYCL3QFIEmmRS4_EPS2_S6_mmSt17reference_wrapperIS4_EEEE10_M_managerERSt9_Any_dataRKSG_St18_Manager_operation
FN:180,207,_ZNSt14_Function_base13_Base_managerISt5_BindIFM21AccessControlContractFvRSt6vectorISt5tupleIJN6BICYCL6_Utils17CL_HSM_CipherTextINS5_8CL_HSMqkEEE11curve_pointEESaISB_EEmmNS6_16CL_HSM_PublicKeyIS8_EERSB_EPS2_St17reference_wrapperISD_EmmSG_SL_ISB_EEEE10_M_managerERSt9_Any_dataRKSR_St18_Manager_operation
FN:180,207,_ZNSt14_Function_base13_Base_managerISt5_BindIFM21AccessControlContractFvRSt6vectorISt5tupleIJN6BICYCL6_Utils17CL_HSM_CipherTextINS5_8CL_HSMqkEEES9_S9_EESaISA_EEmmNS6_16CL_HSM_PublicKeyIS8_EERSA_EPS2_St17reference_wrapperISC_EmmSF_SK_ISA_EEEE10_M_managerERSt9_Any_dataRKSQ_St18_Manager_operation
FN:180,207,_ZNSt14_Function_base13_Base_managerISt5_BindIFM4UserFvN6BICYCL8CL_HSMqkENS3_6_Utils16CL_HSM_PublicKeyIS4_EENS5_17CL_HSM_CipherTextIS4_EES9_RSt5tupleIJS9_S9_S9_EEEPS2_S4_S7_S9_S9_St17reference_wrapperISB_EEEE10_M_managerERSt9_Any_dataRKSL_St18_Manager_operation
FN:180,207,_ZNSt14_Function_base13_Base_managerISt5_BindIFM4UserFvN6BICYCL8CL_HSMqkENS3_6_Utils17CL_HSM_CipherTextIS4_EERNS3_3QFIEEPS2_S4_S7_St17reference_wrapperIS8_EEEE10_M_managerERSt9_Any_dataRKSI_St18_Manager_operation
FN:180,207,_ZNSt14_Function_base13_Base_managerISt5_BindIFM4UserFvRN6BICYCL8CL_HSMqkERKNS3_6_Utils16CL_HSM_PublicKeyIS4_EERSt6vectorISt5tupleIJNS6_17CL_HSM_CipherTextIS4_EE11curve_pointEESaISG_EEPSt5mutexEPS2_S4_S8_St17reference_wrapperISI_ESL_EEE10_M_managerERSt9_Any_dataRKSU_St18_Manager_operation
FN:180,207,_ZNSt14_Function_base13_Base_managerISt5_BindIFM9ValidatorFvN6BICYCL8CL_HSMqkENS3_6_Utils16CL_HSM_PublicKeyIS4_EENS5_17CL_HSM_CipherTextIS4_EES9_RSt5tupleIJS9_S9_S9_EEEPS2_S4_S7_S9_S9_St17reference_wrapperISB_EEEE10_M_managerERSt9_Any_dataRKSL_St18_Manager_operation
FN:180,207,_ZNSt14_Function_base13_Base_managerISt5_BindIFM9ValidatorFvN6BICYCL8CL_HSMqkENS3_6_Utils16CL_HSM_PublicKeyIS4_EERSt5tupleIJNS5_17CL_HSM_CipherTextIS4_EE11curve_pointEEPSt5mutexEPS2_S4_S7_St17reference_wrapperISC_ESF_EEE10_M_managerERSt9_Any_dataRKSO_St18_Manager_operation
FN:180,207,_ZNSt14_Function_base13_Base_managerISt5_BindIFM9ValidatorFvN6BICYCL8CL_HSMqkENS3_6_Utils17CL_HSM_CipherTextIS4_EERNS3_3QFIEEPS2_S4_S7_St17reference_wrapperIS8_EEEE10_M_managerERSt9_Any_dataRKSI_St18_Manager_operation
FN:211,216,_ZNSt14_Function_base13_Base_managerISt5_BindIFM21AccessControlContractFvPKN6BICYCL3QFIEmmRS4_EPS2_S6_mmSt17reference_wrapperIS4_EEEE15_M_init_functorIRKSE_EEvRSt9_Any_dataOT_
FN:211,216,_ZNSt14_Function_base13_Base_managerISt5_BindIFM21AccessControlContractFvPKN6BICYCL3QFIEmmRS4_EPS2_S6_mmSt17reference_wrapperIS4_EEEE15_M_init_functorISE_EEvRSt9_Any_dataOT_
FN:211,216,_ZNSt14_Function_base13_Base_managerISt5_BindIFM21AccessControlContractFvRSt6vectorISt5tupleIJN6BICYCL6_Utils17CL_HSM_CipherTextINS5_8CL_HSMqkEEE11curve_pointEESaISB_EEmmNS6_16CL_HSM_PublicKeyIS8_EERSB_EPS2_St17reference_wrapperISD_EmmSG_SL_ISB_EEEE15_M_init_functorIRKSP_EEvRSt9_Any_dataOT_
FN:211,216,_ZNSt14_Function_base13_Base_managerISt5_BindIFM21AccessControlContractFvRSt6vectorISt5tupleIJN6BICYCL6_Utils17CL_HSM_CipherTextINS5_8CL_HSMqkEEE11curve_pointEESaISB_EEmmNS6_16CL_HSM_PublicKeyIS8_EERSB_EPS2_St17reference_wrapperISD_EmmSG_SL_ISB_EEEE15_M_init_functorISP_EEvRSt9_Any_dataOT_
FN:211,216,_ZNSt14_Function_base13_Base_managerISt5_BindIFM21AccessControlContractFvRSt6vectorISt5tupleIJN6BICYCL6_Utils17CL_HSM_CipherTextINS5_8CL_HSMqkEEES9_S9_EESaISA_EEmmNS6_16CL_HSM_PublicKeyIS8_EERSA_EPS2_St17reference_wrapperISC_EmmSF_SK_ISA_EEEE15_M_init_functorIRKSO_EEvRSt9_Any_dataOT_
FN:211,216,_ZNSt14_Function_base13_Base_managerISt5_BindIFM21AccessControlContractFvRSt6vectorISt5tupleIJN6BICYCL6_Utils17CL_HSM_CipherTextINS5_8CL_HSMqkEEES9_S9_EESaISA_EEmmNS6_16CL_HSM_PublicKeyIS8_EERSA_EPS2_St17reference_wrapperISC_EmmSF_SK_ISA_EEEE15_M_init_functorISO_EEvRSt9_Any_dataOT_
FN:211,216,_ZNSt14_Function_base13_Base_managerISt5_BindIFM4UserFvN6BICYCL8CL_HSMqkENS3_6_Utils16CL_HSM_PublicKeyIS4_EENS5_17CL_HSM_CipherTextIS4_EES9_RSt5tupleIJS9_S9_S9_EEEPS2_S4_S7_S9_S9_St17reference_wrapperISB_EEEE15_M_init_functorIRKSJ_EEvRSt9_Any_dataOT_
FN:211,216,_ZNSt14_Function_base13_Base_managerISt5_BindIFM4UserFvN6BICYCL8CL_HSMqkENS3_6_Utils16CL_HSM_PublicKeyIS4_EENS5_17CL_HSM_CipherTextIS4_EES9_RSt5tupleIJS9_S9_S9_EEEPS2_S4_S7_S9_S9_St17reference_wrapperISB_EEEE15_M_init_functorISJ_EEvRSt9_Any_dataOT_
FN:211,216,_ZNSt14_Function_base13_Base_managerISt5_BindIFM4UserFvN6BICYCL8CL_HSMqkENS3_6_Utils17CL_HSM_CipherTextIS4_EERNS3_3QFIEEPS2_S4_S7_St17reference_wrapperIS8_EEEE15_M_init_functorIRKSG_EEvRSt9_Any_dataOT_
FN:211,216,_ZNSt14_Function_base13_Base_managerISt5_BindIFM4UserFvN6BICYCL8CL_HSMqkENS3_6_Utils17CL_HSM_CipherTextIS4_EERNS3_3QFIEEPS2_S4_S7_St17reference_wrapperIS8_EEEE15_M_init_functorISG_EEvRSt9_Any_dataOT_
FN:211,216,_ZNSt14_Function_base13_Base_managerISt5_BindIFM4UserFvRN6BICYCL8CL_HSMqkERKNS3_6_Utils16CL_HSM_PublicKeyIS4_EERSt6vectorISt5tupleIJNS6_17CL_HSM_CipherTextIS4_EE11curve_pointEESaISG_EEPSt5mutexEPS2_S4_S8_St17reference_wrapperISI_ESL_EEE15_M_init_functorIRKSS_EEvRSt9_Any_dataOT_
FN:211,216,_ZNSt14_Function_base13_Base_managerISt5_BindIFM4UserFvRN6BICYCL8CL_HSMqkERKNS3_6_Utils16CL_HSM_PublicKeyIS4_EERSt6vectorISt5tupleIJNS6_17CL_HSM_CipherTextIS4_EE11curve_pointEESaISG_EEPSt5mutexEPS2_S4_S8_St17reference_wrapperISI_ESL_EEE15_M_init_functorISS_EEvRSt9_Any_dataOT_
FN:211,216,_ZNSt14_Function_base13_Base_managerISt5_BindIFM9ValidatorFvN6BICYCL8CL_HSMqkENS3_6_Utils16CL_HSM_PublicKeyIS4_EENS5_17CL_HSM_CipherTextIS4_EES9_RSt5tupleIJS9_S9_S9_EEEPS2_S4_S7_S9_S9_St17reference_wrapperISB_EEEE15_M_init_functorIRKSJ_EEvRSt9_Any_dataOT_
FN:211,216,_ZNSt14_Function_base13_Base_managerISt5_BindIFM9ValidatorFvN6BICYCL8CL_HSMqkENS3_6_Utils16CL_HSM_PublicKeyIS4_EENS5_17CL_HSM_CipherTextIS4_EES9_RSt5tupleIJS9_S9_S9_EEEPS2_S4_S7_S9_S9_St17reference_wrapperISB_EEEE15_M_init_functorISJ_EEvRSt9_Any_dataOT_
FN:211,216,_ZNSt14_Function_base13_Base_managerISt5_BindIFM9ValidatorFvN6BICYCL8CL_HSMqkENS3_6_Utils16CL_HSM_PublicKeyIS4_EERSt5tupleIJNS5_17CL_HSM_CipherTextIS4_EE11curve_pointEEPSt5mutexEPS2_S4_S7_St17reference_wrapperISC_ESF_EEE15_M_init_functorIRKSM_EEvRSt9_Any_dataOT_
FN:211,216,_ZNSt14_Function_base13_Base_managerISt5_BindIFM9ValidatorFvN6BICYCL8CL_HSMqkENS3_6_Utils16CL_HSM_PublicKeyIS4_EERSt5tupleIJNS5_17CL_HSM_CipherTextIS4_EE11curve_pointEEPSt5mutexEPS2_S4_S7_St17reference_wrapperISC_ESF_EEE15_M_init_functorISM_EEvRSt9_Any_dataOT_
FN:211,216,_ZNSt14_Function_base13_Base_managerISt5_BindIFM9ValidatorFvN6BICYCL8CL_HSMqkENS3_6_Utils17CL_HSM_CipherTextIS4_EERNS3_3QFIEEPS2_S4_S7_St17reference_wrapperIS8_EEEE15_M_init_functorIRKSG_EEvRSt9_Any_dataOT_
FN:211,216,_ZNSt14_Function_base13_Base_managerISt5_BindIFM9ValidatorFvN6BICYCL8CL_HSMqkENS3_6_Utils17CL_HSM_CipherTextIS4_EERNS3_3QFIEEPS2_S4_S7_St17reference_wrapperIS8_EEEE15_M_init_functorISG_EEvRSt9_Any_dataOT_
FN:235,236,_ZNSt14_Function_base13_Base_managerISt5_BindIFM21AccessControlContractFvPKN6BICYCL3QFIEmmRS4_EPS2_S6_mmSt17reference_wrapperIS4_EEEE21_M_not_empty_functionISE_EEbRKT_
FN:235,236,_ZNSt14_Function_base13_Base_managerISt5_BindIFM21AccessControlContractFvRSt6vectorISt5tupleIJN6BICYCL6_Utils17CL_HSM_CipherTextINS5_8CL_HSMqkEEE11curve_pointEESaISB_EEmmNS6_16CL_HSM_PublicKeyIS8_EERSB_EPS2_St17reference_wrapperISD_EmmSG_SL_ISB_EEEE21_M_not_empty_functionISP_EEbRKT_
FN:235,236,_ZNSt14_Function_base13_Base_managerISt5_BindIFM21AccessControlContractFvRSt6vectorISt5tupleIJN6BICYCL6_Utils17CL_HSM_CipherTextINS5_8CL_HSMqkEEES9_S9_EESaISA_EEmmNS6_16CL_HSM_PublicKeyIS8_EERSA_EPS2_St17reference_wrapperISC_EmmSF_SK_ISA_EEEE21_M_not_empty_functionISO_EEbRKT_
FN:235,236,_ZNSt14_Function_base13_Base_managerISt5_BindIFM4UserFvN6BICYCL8CL_HSMqkENS3_6_Utils16CL_HSM_PublicKeyIS4_EENS5_17CL_HSM_CipherTextIS4_EES9_RSt5tupleIJS9_S9_S9_EEEPS2_S4_S7_S9_S9_St17reference_wrapperISB_EEEE21_M_not_empty_functionISJ_EEbRKT_
FN:235,236,_ZNSt14_Function_base13_Base_managerISt5_BindIFM4UserFvN6BICYCL8CL_HSMqkENS3_6_Utils17CL_HSM_CipherTextIS4_EERNS3_3QFIEEPS2_S4_S7_St17reference_wrapperIS8_EEEE21_M_not_empty_functionISG_EEbRKT_
FN:235,236,_ZNSt14_Function_base13_Base_managerISt5_BindIFM4UserFvRN6BICYCL8CL_HSMqkERKNS3_6_Utils16CL_HSM_PublicKeyIS4_EERSt6vectorISt5tupleIJNS6_17CL_HSM_CipherTextIS4_EE11curve_pointEESaISG_EEPSt5mutexEPS2_S4_S8_St17reference_wrapperISI_ESL_EEE21_M_not_empty_functionISS_EEbRKT_
FN:235,236,_ZNSt14_Function_base13_Base_managerISt5_BindIFM9ValidatorFvN6BICYCL8CL_HSMqkENS3_6_Utils16CL_HSM_PublicKeyIS4_EENS5_17CL_HSM_CipherTextIS4_EES9_RSt5tupleIJS9_S9_S9_EEEPS2_S4_S7_S9_S9_St17reference_wrapperISB_EEEE21_M_not_empty_functionISJ_EEbRKT_
FN:235,236,_ZNSt14_Function_base13_Base_managerISt5_BindIFM9ValidatorFvN6BICYCL8CL_HSMqkENS3_6_Utils16CL_HSM_PublicKeyIS4_EERSt5tupleIJNS5_17CL_HSM_CipherTextIS4_EE11curve_pointEEPSt5mutexEPS2_S4_S7_St17reference_wrapperISC_ESF_EEE21_M_not_empty_functionISM_EEbRKT_
FN:235,236,_ZNSt14_Function_base13_Base_managerISt5_BindIFM9ValidatorFvN6BICYCL8CL_HSMqkENS3_6_Utils17CL_HSM_CipherTextIS4_EERNS3_3QFIEEPS2_S4_S7_St17reference_wrapperIS8_EEEE21_M_not_empty_functionISG_EEbRKT_
FN:239,239,_ZNSt14_Function_baseC2Ev
FN:241,245,_ZNSt14_Function_baseD2Ev
FN:247,247,_ZNKSt14_Function_base8_M_emptyEv
FN:267,285,_ZNSt17_Function_handlerIFvvESt5_BindIFM21AccessControlContractFvPKN6BICYCL3QFIEmmRS4_EPS2_S6_mmSt17reference_wrapperIS4_EEEE10_M_managerERSt9_Any_dataRKSG_St18_Manager_operation
FN:267,285,_ZNSt17_Function_handlerIFvvESt5_BindIFM21AccessControlContractFvRSt6vectorISt5tupleIJN6BICYCL6_Utils17CL_HSM_CipherTextINS5_8CL_HSMqkEEE11curve_pointEESaISB_EEmmNS6_16CL_HSM_PublicKeyIS8_EERSB_EPS2_St17reference_wrapperISD_EmmSG_SL_ISB_EEEE10_M_managerERSt9_Any_dataRKSR_St18_Manager_operation
FN:267,285,_ZNSt17_Function_handlerIFvvESt5_BindIFM21AccessControlContractFvRSt6vectorISt5tupleIJN6BICYCL6_Utils17CL_HSM_CipherTextINS5_8CL_HSMqkEEES9_S9_EESaISA_EEmmNS6_16CL_HSM_PublicKeyIS8_EERSA_EPS2_St17reference_wrapperISC_EmmSF_SK_ISA_EEEE10_M_managerERSt9_Any_dataRKSQ_St18_Manager_operation
FN:267,285,_ZNSt17_Function_handlerIFvvESt5_BindIFM4UserFvN6BICYCL8CL_HSMqkENS3_6_Utils16CL_HSM_PublicKeyIS4_EENS5_17CL_HSM_CipherTextIS4_EES9_RSt5tupleIJS9_S9_S9_EEEPS2_S4_S7_S9_S9_St17reference_wrapperISB_EEEE10_M_managerERSt9_Any_dataRKSL_St18_Manager_operation
FN:267,285,_ZNSt17_Function_handlerIFvvESt5_BindIFM4UserFvN6BICYCL8CL_HSMqkENS3_6_Utils17CL_HSM_CipherTextIS4_EERNS3_3QFIEEPS2_S4_S7_St17reference_wrapperIS8_EEEE10_M_managerERSt9_Any_dataRKSI_St18_Manager_operation
FN:267,285,_ZNSt17_Function_handlerIFvvESt5_BindIFM4UserFvRN6BICYCL8CL_HSMqkERKNS3_6_Utils16CL_HSM_PublicKeyIS4_EERSt6vectorISt5tupleIJNS6_17CL_HSM_CipherTextIS4_EE11curve_pointEESaISG_EEPSt5mutexEPS2_S4_S8_St17reference_wrapperISI_ESL_EEE10_M_managerERSt9_Any_dataRKSU_St18_Manager_operation
FN:267,285,_ZNSt17_Function_handlerIFvvESt5_BindIFM9ValidatorFvN6BICYCL8CL_HSMqkENS3_6_Utils16CL_HSM_PublicKeyIS4_EENS5_17CL_HSM_CipherTextIS4_EES9_RSt5tupleIJS9_S9_S9_EEEPS2_S4_S7_S9_S9_St17reference_wrapperISB_EEEE10_M_managerERSt9_Any_dataRKSL_St18_Manager_operation
FN:267,285,_ZNSt17_Function_handlerIFvvESt5_BindIFM9ValidatorFvN6BICYCL8CL_HSMqkENS3_6_Utils16CL_HSM_PublicKeyIS4_EERSt5tupleIJNS5_17CL_HSM_CipherTextIS4_EE11curve_pointEEPSt5mutexEPS2_S4_S7_St17reference_wrapperISC_ESF_EEE10_M_managerERSt9_Any_dataRKSO_St18_Manager_operation
FN:267,285,_ZNSt17_Function_handlerIFvvESt5_BindIFM9ValidatorFvN6BICYCL8CL_HSMqkENS3_6_Utils17CL_HSM_CipherTextIS4_EERNS3_3QFIEEPS2_S4_S7_St17reference_wrapperIS8_EEEE10_M_managerERSt9_Any_dataRKSI_St18_Manager_operation
FN:288,292,_ZNSt17_Function_handlerIFvvESt5_BindIFM21AccessControlContractFvPKN6BICYCL3QFIEmmRS4_EPS2_S6_mmSt17reference_wrapperIS4_EEEE9_M_invokeERKSt9_Any_data
FN:288,292,_ZNSt17_Function_handlerIFvvESt5_BindIFM21AccessControlContractFvRSt6vectorISt5tupleIJN6BICYCL6_Utils17CL_HSM_CipherTextINS5_8CL_HSMqkEEE11curve_pointEESaISB_EEmmNS6_16CL_HSM_PublicKeyIS8_EERSB_EPS2_St17reference_wrapperISD_EmmSG_SL_ISB_EEEE9_M_invokeERKSt9_Any_data
FN:288,292,_ZNSt17_Function_handlerIFvvESt5_BindIFM21AccessControlContractFvRSt6vectorISt5tupleIJN6BICYCL6_Utils17CL_HSM_CipherTextINS5_8CL_HSMqkEEES9_S9_EESaISA_EEmmNS6_16CL_HSM_PublicKeyIS8_EERSA_EPS2_St17reference_wrapperISC_EmmSF_SK_ISA_EEEE9_M_invokeERKSt9_Any_data
FN:288,292,_ZNSt17_Function_handlerIFvvESt5_BindIFM4UserFvN6BICYCL8CL_HSMqkENS3_6_Utils16CL_HSM_PublicKeyIS4_EENS5_17CL_HSM_CipherTextIS4_EES9_RSt5tupleIJS9_S9_S9_EEEPS2_S4_S7_S9_S9_St17reference_wrapperISB_EEEE9_M_invokeERKSt9_Any_data
FN:288,292,_ZNSt17_Function_handlerIFvvESt5_BindIFM4UserFvN6BICYCL8CL_HSMqkENS3_6_Utils17CL_HSM_CipherTextIS4_EERNS3_3QFIEEPS2_S4_S7_St17reference_wrapperIS8_EEEE9_M_invokeERKSt9_Any_data
FN:288,292,_ZNSt17_Function_handlerIFvvESt5_BindIFM4UserFvRN6BICYCL8CL_HSMqkERKNS3_6_Utils16CL_HSM_PublicKeyIS4_EERSt6vectorISt5tupleIJNS6_17CL_HSM_CipherTextIS4_EE11curve_pointEESaISG_EEPSt5mutexEPS2_S4_S8_St17reference_wrapperISI_ESL_EEE9_M_invokeERKSt9_Any_data
FN:288,292,_ZNSt17_Function_handlerIFvvESt5_BindIFM9ValidatorFvN6BICYCL8CL_HSMqkENS3_6_Utils16CL_HSM_PublicKeyIS4_EENS5_17CL_HSM_CipherTextIS4_EES9_RSt5tupleIJS9_S9_S9_EEEPS2_S4_S7_S9_S9_St17reference_wrapperISB_EEEE9_M_invokeERKSt9_Any_data
FN:288,292,_ZNSt17_Function_handlerIFvvESt5_BindIFM9ValidatorFvN6BICYCL8CL_HSMqkENS3_6_Utils16CL_HSM_PublicKeyIS4_EERSt5tupleIJNS5_17CL_HSM_CipherTextIS4_EE11curve_pointEEPSt5mutexEPS2_S4_S7_St17reference_wrapperISC_ESF_EEE9_M_invokeERKSt9_Any_data
FN:288,292,_ZNSt17_Function_handlerIFvvESt5_BindIFM9ValidatorFvN6BICYCL8CL_HSMqkENS3_6_Utils17CL_HSM_CipherTextIS4_EERNS3_3QFIEEPS2_S4_S7_St17reference_wrapperIS8_EEEE9_M_invokeERKSt9_Any_data
FN:368,369,_ZNSt8functionIFvvEEC2Ev
FN:404,414,_ZNSt8functionIFvvEEC2EOS1_
FN:435,454,_ZNSt8functionIFvvEEC2ISt5_BindIFM21AccessControlContractFvPKN6BICYCL3QFIEmmRS6_EPS4_S8_mmSt17reference_wrapperIS6_EEEvEEOT_
FN:435,454,_ZNSt8functionIFvvEEC2ISt5_BindIFM21AccessControlContractFvRSt6vectorISt5tupleIJN6BICYCL6_Utils17CL_HSM_CipherTextINS7_8CL_HSMqkEEE11curve_pointEESaISD_EEmmNS8_16CL_HSM_PublicKeyISA_EERSD_EPS4_St17reference_wrapperISF_EmmSI_SN_ISD_EEEvEEOT_
FN:435,454,_ZNSt8functionIFvvEEC2ISt5_BindIFM21AccessControlContractFvRSt6vectorISt5tupleIJN6BICYCL6_Utils17CL_HSM_CipherTextINS7_8CL_HSMqkEEESB_SB_EESaISC_EEmmNS8_16CL_HSM_PublicKeyISA_EERSC_EPS4_St17reference_wrapperISE_EmmSH_SM_ISC_EEEvEEOT_
FN:435,454,_ZNSt8functionIFvvEEC2ISt5_BindIFM4UserFvN6BICYCL8CL_HSMqkENS5_6_Utils16CL_HSM_PublicKeyIS6_EENS7_17CL_HSM_CipherTextIS6_EESB_RSt5tupleIJSB_SB_SB_EEEPS4_S6_S9_SB_SB_St17reference_wrapperISD_EEEvEEOT_
FN:435,454,_ZNSt8functionIFvvEEC2ISt5_BindIFM4UserFvN6BICYCL8CL_HSMqkENS5_6_Utils17CL_HSM_CipherTextIS6_EERNS5_3QFIEEPS4_S6_S9_St17reference_wrapperISA_EEEvEEOT_
FN:435,454,_ZNSt8functionIFvvEEC2ISt5_BindIFM4UserFvRN6BICYCL8CL_HSMqkERKNS5_6_Utils16CL_HSM_PublicKeyIS6_EERSt6vectorISt5tupleIJNS8_17CL_HSM_CipherTextIS6_EE11curve_pointEESaISI_EEPSt5mutexEPS4_S6_SA_St17reference_wrapperISK_ESN_EEvEEOT_
FN:435,454,_ZNSt8functionIFvvEEC2ISt5_BindIFM9ValidatorFvN6BICYCL8CL_HSMqkENS5_6_Utils16CL_HSM_PublicKeyIS6_EENS7_17CL_HSM_CipherTextIS6_EESB_RSt5tupleIJSB_SB_SB_EEEPS4_S6_S9_SB_SB_St17reference_wrapperISD_EEEvEEOT_
FN:435,454,_ZNSt8functionIFvvEEC2ISt5_BindIFM9ValidatorFvN6BICYCL8CL_HSMqkENS5_6_Utils16CL_HSM_PublicKeyIS6_EERSt5tupleIJNS7_17CL_HSM_CipherTextIS6_EE11curve_pointEEPSt5mutexEPS4_S6_S9_St17reference_wrapperISE_ESH_EEvEEOT_
FN:435,454,_ZNSt8functionIFvvEEC2ISt5_BindIFM9ValidatorFvN6BICYCL8CL_HSMqkENS5_6_Utils17CL_HSM_CipherTextIS6_EERNS5_3QFIEEPS4_S6_S9_St17reference_wrapperISA_EEEvEEOT_
FN:487,491,_ZNSt8functionIFvvEEaSEOS1_
FN:556,561,_ZNSt8functionIFvvEE4swapERS1_
FN:573,574,_ZNKSt8functionIFvvEEcvbEv
FN:587,592,_ZNKSt8functionIFvvEEclEv
FN:85,85,_ZNSt9_Any_data9_M_accessEv
FN:86,86,_ZNKSt9_Any_data9_M_accessEv
FN:90,91,_ZNSt9_Any_data9_M_accessIPKSt9type_infoEERT_v
FN:90,91,_ZNSt9_Any_data9_M_accessIPSt5_BindIFM21AccessControlContractFvPKN6BICYCL3QFIEmmRS4_EPS2_S6_mmSt17reference_wrapperIS4_EEEEERT_v
FN:90,91,_ZNSt9_Any_data9_M_accessIPSt5_BindIFM21AccessControlContractFvRSt6vectorISt5tupleIJN6BICYCL6_Utils17CL_HSM_CipherTextINS5_8CL_HSMqkEEE11curve_pointEESaISB_EEmmNS6_16CL_HSM_PublicKeyIS8_EERSB_EPS2_St17reference_wrapperISD_EmmSG_SL_ISB_EEEEERT_v
FN:90,91,_ZNSt9_Any_data9_M_accessIPSt5_BindIFM21AccessControlContractFvRSt6vectorISt5tupleIJN6BICYCL6_Utils17CL_HSM_CipherTextINS5_8CL_HSMqkEEES9_S9_EESaISA_EEmmNS6_16CL_HSM_PublicKeyIS8_EERSA_EPS2_St17reference_wrapperISC_EmmSF_SK_ISA_EEEEERT_v
FN:90,91,_ZNSt9_Any_data9_M_accessIPSt5_BindIFM4UserFvN6BICYCL8CL_HSMqkENS3_6_Utils16CL_HSM_PublicKeyIS4_EENS5_17CL_HSM_CipherTextIS4_EES9_RSt5tupleIJS9_S9_S9_EEEPS2_S4_S7_S9_S9_St17reference_wrapperISB_EEEEERT_v
FN:90,91,_ZNSt9_Any_data9_M_accessIPSt5_BindIFM4UserFvN6BICYCL8CL_HSMqkENS3_6_Utils17CL_HSM_CipherTextIS4_EERNS3_3QFIEEPS2_S4_S7_St17reference_wrapperIS8_EEEEERT_v
FN:90,91,_ZNSt9_Any_data9_M_accessIPSt5_BindIFM4UserFvRN6BICYCL8CL_HSMqkERKNS3_6_Utils16CL_HSM_PublicKeyIS4_EERSt6vectorISt5tupleIJNS6_17CL_HSM_CipherTextIS4_EE11curve_pointEESaISG_EEPSt5mutexEPS2_S4_S8_St17reference_wrapperISI_ESL_EEEERT_v
FN:90,91,_ZNSt9_Any_data9_M_accessIPSt5_BindIFM9ValidatorFvN6BICYCL8CL_HSMqkENS3_6_Utils16CL_HSM_PublicKeyIS4_EENS5_17CL_HSM_CipherTextIS4_EES9_RSt5tupleIJS9_S9_S9_EEEPS2_S4_S7_S9_S9_St17reference_wrapperISB_EEEEERT_v
FN:90,91,_ZNSt9_Any_data9_M_accessIPSt5_BindIFM9ValidatorFvN6BICYCL8CL_HSMqkENS3_6_Utils16CL_HSM_PublicKeyIS4_EERSt5tupleIJNS5_17CL_HSM_CipherTextIS4_EE11curve_pointEEPSt5mutexEPS2_S4_S7_St17reference_wrapperISC_ESF_EEEERT_v
FN:90,91,_ZNSt9_Any_data9_M_accessIPSt5_BindIFM9ValidatorFvN6BICYCL8CL_HSMqkENS3_6_Utils17CL_HSM_CipherTextIS4_EERNS3_3QFIEEPS2_S4_S7_St17reference_wrapperIS8_EEEEERT_v
FN:95,96,_ZNKSt9_Any_data9_M_accessIPSt5_BindIFM21AccessControlContractFvPKN6BICYCL3QFIEmmRS4_EPS2_S6_mmSt17reference_wrapperIS4_EEEEERKT_v
FN:95,96,_ZNKSt9_Any_data9_M_accessIPSt5_BindIFM21AccessControlContractFvRSt6vectorISt5tupleIJN6BICYCL6_Utils17CL_HSM_CipherTextINS5_8CL_HSMqkEEE11curve_pointEESaISB_EEmmNS6_16CL_HSM_PublicKeyIS8_EERSB_EPS2_St17reference_wrapperISD_EmmSG_SL_ISB_EEEEERKT_v
FN:95,96,_ZNKSt9_Any_data9_M_accessIPSt5_BindIFM21AccessControlContractFvRSt6vectorISt5tupleIJN6BICYCL6_Utils17CL_HSM_CipherTextINS5_8CL_HSMqkEEES9_S9_EESaISA_EEmmNS6_16CL_HSM_PublicKeyIS8_EERSA_EPS2_St17reference_wrapperISC_EmmSF_SK_ISA_EEEEERKT_v
FN:95,96,_ZNKSt9_Any_data9_M_accessIPSt5_BindIFM4UserFvN6BICYCL8CL_HSMqkENS3_6_Utils16CL_HSM_PublicKeyIS4_EENS5_17CL_HSM_CipherTextIS4_EES9_RSt5tupleIJS9_S9_S9_EEEPS2_S4_S7_S9_S9_St17reference_wrapperISB_EEEEERKT_v
FN:95,96,_ZNKSt9_Any_data9_M_accessIPSt5_BindIFM4UserFvN6BICYCL8CL_HSMqkENS3_6_Utils17CL_HSM_CipherTextIS4_EERNS3_3QFIEEPS2_S4_S7_St17reference_wrapperIS8_EEEEERKT_v
FN:95,96,_ZNKSt9_Any_data9_M_accessIPSt5_BindIFM4UserFvRN6BICYCL8CL_HSMqkERKNS3_6_Utils16CL_HSM_PublicKeyIS4_EERSt6vectorISt5tupleIJNS6_17CL_HSM_CipherTextIS4_EE11curve_pointEESaISG_EEPSt5mutexEPS2_S4_S8_St17reference_wrapperISI_ESL_EEEERKT_v
FN:95,96,_ZNKSt9_Any_data9_M_accessIPSt5_BindIFM9ValidatorFvN6BICYCL8CL_HSMqkENS3_6_Utils16CL_HSM_PublicKeyIS4_EENS5_17CL_HSM_CipherTextIS4_EES9_RSt5tupleIJS9_S9_S9_EEEPS2_S4_S7_S9_S9_St17reference_wrapperISB_EEEEERKT_v
FN:95,96,_ZNKSt9_Any_data9_M_accessIPSt5_BindIFM9ValidatorFvN6BICYCL8CL_HSMqkENS3_6_Utils16CL_HSM_PublicKeyIS4_EERSt5tupleIJNS5_17CL_HSM_CipherTextIS4_EE11curve_pointEEPSt5mutexEPS2_S4_S7_St17reference_wrapperISC_ESF_EEEERKT_v
FN:95,96,_ZNKSt9_Any_data9_M_accessIPSt5_BindIFM9ValidatorFvN6BICYCL8CL_HSMqkENS3_6_Utils17CL_HSM_CipherTextIS4_EERNS3_3QFIEEPS2_S4_S7_St17reference_wrapperIS8_EEEEERKT_v
FNDA:24,_ZNSt14_Function_base13_Base_managerISt5_BindIFM21AccessControlContractFvPKN6BICYCL3QFIEmmRS4_EPS2_S6_mmSt17reference_wrapperIS4_EEEE14_M_get_pointerERKSt9_Any_data
FNDA:12,_ZNSt14_Function_base13_Base_managerISt5_BindIFM21AccessControlContractFvRSt6vectorISt5tupleIJN6BICYCL6_Utils17CL_HSM_CipherTextINS5_8CL_HSMqkEEE11curve_pointEESaISB_EEmmNS6_16CL_HSM_PublicKeyIS8_EERSB_EPS2_St17reference_wrapperISD_EmmSG_SL_ISB_EEEE14_M_get_pointerERKSt9_Any_data
FNDA:12,_ZNSt14_Function_base13_Base_managerISt5_BindIFM21AccessControlContractFvRSt6vectorISt5tupleIJN6BICYCL6_Utils17CL_HSM_CipherTextINS5_8CL_HSMqkEEES9_S9_EESaISA_EEmmNS6_16CL_HSM_PublicKeyIS8_EERSA_EPS2_St17reference_wrapperISC_EmmSF_SK_ISA_EEEE14_M_get_pointerERKSt9_Any_data
FNDA:100,_ZNSt14_Function_base13_Base_managerISt5_BindIFM4UserFvN6BICYCL8CL_HSMqkENS3_6_Utils16CL_HSM_PublicKeyIS4_EENS5_17CL_HSM_CipherTextIS4_EES9_RSt5tupleIJS9_S9_S9_EEEPS2_S4_S7_S9_S9_St17reference_wrapperISB_EEEE14_M_get_pointerERKSt9_Any_data
FNDA:200,_ZNSt14_Function_base13_Base_managerISt5_BindIFM4UserFvN6BICYCL8CL_HSMqkENS3_6_Utils17CL_HSM_CipherTextIS4_EERNS3_3QFIEEPS2_S4_S7_St17reference_wrapperIS8_EEEE14_M_get_pointerERKSt9_Any_data
FNDA:100,_ZNSt14_Function_base13_Base_managerISt5_BindIFM4UserFvRN6BICYCL8CL_HSMqkERKNS3_6_Utils16CL_HSM_PublicKeyIS4_EERSt6vectorISt5tupleIJNS6_17CL_HSM_CipherTextIS4_EE11curve_pointEESaISG_EEPSt5mutexEPS2_S4_S8_St17reference_wrapperISI_ESL_EEE14_M_get_pointerERKSt9_Any_data
FNDA:2000,_ZNSt14_Function_base13_Base_managerISt5_BindIFM9ValidatorFvN6BICYCL8CL_HSMqkENS3_6_Utils16CL_HSM_PublicKeyIS4_EENS5_17CL_HSM_CipherTextIS4_EES9_RSt5tupleIJS9_S9_S9_EEEPS2_S4_S7_S9_S9_St17reference_wrapperISB_EEEE14_M_get_pointerERKSt9_Any_data
FNDA:2000,_ZNSt14_Function_base13_Base_managerISt5_BindIFM9ValidatorFvN6BICYCL8CL_HSMqkENS3_6_Utils16CL_HSM_PublicKeyIS4_EERSt5tupleIJNS5_17CL_HSM_CipherTextIS4_EE11curve_pointEEPSt5mutexEPS2_S4_S7_St17reference_wrapperISC_ESF_EEE14_M_get_pointerERKSt9_Any_data
FNDA:4000,_ZNSt14_Function_base13_Base_managerISt5_BindIFM9ValidatorFvN6BICYCL8CL_HSMqkENS3_6_Utils17CL_HSM_CipherTextIS4_EERNS3_3QFIEEPS2_S4_S7_St17reference_wrapperIS8_EEEE14_M_get_pointerERKSt9_Any_data
FNDA:0,_ZNSt14_Function_base13_Base_managerISt5_BindIFM21AccessControlContractFvPKN6BICYCL3QFIEmmRS4_EPS2_S6_mmSt17reference_wrapperIS4_EEEE9_M_createIRKSE_EEvRSt9_Any_dataOT_St17integral_constantIbLb0EE
FNDA:24,_ZNSt14_Function_base13_Base_managerISt5_BindIFM21AccessControlContractFvPKN6BICYCL3QFIEmmRS4_EPS2_S6_mmSt17reference_wrapperIS4_EEEE9_M_createISE_EEvRSt9_Any_dataOT_St17integral_constantIbLb0EE
FNDA:0,_ZNSt14_Function_base13_Base_managerISt5_BindIFM21AccessControlContractFvRSt6vectorISt5tupleIJN6BICYCL6_Utils17CL_HSM_CipherTextINS5_8CL_HSMqkEEE11curve_pointEESaISB_EEmmNS6_16CL_HSM_PublicKeyIS8_EERSB_EPS2_St17reference_wrapperISD_EmmSG_SL_ISB_EEEE9_M_createIRKSP_EEvRSt9_Any_dataOT_St17integral_constantIbLb0EE
FNDA:12,_ZNSt14_Function_base13_Base_managerISt5_BindIFM21AccessControlContractFvRSt6vectorISt5tupleIJN6BICYCL6_Utils17CL_HSM_CipherTextINS5_8CL_HSMqkEEE11curve_pointEESaISB_EEmmNS6_16CL_HSM_PublicKeyIS8_EERSB_EPS2_St17reference_wrapperISD_EmmSG_SL_ISB_EEEE9_M_createISP_EEvRSt9_Any_dataOT_St17integral_constantIbLb0EE
FNDA:0,_ZNSt14_Function_base13_Base_managerISt5_BindIFM21AccessControlContractFvRSt6vectorISt5tupleIJN6BICYCL6_Utils17CL_HSM_CipherTextINS5_8CL_HSMqkEEES9_S9_EESaISA_EEmmNS6_16CL_HSM_PublicKeyIS8_EERSA_EPS2_St17reference_wrapperISC_EmmSF_SK_ISA_EEEE9_M_createIRKSO_EEvRSt9_Any_dataOT_St17integral_constantIbLb0EE
FNDA:12,_ZNSt14_Function_base13_Base_managerISt5_BindIFM21AccessControlContractFvRSt6vectorISt5tupleIJN6BICYCL6_Utils17CL_HSM_CipherTextINS5_8CL_HSMqkEEES9_S9_EESaISA_EEmmNS6_16CL_HSM_PublicKeyIS8_EERSA_EPS2_St17reference_wrapperISC_EmmSF_SK_ISA_EEEE9_M_createISO_EEvRSt9_Any_dataOT_St17integral_constantIbLb0EE
FNDA:0,_ZNSt14_Function_base13_Base_managerISt5_BindIFM4UserFvN6BICYCL8CL_HSMqkENS3_6_Utils16CL_HSM_PublicKeyIS4_EENS5_17CL_HSM_CipherTextIS4_EES9_RSt5tupleIJS9_S9_S9_EEEPS2_S4_S7_S9_S9_St17reference_wrapperISB_EEEE9_M_createIRKSJ_EEvRSt9_Any_dataOT_St17integral_constantIbLb0EE
FNDA:100,_ZNSt14_Function_base13_Base_managerISt5_BindIFM4UserFvN6BICYCL8CL_HSMqkENS3_6_Utils16CL_HSM_PublicKeyIS4_EENS5_17CL_HSM_CipherTextIS4_EES9_RSt5tupleIJS9_S9_S9_EEEPS2_S4_S7_S9_S9_St17reference_wrapperISB_EEEE9_M_createISJ_EEvRSt9_Any_dataOT_St17integral_constantIbLb0EE
FNDA:0,_ZNSt14_Function_base13_Base_managerISt5_BindIFM4UserFvN6BICYCL8CL_HSMqkENS3_6_Utils17CL_HSM_CipherTextIS4_EERNS3_3QFIEEPS2_S4_S7_St17reference_wrapperIS8_EEEE9_M_createIRKSG_EEvRSt9_Any_dataOT_St17integral_constantIbLb0EE
FNDA:200,_ZNSt14_Function_base13_Base_managerISt5_BindIFM4UserFvN6BICYCL8CL_HSMqkENS3_6_Utils17CL_HSM_CipherTextIS4_EERNS3_3QFIEEPS2_S4_S7_St17reference_wrapperIS8_EEEE9_M_createISG_EEvRSt9_Any_dataOT_St17integral_constantIbLb0EE
FNDA:0,_ZNSt14_Function_base13_Base_managerISt5_BindIFM4UserFvRN6BICYCL8CL_HSMqkERKNS3_6_Utils16CL_HSM_PublicKeyIS4_EERSt6vectorISt5tupleIJNS6_17CL_HSM_CipherTextIS4_EE11curve_pointEESaISG_EEPSt5mutexEPS2_S4_S8_St17reference_wrapperISI_ESL_EEE9_M_createIRKSS_EEvRSt9_Any_dataOT_St17integral_constantIbLb0EE
FNDA:100,_ZNSt14_Function_base13_Base_managerISt5_BindIFM4UserFvRN6BICYCL8CL_HSMqkERKNS3_6_Utils16CL_HSM_PublicKeyIS4_EERSt6vectorISt5tupleIJNS6_17CL_HSM_CipherTextIS4_EE11curve_pointEESaISG_EEPSt5mutexEPS2_S4_S8_St17reference_wrapperISI_ESL_EEE9_M_createISS_EEvRSt9_Any_dataOT_St17integral_constantIbLb0EE
FNDA:0,_ZNSt14_Function_base13_Base_managerISt5_BindIFM9ValidatorFvN6BICYCL8CL_HSMqkENS3_6_Utils16CL_HSM_PublicKeyIS4_EENS5_17CL_HSM_CipherTextIS4_EES9_RSt5tupleIJS9_S9_S9_EEEPS2_S4_S7_S9_S9_St17reference_wrapperISB_EEEE9_M_createIRKSJ_EEvRSt9_Any_dataOT_St17integral_constantIbLb0EE
FNDA:2000,_ZNSt14_Function_base13_Base_managerISt5_BindIFM9ValidatorFvN6BICYCL8CL_HSMqkENS3_6_Utils16CL_HSM_PublicKeyIS4_EENS5_17CL_HSM_CipherTextIS4_EES9_RSt5tupleIJS9_S9_S9_EEEPS2_S4_S7_S9_S9_St17reference_wrapperISB_EEEE9_M_createISJ_EEvRSt9_Any_dataOT_St17integral_constantIbLb0EE
FNDA:0,_ZNSt14_Function_base13_Base_managerISt5_BindIFM9ValidatorFvN6BICYCL8CL_HSMqkENS3_6_Utils16CL_HSM_PublicKeyIS4_EERSt5tupleIJNS5_17CL_HSM_CipherTextIS4_EE11curve_pointEEPSt5mutexEPS2_S4_S7_St17reference_wrapperISC_ESF_EEE9_M_createIRKSM_EEvRSt9_Any_dataOT_St17integral_constantIbLb0EE
FNDA:2000,_ZNSt14_Function_base13_Base_managerISt5_BindIFM9ValidatorFvN6BICYCL8CL_HSMqkENS3_6_Utils16CL_HSM_PublicKeyIS4_EERSt5tupleIJNS5_17CL_HSM_CipherTextIS4_EE11curve_pointEEPSt5mutexEPS2_S4_S7_St17reference_wrapperISC_ESF_EEE9_M_createISM_EEvRSt9_Any_dataOT_St17integral_constantIbLb0EE
FNDA:0,_ZNSt14_Function_base13_Base_managerISt5_BindIFM9ValidatorFvN6BICYCL8CL_HSMqkENS3_6_Utils17CL_HSM_CipherTextIS4_EERNS3_3QFIEEPS2_S4_S7_St17reference_wrapperIS8_EEEE9_M_createIRKSG_EEvRSt9_Any_dataOT_St17integral_constantIbLb0EE
FNDA:4000,_ZNSt14_Function_base13_Base_managerISt5_BindIFM9ValidatorFvN6BICYCL8CL_HSMqkENS3_6_Utils17CL_HSM_CipherTextIS4_EERNS3_3QFIEEPS2_S4_S7_St17reference_wrapperIS8_EEEE9_M_createISG_EEvRSt9_Any_dataOT_St17integral_constantIbLb0EE
FNDA:24,_ZNSt14_Function_base13_Base_managerISt5_BindIFM21AccessControlContractFvPKN6BICYCL3QFIEmmRS4_EPS2_S6_mmSt17reference_wrapperIS4_EEEE10_M_destroyERSt9_Any_dataSt17integral_constantIbLb0EE
FNDA:12,_ZNSt14_Function_base13_Base_managerISt5_BindIFM21AccessControlContractFvRSt6vectorISt5tupleIJN6BICYCL6_Utils17CL_HSM_CipherTextINS5_8CL_HSMqkEEE11curve_pointEESaISB_EEmmNS6_16CL_HSM_PublicKeyIS8_EERSB_EPS2_St17reference_wrapperISD_EmmSG_SL_ISB_EEEE10_M_destroyERSt9_Any_dataSt17integral_constantIbLb0EE
FNDA:12,_ZNSt14_Function_base13_Base_managerISt5_BindIFM21AccessControlContractFvRSt6vectorISt5tupleIJN6BICYCL6_Utils17CL_HSM_CipherTextINS5_8CL_HSMqkEEES9_S9_EESaISA_EEmmNS6_16CL_HSM_PublicKeyIS8_EERSA_EPS2_St17reference_wrapperISC_EmmSF_SK_ISA_EEEE10_M_destroyERSt9_Any_dataSt17integral_constantIbLb0EE
FNDA:100,_ZNSt14_Function_base13_Base_managerISt5_BindIFM4UserFvN6BICYCL8CL_HSMqkENS3_6_Utils16CL_HSM_PublicKeyIS4_EENS5_17CL_HSM_CipherTextIS4_EES9_RSt5tupleIJS9_S9_S9_EEEPS2_S4_S7_S9_S9_St17reference_wrapperISB_EEEE10_M_destroyERSt9_Any_dataSt17integral_constantIbLb0EE
FNDA:200,_ZNSt14_Function_base13_Base_managerISt5_BindIFM4UserFvN6BICYCL8CL_HSMqkENS3_6_Utils17CL_HSM_CipherTextIS4_EERNS3_3QFIEEPS2_S4_S7_St17reference_wrapperIS8_EEEE10_M_destroyERSt9_Any_dataSt17integral_constantIbLb0EE
FNDA:100,_ZNSt14_Function_base13_Base_managerISt5_BindIFM4UserFvRN6BICYCL8CL_HSMqkERKNS3_6_Utils16CL_HSM_PublicKeyIS4_EERSt6vectorISt5tupleIJNS6_17CL_HSM_CipherTextIS4_EE11curve_pointEESaISG_EEPSt5mutexEPS2_S4_S8_St17reference_wrapperISI_ESL_EEE10_M_destroyERSt9_Any_dataSt17integral_constantIbLb0EE
FNDA:2000,_ZNSt14_Function_base13_Base_managerISt5_BindIFM9ValidatorFvN6BICYCL8CL_HSMqkENS3_6_Utils16CL_HSM_PublicKeyIS4_EENS5_17CL_HSM_CipherTextIS4_EES9_RSt5tupleIJS9_S9_S9_EEEPS2_S4_S7_S9_S9_St17reference_wrapperISB_EEEE10_M_destroyERSt9_Any_dataSt17integral_constantIbLb0EE
FNDA:2000,_ZNSt14_Function_base13_Base_managerISt5_BindIFM9ValidatorFvN6BICYCL8CL_HSMqkENS3_6_Utils16CL_HSM_PublicKeyIS4_EERSt5tupleIJNS5_17CL_HSM_CipherTextIS4_EE11curve_pointEEPSt5mutexEPS2_S4_S7_St17reference_wrapperISC_ESF_EEE10_M_destroyERSt9_Any_dataSt17integral_constantIbLb0EE
FNDA:4000,_ZNSt14_Function_base13_Base_managerISt5_BindIFM9ValidatorFvN6BICYCL8CL_HSMqkENS3_6_Utils17CL_HSM_CipherTextIS4_EERNS3_3QFIEEPS2_S4_S7_St17reference_wrapperIS8_EEEE10_M_destroyERSt9_Any_dataSt17integral_constantIbLb0EE
FNDA:24,_ZNSt14_Function_base13_Base_managerISt5_BindIFM21AccessControlContractFvPKN6BICYCL3QFIEmmRS4_EPS2_S6_mmSt17reference_wrapperIS4_EEEE10_M_managerERSt9_Any_dataRKSG_St18_Manager_operation
FNDA:12,_ZNSt14_Function_base13_Base_managerISt5_BindIFM21AccessControlContractFvRSt6vectorISt5tupleIJN6BICYCL6_Utils17CL_HSM_CipherTextINS5_8CL_HSMqkEEE11curve_pointEESaISB_EEmmNS6_16CL_HSM_PublicKeyIS8_EERSB_EPS2_St17reference_wrapperISD_EmmSG_SL_ISB_EEEE10_M_managerERSt9_Any_dataRKSR_St18_Manager_operation
FNDA:12,_ZNSt14_Function_base13_Base_managerISt5_BindIFM21AccessControlContractFvRSt6vectorISt5tupleIJN6BICYCL6_Utils17CL_HSM_CipherTextINS5_8CL_HSMqkEEES9_S9_EESaISA_EEmmNS6_16CL_HSM_PublicKeyIS8_EERSA_EPS2_St17reference_wrapperISC_EmmSF_SK_ISA_EEEE10_M_managerERSt9_Any_dataRKSQ_St18_Manager_operation
FNDA:100,_ZNSt14_Function_base13_Base_managerISt5_BindIFM4UserFvN6BICYCL8CL_HSMqkENS3_6_Utils16CL_HSM_PublicKeyIS4_EENS5_17CL_HSM_CipherTextIS4_EES9_RSt5tupleIJS9_S9_S9_EEEPS2_S4_S7_S9_S9_St17reference_wrapperISB_EEEE10_M_managerERSt9_Any_dataRKSL_St18_Manager_operation
FNDA:200,_ZNSt14_Function_base13_Base_managerISt5_BindIFM4UserFvN6BICYCL8CL_HSMqkENS3_6_Utils17CL_HSM_CipherTextIS4_EERNS3_3QFIEEPS2_S4_S7_St17reference_wrapperIS8_EEEE10_M_managerERSt9_Any_dataRKSI_St18_Manager_operation
FNDA:100,_ZNSt14_Function_base13_Base_managerISt5_BindIFM4UserFvRN6BICYCL8CL_HSMqkERKNS3_6_Utils16CL_HSM_PublicKeyIS4_EERSt6vectorISt5tupleIJNS6_17CL_HSM_CipherTextIS4_EE11curve_pointEESaISG_EEPSt5mutexEPS2_S4_S8_St17reference_wrapperISI_ESL_EEE10_M_managerERSt9_Any_dataRKSU_St18_Manager_operation
FNDA:2000,_ZNSt14_Function_base13_Base_managerISt5_BindIFM9ValidatorFvN6BICYCL8CL_HSMqkENS3_6_Utils16CL_HSM_PublicKeyIS4_EENS5_17CL_HSM_CipherTextIS4_EES9_RSt5tupleIJS9_S9_S9_EEEPS2_S4_S7_S9_S9_St17reference_wrapperISB_EEEE10_M_managerERSt9_Any_dataRKSL_St18_Manager_operation
FNDA:2000,_ZNSt14_Function_base13_Base_managerISt5_BindIFM9ValidatorFvN6BICYCL8CL_HSMqkENS3_6_Utils16CL_HSM_PublicKeyIS4_EERSt5tupleIJNS5_17CL_HSM_CipherTextIS4_EE11curve_pointEEPSt5mutexEPS2_S4_S7_St17reference_wrapperISC_ESF_EEE10_M_managerERSt9_Any_dataRKSO_St18_Manager_operation
FNDA:4000,_ZNSt14_Function_base13_Base_managerISt5_BindIFM9ValidatorFvN6BICYCL8CL_HSMqkENS3_6_Utils17CL_HSM_CipherTextIS4_EERNS3_3QFIEEPS2_S4_S7_St17reference_wrapperIS8_EEEE10_M_managerERSt9_Any_dataRKSI_St18_Manager_operation
FNDA:0,_ZNSt14_Function_base13_Base_managerISt5_BindIFM21AccessControlContractFvPKN6BICYCL3QFIEmmRS4_EPS2_S6_mmSt17reference_wrapperIS4_EEEE15_M_init_functorIRKSE_EEvRSt9_Any_dataOT_
FNDA:24,_ZNSt14_Function_base13_Base_managerISt5_BindIFM21AccessControlContractFvPKN6BICYCL3QFIEmmRS4_EPS2_S6_mmSt17reference_wrapperIS4_EEEE15_M_init_functorISE_EEvRSt9_Any_dataOT_
FNDA:0,_ZNSt14_Function_base13_Base_managerISt5_BindIFM21AccessControlContractFvRSt6vectorISt5tupleIJN6BICYCL6_Utils17CL_HSM_CipherTextINS5_8CL_HSMqkEEE11curve_pointEESaISB_EEmmNS6_16CL_HSM_PublicKeyIS8_EERSB_EPS2_St17reference_wrapperISD_EmmSG_SL_ISB_EEEE15_M_init_functorIRKSP_EEvRSt9_Any_dataOT_
FNDA:12,_ZNSt14_Function_base13_Base_managerISt5_BindIFM21AccessControlContractFvRSt6vectorISt5tupleIJN6BICYCL6_Utils17CL_HSM_CipherTextINS5_8CL_HSMqkEEE11curve_pointEESaISB_EEmmNS6_16CL_HSM_PublicKeyIS8_EERSB_EPS2_St17reference_wrapperISD_EmmSG_SL_ISB_EEEE15_M_init_functorISP_EEvRSt9_Any_dataOT_
FNDA:0,_ZNSt14_Function_base13_Base_managerISt5_BindIFM21AccessControlContractFvRSt6vectorISt5tupleIJN6BICYCL6_Utils17CL_HSM_CipherTextINS5_8CL_HSMqkEEES9_S9_EESaISA_EEmmNS6_16CL_HSM_PublicKeyIS8_EERSA_EPS2_St17reference_wrapperISC_EmmSF_SK_ISA_EEEE15_M_init_functorIRKSO_EEvRSt9_Any_dataOT_
FNDA:12,_ZNSt14_Function_base13_Base_managerISt5_BindIFM21AccessControlContractFvRSt6vectorISt5tupleIJN6BICYCL6_Utils17CL_HSM_CipherTextINS5_8CL_HSMqkEEES9_S9_EESaISA_EEmmNS6_16CL_HSM_PublicKeyIS8_EERSA_EPS2_St17reference_wrapperISC_EmmSF_SK_ISA_EEEE15_M_init_functorISO_EEvRSt9_Any_dataOT_
FNDA:0,_ZNSt14_Function_base13_Base_managerISt5_BindIFM4UserFvN6BICYCL8CL_HSMqkENS3_6_Utils16CL_HSM_PublicKeyIS4_EENS5_17CL_HSM_CipherTextIS4_EES9_RSt5tupleIJS9_S9_S9_EEEPS2_S4_S7_S9_S9_St17reference_wrapperISB_EEEE15_M_init_functorIRKSJ_EEvRSt9_Any_dataOT_
FNDA:100,_ZNSt14_Function_base13_Base_managerISt5_BindIFM4UserFvN6BICYCL8CL_HSMqkENS3_6_Utils16CL_HSM_PublicKeyIS4_EENS5_17CL_HSM_CipherTextIS4_EES9_RSt5tupleIJS9_S9_S9_EEEPS2_S4_S7_S9_S9_St17reference_wrapperISB_EEEE15_M_init_functorISJ_EEvRSt9_Any_dataOT_
FNDA:0,_ZNSt14_Function_base13_Base_managerISt5_BindIFM4UserFvN6BICYCL8CL_HSMqkENS3_6_Utils17CL_HSM_CipherTextIS4_EERNS3_3QFIEEPS2_S4_S7_St17reference_wrapperIS8_EEEE15_M_init_functorIRKSG_EEvRSt9_Any_dataOT_
FNDA:200,_ZNSt14_Function_base13_Base_managerISt5_BindIFM4UserFvN6BICYCL8CL_HSMqkENS3_6_Utils17CL_HSM_CipherTextIS4_EERNS3_3QFIEEPS2_S4_S7_St17reference_wrapperIS8_EEEE15_M_init_functorISG_EEvRSt9_Any_dataOT_
FNDA:0,_ZNSt14_Function_base13_Base_managerISt5_BindIFM4UserFvRN6BICYCL8CL_HSMqkERKNS3_6_Utils16CL_HSM_PublicKeyIS4_EERSt6vectorISt5tupleIJNS6_17CL_HSM_CipherTextIS4_EE11curve_pointEESaISG_EEPSt5mutexEPS2_S4_S8_St17reference_wrapperISI_ESL_EEE15_M_init_functorIRKSS_EEvRSt9_Any_dataOT_
FNDA:100,_ZNSt14_Function_base13_Base_managerISt5_BindIFM4UserFvRN6BICYCL8CL_HSMqkERKNS3_6_Utils16CL_HSM_PublicKeyIS4_EERSt6vectorISt5tupleIJNS6_17CL_HSM_CipherTextIS4_EE11curve_pointEESaISG_EEPSt5mutexEPS2_S4_S8_St17reference_wrapperISI_ESL_EEE15_M_init_functorISS_EEvRSt9_Any_dataOT_
FNDA:0,_ZNSt14_Function_base13_Base_managerISt5_BindIFM9ValidatorFvN6BICYCL8CL_HSMqkENS3_6_Utils16CL_HSM_PublicKeyIS4_EENS5_17CL_HSM_CipherTextIS4_EES9_RSt5tupleIJS9_S9_S9_EEEPS2_S4_S7_S9_S9_St17reference_wrapperISB_EEEE15_M_init_functorIRKSJ_EEvRSt9_Any_dataOT_
FNDA:2000,_ZNSt14_Function_base13_Base_managerISt5_BindIFM9ValidatorFvN6BICYCL8CL_HSMqkENS3_6_Utils16CL_HSM_PublicKeyIS4_EENS5_17CL_HSM_CipherTextIS4_EES9_RSt5tupleIJS9_S9_S9_EEEPS2_S4_S7_S9_S9_St17reference_wrapperISB_EEEE15_M_init_functorISJ_EEvRSt9_Any_dataOT_
FNDA:0,_ZNSt14_Function_base13_Base_managerISt5_BindIFM9ValidatorFvN6BICYCL8CL_HSMqkENS3_6_Utils16CL_HSM_PublicKeyIS4_EERSt5tupleIJNS5_17CL_HSM_CipherTextIS4_EE11curve_pointEEPSt5mutexEPS2_S4_S7_St17reference_wrapperISC_ESF_EEE15_M_init_functorIRKSM_EEvRSt9_Any_dataOT_
FNDA:2000,_ZNSt14_Function_base13_Base_managerISt5_BindIFM9ValidatorFvN6BICYCL8CL_HSMqkENS3_6_Utils16CL_HSM_PublicKeyIS4_EERSt5tupleIJNS5_17CL_HSM_CipherTextIS4_EE11curve_pointEEPSt5mutexEPS2_S4_S7_St17reference_wrapperISC_ESF_EEE15_M_init_functorISM_EEvRSt9_Any_dataOT_
FNDA:0,_ZNSt14_Function_base13_Base_managerISt5_BindIFM9ValidatorFvN6BICYCL8CL_HSMqkENS3_6_Utils17CL_HSM_CipherTextIS4_EERNS3_3QFIEEPS2_S4_S7_St17reference_wrapperIS8_EEEE15_M_init_functorIRKSG_EEvRSt9_Any_dataOT_
FNDA:4000,_ZNSt14_Function_base13_Base_managerISt5_BindIFM9ValidatorFvN6BICYCL8CL_HSMqkENS3_6_Utils17CL_HSM_CipherTextIS4_EERNS3_3QFIEEPS2_S4_S7_St17reference_wrapperIS8_EEEE15_M_init_functorISG_EEvRSt9_Any_dataOT_
FNDA:24,_ZNSt14_Function_base13_Base_managerISt5_BindIFM21AccessControlContractFvPKN6BICYCL3QFIEmmRS4_EPS2_S6_mmSt17reference_wrapperIS4_EEEE21_M_not_empty_functionISE_EEbRKT_
FNDA:12,_ZNSt14_Function_base13_Base_managerISt5_BindIFM21AccessControlContractFvRSt6vectorISt5tupleIJN6BICYCL6_Utils17CL_HSM_CipherTextINS5_8CL_HSMqkEEE11curve_pointEESaISB_EEmmNS6_16CL_HSM_PublicKeyIS8_EERSB_EPS2_St17reference_wrapperISD_EmmSG_SL_ISB_EEEE21_M_not_empty_functionISP_EEbRKT_
FNDA:12,_ZNSt14_Function_base13_Base_managerISt5_BindIFM21AccessControlContractFvRSt6vectorISt5tupleIJN6BICYCL6_Utils17CL_HSM_CipherTextINS5_8CL_HSMqkEEES9_S9_EESaISA_EEmmNS6_16CL_HSM_PublicKeyIS8_EERSA_EPS2_St17reference_wrapperISC_EmmSF_SK_ISA_EEEE21_M_not_empty_functionISO_EEbRKT_
FNDA:100,_ZNSt14_Function_base13_Base_managerISt5_BindIFM4UserFvN6BICYCL8CL_HSMqkENS3_6_Utils16CL_HSM_PublicKeyIS4_EENS5_17CL_HSM_CipherTextIS4_EES9_RSt5tupleIJS9_S9_S9_EEEPS2_S4_S7_S9_S9_St17reference_wrapperISB_EEEE21_M_not_empty_functionISJ_EEbRKT_
FNDA:200,_ZNSt14_Function_base13_Base_managerISt5_BindIFM4UserFvN6BICYCL8CL_HSMqkENS3_6_Utils17CL_HSM_CipherTextIS4_EERNS3_3QFIEEPS2_S4_S7_St17reference_wrapperIS8_EEEE21_M_not_empty_functionISG_EEbRKT_
FNDA:100,_ZNSt14_Function_base13_Base_managerISt5_BindIFM4UserFvRN6BICYCL8CL_HSMqkERKNS3_6_Utils16CL_HSM_PublicKeyIS4_EERSt6vectorISt5tupleIJNS6_17CL_HSM_CipherTextIS4_EE11curve_pointEESaISG_EEPSt5mutexEPS2_S4_S8_St17reference_wrapperISI_ESL_EEE21_M_not_empty_functionISS_EEbRKT_
FNDA:2000,_ZNSt14_Function_base13_Base_managerISt5_BindIFM9ValidatorFvN6BICYCL8CL_HSMqkENS3_6_Utils16CL_HSM_PublicKeyIS4_EENS5_17CL_HSM_CipherTextIS4_EES9_RSt5tupleIJS9_S9_S9_EEEPS2_S4_S7_S9_S9_St17reference_wrapperISB_EEEE21_M_not_empty_functionISJ_EEbRKT_
FNDA:2000,_ZNSt14_Function_base13_Base_managerISt5_BindIFM9ValidatorFvN6BICYCL8CL_HSMqkENS3_6_Utils16CL_HSM_PublicKeyIS4_EERSt5tupleIJNS5_17CL_HSM_CipherTextIS4_EE11curve_pointEEPSt5mutexEPS2_S4_S7_St17reference_wrapperISC_ESF_EEE21_M_not_empty_functionISM_EEbRKT_
FNDA:4000,_ZNSt14_Function_base13_Base_managerISt5_BindIFM9ValidatorFvN6BICYCL8CL_HSMqkENS3_6_Utils17CL_HSM_CipherTextIS4_EERNS3_3QFIEEPS2_S4_S7_St17reference_wrapperIS8_EEEE21_M_not_empty_functionISG_EEbRKT_
FNDA:25356,_ZNSt14_Function_baseC2Ev
FNDA:25356,_ZNSt14_Function_baseD2Ev
FNDA:16896,_ZNKSt14_Function_base8_M_emptyEv
FNDA:24,_ZNSt17_Function_handlerIFvvESt5_BindIFM21AccessControlContractFvPKN6BICYCL3QFIEmmRS4_EPS2_S6_mmSt17reference_wrapperIS4_EEEE10_M_managerERSt9_Any_dataRKSG_St18_Manager_operation
FNDA:12,_ZNSt17_Function_handlerIFvvESt5_BindIFM21AccessControlContractFvRSt6vectorISt5tupleIJN6BICYCL6_Utils17CL_HSM_CipherTextINS5_8CL_HSMqkEEE11curve_pointEESaISB_EEmmNS6_16CL_HSM_PublicKeyIS8_EERSB_EPS2_St17reference_wrapperISD_EmmSG_SL_ISB_EEEE10_M_managerERSt9_Any_dataRKSR_St18_Manager_operation
FNDA:12,_ZNSt17_Function_handlerIFvvESt5_BindIFM21AccessControlContractFvRSt6vectorISt5tupleIJN6BICYCL6_Utils17CL_HSM_CipherTextINS5_8CL_HSMqkEEES9_S9_EESaISA_EEmmNS6_16CL_HSM_PublicKeyIS8_EERSA_EPS2_St17reference_wrapperISC_EmmSF_SK_ISA_EEEE10_M_managerERSt9_Any_dataRKSQ_St18_Manager_operation
FNDA:100,_ZNSt17_Function_handlerIFvvESt5_BindIFM4UserFvN6BICYCL8CL_HSMqkENS3_6_Utils16CL_HSM_PublicKeyIS4_EENS5_17CL_HSM_CipherTextIS4_EES9_RSt5tupleIJS9_S9_S9_EEEPS2_S4_S7_S9_S9_St17reference_wrapperISB_EEEE10_M_managerERSt9_Any_dataRKSL_St18_Manager_operation
FNDA:200,_ZNSt17_Function_handlerIFvvESt5_BindIFM4UserFvN6BICYCL8CL_HSMqkENS3_6_Utils17CL_HSM_CipherTextIS4_EERNS3_3QFIEEPS2_S4_S7_St17reference_wrapperIS8_EEEE10_M_managerERSt9_Any_dataRKSI_St18_Manager_operation
FNDA:100,_ZNSt17_Function_handlerIFvvESt5_BindIFM4UserFvRN6BICYCL8CL_HSMqkERKNS3_6_Utils16CL_HSM_PublicKeyIS4_EERSt6vectorISt5tupleIJNS6_17CL_HSM_CipherTextIS4_EE11curve_pointEESaISG_EEPSt5mutexEPS2_S4_S8_St17reference_wrapperISI_ESL_EEE10_M_managerERSt9_Any_dataRKSU_St18_Manager_operation
FNDA:2000,_ZNSt17_Function_handlerIFvvESt5_BindIFM9ValidatorFvN6BICYCL8CL_HSMqkENS3_6_Utils16CL_HSM_PublicKeyIS4_EENS5_17CL_HSM_CipherTextIS4_EES9_RSt5tupleIJS9_S9_S9_EEEPS2_S4_S7_S9_S9_St17reference_wrapperISB_EEEE10_M_managerERSt9_Any_dataRKSL_St18_Manager_operation
FNDA:2000,_ZNSt17_Function_handlerIFvvESt5_BindIFM9ValidatorFvN6BICYCL8CL_HSMqkENS3_6_Utils16CL_HSM_PublicKeyIS4_EERSt5tupleIJNS5_17CL_HSM_CipherTextIS4_EE11curve_pointEEPSt5mutexEPS2_S4_S7_St17reference_wrapperISC_ESF_EEE10_M_managerERSt9_Any_dataRKSO_St18_Manager_operation
FNDA:4000,_ZNSt17_Function_handlerIFvvESt5_BindIFM9ValidatorFvN6BICYCL8CL_HSMqkENS3_6_Utils17CL_HSM_CipherTextIS4_EERNS3_3QFIEEPS2_S4_S7_St17reference_wrapperIS8_EEEE10_M_managerERSt9_Any_dataRKSI_St18_Manager_operation
FNDA:24,_ZNSt17_Function_handlerIFvvESt5_BindIFM21AccessControlContractFvPKN6BICYCL3QFIEmmRS4_EPS2_S6_mmSt17reference_wrapperIS4_EEEE9_M_invokeERKSt9_Any_data
FNDA:12,_ZNSt17_Function_handlerIFvvESt5_BindIFM21AccessControlContractFvRSt6vectorISt5tupleIJN6BICYCL6_Utils17CL_HSM_CipherTextINS5_8CL_HSMqkEEE11curve_pointEESaISB_EEmmNS6_16CL_HSM_PublicKeyIS8_EERSB_EPS2_St17reference_wrapperISD_EmmSG_SL_ISB_EEEE9_M_invokeERKSt9_Any_data
FNDA:12,_ZNSt17_Function_handlerIFvvESt5_BindIFM21AccessControlContractFvRSt6vectorISt5tupleIJN6BICYCL6_Utils17CL_HSM_CipherTextINS5_8CL_HSMqkEEES9_S9_EESaISA_EEmmNS6_16CL_HSM_PublicKeyIS8_EERSA_EPS2_St17reference_wrapperISC_EmmSF_SK_ISA_EEEE9_M_invokeERKSt9_Any_data
FNDA:100,_ZNSt17_Function_handlerIFvvESt5_BindIFM4UserFvN6BICYCL8CL_HSMqkENS3_6_Utils16CL_HSM_PublicKeyIS4_EENS5_17CL_HSM_CipherTextIS4_EES9_RSt5tupleIJS9_S9_S9_EEEPS2_S4_S7_S9_S9_St17reference_wrapperISB_EEEE9_M_invokeERKSt9_Any_data
FNDA:200,_ZNSt17_Function_handlerIFvvESt5_BindIFM4UserFvN6BICYCL8CL_HSMqkENS3_6_Utils17CL_HSM_CipherTextIS4_EERNS3_3QFIEEPS2_S4_S7_St17reference_wrapperIS8_EEEE9_M_invokeERKSt9_Any_data
FNDA:100,_ZNSt17_Function_handlerIFvvESt5_BindIFM4UserFvRN6BICYCL8CL_HSMqkERKNS3_6_Utils16CL_HSM_PublicKeyIS4_EERSt6vectorISt5tupleIJNS6_17CL_HSM_CipherTextIS4_EE11curve_pointEESaISG_EEPSt5mutexEPS2_S4_S8_St17reference_wrapperISI_ESL_EEE9_M_invokeERKSt9_Any_data
FNDA:2000,_ZNSt17_Function_handlerIFvvESt5_BindIFM9ValidatorFvN6BICYCL8CL_HSMqkENS3_6_Utils16CL_HSM_PublicKeyIS4_EENS5_17CL_HSM_CipherTextIS4_EES9_RSt5tupleIJS9_S9_S9_EEEPS2_S4_S7_S9_S9_St17reference_wrapperISB_EEEE9_M_invokeERKSt9_Any_data
FNDA:2000,_ZNSt17_Function_handlerIFvvESt5_BindIFM9ValidatorFvN6BICYCL8CL_HSMqkENS3_6_Utils16CL_HSM_PublicKeyIS4_EERSt5tupleIJNS5_17CL_HSM_CipherTextIS4_EE11curve_pointEEPSt5mutexEPS2_S4_S7_St17reference_wrapperISC_ESF_EEE9_M_invokeERKSt9_Any_data
FNDA:4000,_ZNSt17_Function_handlerIFvvESt5_BindIFM9ValidatorFvN6BICYCL8CL_HSMqkENS3_6_Utils17CL_HSM_CipherTextIS4_EERNS3_3QFIEEPS2_S4_S7_St17reference_wrapperIS8_EEEE9_M_invokeERKSt9_Any_data
FNDA:8460,_ZNSt8functionIFvvEEC2Ev
FNDA:8448,_ZNSt8functionIFvvEEC2EOS1_
FNDA:24,_ZNSt8functionIFvvEEC2ISt5_BindIFM21AccessControlContractFvPKN6BICYCL3QFIEmmRS6_EPS4_S8_mmSt17reference_wrapperIS6_EEEvEEOT_
FNDA:12,_ZNSt8functionIFvvEEC2ISt5_BindIFM21AccessControlContractFvRSt6vectorISt5tupleIJN6BICYCL6_Utils17CL_HSM_CipherTextINS7_8CL_HSMqkEEE11curve_pointEESaISD_EEmmNS8_16CL_HSM_PublicKeyISA_EERSD_EPS4_St17reference_wrapperISF_EmmSI_SN_ISD_EEEvEEOT_
FNDA:12,_ZNSt8functionIFvvEEC2ISt5_BindIFM21AccessControlContractFvRSt6vectorISt5tupleIJN6BICYCL6_Utils17CL_HSM_CipherTextINS7_8CL_HSMqkEEESB_SB_EESaISC_EEmmNS8_16CL_HSM_PublicKeyISA_EERSC_EPS4_St17reference_wrapperISE_EmmSH_SM_ISC_EEEvEEOT_
FNDA:100,_ZNSt8functionIFvvEEC2ISt5_BindIFM4UserFvN6BICYCL8CL_HSMqkENS5_6_Utils16CL_HSM_PublicKeyIS6_EENS7_17CL_HSM_CipherTextIS6_EESB_RSt5tupleIJSB_SB_SB_EEEPS4_S6_S9_SB_SB_St17reference_wrapperISD_EEEvEEOT_
FNDA:200,_ZNSt8functionIFvvEEC2ISt5_BindIFM4UserFvN6BICYCL8CL_HSMqkENS5_6_Utils17CL_HSM_CipherTextIS6_EERNS5_3QFIEEPS4_S6_S9_St17reference_wrapperISA_EEEvEEOT_
FNDA:100,_ZNSt8functionIFvvEEC2ISt5_BindIFM4UserFvRN6BICYCL8CL_HSMqkERKNS5_6_Utils16CL_HSM_PublicKeyIS6_EERSt6vectorISt5tupleIJNS8_17CL_HSM_CipherTextIS6_EE11curve_pointEESaISI_EEPSt5mutexEPS4_S6_SA_St17reference_wrapperISK_ESN_EEvEEOT_
FNDA:2000,_ZNSt8functionIFvvEEC2ISt5_BindIFM9ValidatorFvN6BICYCL8CL_HSMqkENS5_6_Utils16CL_HSM_PublicKeyIS6_EENS7_17CL_HSM_CipherTextIS6_EESB_RSt5tupleIJSB_SB_SB_EEEPS4_S6_S9_SB_SB_St17reference_wrapperISD_EEEvEEOT_
FNDA:2000,_ZNSt8functionIFvvEEC2ISt5_BindIFM9ValidatorFvN6BICYCL8CL_HSMqkENS5_6_Utils16CL_HSM_PublicKeyIS6_EERSt5tupleIJNS7_17CL_HSM_CipherTextIS6_EE11curve_pointEEPSt5mutexEPS4_S6_S9_St17reference_wrapperISE_ESH_EEvEEOT_
FNDA:4000,_ZNSt8functionIFvvEEC2ISt5_BindIFM9ValidatorFvN6BICYCL8CL_HSMqkENS5_6_Utils17CL_HSM_CipherTextIS6_EERNS5_3QFIEEPS4_S6_S9_St17reference_wrapperISA_EEEvEEOT_
FNDA:8448,_ZNSt8functionIFvvEEaSEOS1_
FNDA:8448,_ZNSt8functionIFvvEE4swapERS1_
FNDA:8448,_ZNKSt8functionIFvvEEcvbEv
FNDA:8448,_ZNKSt8functionIFvvEEclEv
FNDA:16896,_ZNSt9_Any_data9_M_accessEv
FNDA:8448,_ZNKSt9_Any_data9_M_accessEv
FNDA:0,_ZNSt9_Any_data9_M_accessIPKSt9type_infoEERT_v
FNDA:48,_ZNSt9_Any_data9_M_accessIPSt5_BindIFM21AccessControlContractFvPKN6BICYCL3QFIEmmRS4_EPS2_S6_mmSt17reference_wrapperIS4_EEEEERT_v
FNDA:24,_ZNSt9_Any_data9_M_accessIPSt5_BindIFM21AccessControlContractFvRSt6vectorISt5tupleIJN6BICYCL6_Utils17CL_HSM_CipherTextINS5_8CL_HSMqkEEE11curve_pointEESaISB_EEmmNS6_16CL_HSM_PublicKeyIS8_EERSB_EPS2_St17reference_wrapperISD_EmmSG_SL_ISB_EEEEERT_v
FNDA:24,_ZNSt9_Any_data9_M_accessIPSt5_BindIFM21AccessControlContractFvRSt6vectorISt5tupleIJN6BICYCL6_Utils17CL_HSM_CipherTextINS5_8CL_HSMqkEEES9_S9_EESaISA_EEmmNS6_16CL_HSM_PublicKeyIS8_EERSA_EPS2_St17reference_wrapperISC_EmmSF_SK_ISA_EEEEERT_v
FNDA:200,_ZNSt9_Any_data9_M_accessIPSt5_BindIFM4UserFvN6BICYCL8CL_HSMqkENS3_6_Utils16CL_HSM_PublicKeyIS4_EENS5_17CL_HSM_CipherTextIS4_EES9_RSt5tupleIJS9_S9_S9_EEEPS2_S4_S7_S9_S9_St17reference_wrapperISB_EEEEERT_v
FNDA:400,_ZNSt9_Any_data9_M_accessIPSt5_BindIFM4UserFvN6BICYCL8CL_HSMqkENS3_6_Utils17CL_HSM_CipherTextIS4_EERNS3_3QFIEEPS2_S4_S7_St17reference_wrapperIS8_EEEEERT_v
FNDA:200,_ZNSt9_Any_data9_M_accessIPSt5_BindIFM4UserFvRN6BICYCL8CL_HSMqkERKNS3_6_Utils16CL_HSM_PublicKeyIS4_EERSt6vectorISt5tupleIJNS6_17CL_HSM_CipherTextIS4_EE11curve_pointEESaISG_EEPSt5mutexEPS2_S4_S8_St17reference_wrapperISI_ESL_EEEERT_v
FNDA:4000,_ZNSt9_Any_data9_M_accessIPSt5_BindIFM9ValidatorFvN6BICYCL8CL_HSMqkENS3_6_Utils16CL_HSM_PublicKeyIS4_EENS5_17CL_HSM_CipherTextIS4_EES9_RSt5tupleIJS9_S9_S9_EEEPS2_S4_S7_S9_S9_St17reference_wrapperISB_EEEEERT_v
FNDA:4000,_ZNSt9_Any_data9_M_accessIPSt5_BindIFM9ValidatorFvN6BICYCL8CL_HSMqkENS3_6_Utils16CL_HSM_PublicKeyIS4_EERSt5tupleIJNS5_17CL_HSM_CipherTextIS4_EE11curve_pointEEPSt5mutexEPS2_S4_S7_St17reference_wrapperISC_ESF_EEEERT_v
FNDA:8000,_ZNSt9_Any_data9_M_accessIPSt5_BindIFM9ValidatorFvN6BICYCL8CL_HSMqkENS3_6_Utils17CL_HSM_CipherTextIS4_EERNS3_3QFIEEPS2_S4_S7_St17reference_wrapperIS8_EEEEERT_v
FNDA:24,_ZNKSt9_Any_data9_M_accessIPSt5_BindIFM21AccessControlContractFvPKN6BICYCL3QFIEmmRS4_EPS2_S6_mmSt17reference_wrapperIS4_EEEEERKT_v
FNDA:12,_ZNKSt9_Any_data9_M_accessIPSt5_BindIFM21AccessControlContractFvRSt6vectorISt5tupleIJN6BICYCL6_Utils17CL_HSM_CipherTextINS5_8CL_HSMqkEEE11curve_pointEESaISB_EEmmNS6_16CL_HSM_PublicKeyIS8_EERSB_EPS2_St17reference_wrapperISD_EmmSG_SL_ISB_EEEEERKT_v
FNDA:12,_ZNKSt9_Any_data9_M_accessIPSt5_BindIFM21AccessControlContractFvRSt6vectorISt5tupleIJN6BICYCL6_Utils17CL_HSM_CipherTextINS5_8CL_HSMqkEEES9_S9_EESaISA_EEmmNS6_16CL_HSM_PublicKeyIS8_EERSA_EPS2_St17reference_wrapperISC_EmmSF_SK_ISA_EEEEERKT_v
FNDA:100,_ZNKSt9_Any_data9_M_accessIPSt5_BindIFM4UserFvN6BICYCL8CL_HSMqkENS3_6_Utils16CL_HSM_PublicKeyIS4_EENS5_17CL_HSM_CipherTextIS4_EES9_RSt5tupleIJS9_S9_S9_EEEPS2_S4_S7_S9_S9_St17reference_wrapperISB_EEEEERKT_v
FNDA:200,_ZNKSt9_Any_data9_M_accessIPSt5_BindIFM4UserFvN6BICYCL8CL_HSMqkENS3_6_Utils17CL_HSM_CipherTextIS4_EERNS3_3QFIEEPS2_S4_S7_St17reference_wrapperIS8_EEEEERKT_v
FNDA:100,_ZNKSt9_Any_data9_M_accessIPSt5_BindIFM4UserFvRN6BICYCL8CL_HSMqkERKNS3_6_Utils16CL_HSM_PublicKeyIS4_EERSt6vectorISt5tupleIJNS6_17CL_HSM_CipherTextIS4_EE11curve_pointEESaISG_EEPSt5mutexEPS2_S4_S8_St17reference_wrapperISI_ESL_EEEERKT_v
FNDA:2000,_ZNKSt9_Any_data9_M_accessIPSt5_BindIFM9ValidatorFvN6BICYCL8CL_HSMqkENS3_6_Utils16CL_HSM_PublicKeyIS4_EENS5_17CL_HSM_CipherTextIS4_EES9_RSt5tupleIJS9_S9_S9_EEEPS2_S4_S7_S9_S9_St17reference_wrapperISB_EEEEERKT_v
FNDA:2000,_ZNKSt9_Any_data9_M_accessIPSt5_BindIFM9ValidatorFvN6BICYCL8CL_HSMqkENS3_6_Utils16CL_HSM_PublicKeyIS4_EERSt5tupleIJNS5_17CL_HSM_CipherTextIS4_EE11curve_pointEEPSt5mutexEPS2_S4_S7_St17reference_wrapperISC_ESF_EEEERKT_v
FNDA:4000,_ZNKSt9_Any_data9_M_accessIPSt5_BindIFM9ValidatorFvN6BICYCL8CL_HSMqkENS3_6_Utils17CL_HSM_CipherTextIS4_EERNS3_3QFIEEPS2_S4_S7_St17reference_wrapperIS8_EEEEERKT_v
FNF:129
FNH:110
DA:85,16896
DA:86,8448
DA:90,16896
DA:91,16896
DA:95,8448
DA:96,8448
DA:134,8448
DA:142,8448
DA:158,8448
DA:160,8448
DA:161,8448
DA:162,8448
DA:173,8448
DA:175,8448
DA:176,8448
DA:180,8448
DA:183,8448
DA:185,0
DA:187,0
DA:191,0
DA:193,0
DA:194,0
DA:195,0
DA:197,0
DA:198,0
DA:199,0
DA:200,0
DA:202,8448
DA:203,8448
DA:204,8448
DA:206,8448
DA:211,8448
DA:215,8448
DA:216,8448
DA:235,8448
DA:236,8448
DA:239,25356
DA:241,25356
DA:243,25356
DA:244,8448
DA:245,25356
DA:247,16896
DA:267,8448
DA:270,8448
DA:273,0
DA:274,0
DA:275,0
DA:277,0
DA:278,0
DA:279,0
DA:281,8448
DA:282,8448
DA:284,8448
DA:288,8448
DA:290,8448
DA:291,8448
DA:368,8460
DA:369,8460
DA:404,8448
DA:405,8448
DA:407,8448
DA:409,8448
DA:410,8448
DA:411,8448
DA:412,8448
DA:414,8448
DA:435,8448
DA:437,8448
DA:447,8448
DA:449,8448
DA:451,8448
DA:452,8448
DA:454,8448
DA:487,8448
DA:489,8448
DA:490,8448
DA:556,8448
DA:558,8448
DA:559,8448
DA:560,8448
DA:561,8448
DA:573,8448
DA:574,8448
DA:587,8448
DA:589,8448
DA:590,0
DA:591,8448
LF:87
LH:70
end_of_record
TN:
SF:/usr/include/c++/14.2.1/bits/std_mutex.h
FN:104,104,_ZNSt5mutexC2Ev
FN:111,118,_ZNSt5mutex4lockEv
FN:129,133,_ZNSt5mutex6unlockEv
FN:249,250,_ZNSt10lock_guardISt5mutexEC2ERS0_
FN:256,257,_ZNSt10lock_guardISt5mutexED2Ev
FN:67,67,_ZNSt12__mutex_baseC2Ev
FNDA:1,_ZNSt5mutexC2Ev
FNDA:19017,_ZNSt5mutex4lockEv
FNDA:19017,_ZNSt5mutex6unlockEv
FNDA:2100,_ZNSt10lock_guardISt5mutexEC2ERS0_
FNDA:2100,_ZNSt10lock_guardISt5mutexED2Ev
FNDA:1,_ZNSt12__mutex_baseC2Ev
FNF:6
FNH:6
DA:67,1
DA:104,1
DA:111,19017
DA:113,19017
DA:116,19017
DA:117,0
DA:118,19017
DA:129,19017
DA:132,19017
DA:133,19017
DA:249,2100
DA:250,2100
DA:256,2100
DA:257,2100
LF:14
LH:13
end_of_record
TN:
SF:/usr/include/c++/14.2.1/bits/std_thread.h
FN:101,101,_ZNSt6thread2idC2Ev
FN:152,157,_ZNSt6thread24_M_thread_deps_never_runEv
FN:163,176,_ZNSt6threadC2IRMN6BICYCL8CL_HSM2kEKFvRNS1_3QFIERKNS1_3MpzEEJRKS2_St17reference_wrapperIS3_ESD_IS6_EEvEEOT_DpOT0_
FN:163,176,_ZNSt6threadC2IRMN6BICYCL8CL_HSMqkEKFvRNS1_3QFIERKNS1_3MpzEEJRKS2_St17reference_wrapperIS3_ESD_IS6_EEvEEOT_DpOT0_
FN:163,176,_ZNSt6threadC2IZN10ThreadPoolC4EmEUlvE_JEvEEOT_DpOT0_
FN:179,183,_ZNSt6threadD2Ev
FN:187,188,_ZNSt6threadC2EOS_
FN:201,202,_ZNSt6thread4swapERS_
FN:205,206,_ZNKSt6thread8joinableEv
FN:248,250,_ZNSt6thread11_State_implINS_8_InvokerISt5tupleIJMN6BICYCL8CL_HSM2kEKFvRNS3_3QFIERKNS3_3MpzEES4_St17reference_wrapperIS5_ESC_IS8_EEEEEEC2IJRSB_RKS4_SD_SE_EEEDpOT_
FN:248,250,_ZNSt6thread11_State_implINS_8_InvokerISt5tupleIJMN6BICYCL8CL_HSMqkEKFvRNS3_3QFIERKNS3_3MpzEES4_St17reference_wrapperIS5_ESC_IS8_EEEEEEC2IJRSB_RKS4_SD_SE_EEEDpOT_
FN:248,250,_ZNSt6thread11_State_implINS_8_InvokerISt5tupleIJZN10ThreadPoolC4EmEUlvE_EEEEEC2IJS4_EEEDpOT_
FN:253,253,_ZNSt6thread11_State_implINS_8_InvokerISt5tupleIJMN6BICYCL8CL_HSM2kEKFvRNS3_3QFIERKNS3_3MpzEES4_St17reference_wrapperIS5_ESC_IS8_EEEEEE6_M_runEv
FN:253,253,_ZNSt6thread11_State_implINS_8_InvokerISt5tupleIJMN6BICYCL8CL_HSMqkEKFvRNS3_3QFIERKNS3_3MpzEES4_St17reference_wrapperIS5_ESC_IS8_EEEEEE6_M_runEv
FN:253,253,_ZNSt6thread11_State_implINS_8_InvokerISt5tupleIJZN10ThreadPoolC4EmEUlvE_EEEEE6_M_runEv
FN:285,287,_ZNSt6thread8_InvokerISt5tupleIJMN6BICYCL8CL_HSM2kEKFvRNS2_3QFIERKNS2_3MpzEES3_St17reference_wrapperIS4_ESB_IS7_EEEEC2IJRSA_RKS3_SC_SD_EEEDpOT_
FN:285,287,_ZNSt6thread8_InvokerISt5tupleIJMN6BICYCL8CL_HSMqkEKFvRNS2_3QFIERKNS2_3MpzEES3_St17reference_wrapperIS4_ESB_IS7_EEEEC2IJRSA_RKS3_SC_SD_EEEDpOT_
FN:285,287,_ZNSt6thread8_InvokerISt5tupleIJZN10ThreadPoolC4EmEUlvE_EEEC2IJS3_EEEDpOT_
FN:300,301,_ZNSt6thread8_InvokerISt5tupleIJMN6BICYCL8CL_HSM2kEKFvRNS2_3QFIERKNS2_3MpzEES3_St17reference_wrapperIS4_ESB_IS7_EEEE9_M_invokeIJLm0ELm1ELm2ELm3EEEEvSt12_Index_tupleIJXspT_EEE
FN:300,301,_ZNSt6thread8_InvokerISt5tupleIJMN6BICYCL8CL_HSMqkEKFvRNS2_3QFIERKNS2_3MpzEES3_St17reference_wrapperIS4_ESB_IS7_EEEE9_M_invokeIJLm0ELm1ELm2ELm3EEEEvSt12_Index_tupleIJXspT_EEE
FN:300,301,_ZNSt6thread8_InvokerISt5tupleIJZN10ThreadPoolC4EmEUlvE_EEE9_M_invokeIJLm0EEEEvSt12_Index_tupleIJXspT_EEE
FN:304,309,_ZNSt6thread8_InvokerISt5tupleIJMN6BICYCL8CL_HSM2kEKFvRNS2_3QFIERKNS2_3MpzEES3_St17reference_wrapperIS4_ESB_IS7_EEEEclEv
FN:304,309,_ZNSt6thread8_InvokerISt5tupleIJMN6BICYCL8CL_HSMqkEKFvRNS2_3QFIERKNS2_3MpzEES3_St17reference_wrapperIS4_ESB_IS7_EEEEclEv
FN:304,309,_ZNSt6thread8_InvokerISt5tupleIJZN10ThreadPoolC4EmEUlvE_EEEclEv
FN:333,340,_ZSteqNSt6thread2idES0_
FNDA:33662,_ZNSt6thread2idC2Ev
FNDA:0,_ZNSt6thread24_M_thread_deps_never_runEv
FNDA:0,_ZNSt6threadC2IRMN6BICYCL8CL_HSM2kEKFvRNS1_3QFIERKNS1_3MpzEEJRKS2_St17reference_wrapperIS3_ESD_IS6_EEvEEOT_DpOT0_
FNDA:16804,_ZNSt6threadC2IRMN6BICYCL8CL_HSMqkEKFvRNS1_3QFIERKNS1_3MpzEEJRKS2_St17reference_wrapperIS3_ESD_IS6_EEvEEOT_DpOT0_
FNDA:12,_ZNSt6threadC2IZN10ThreadPoolC4EmEUlvE_JEvEEOT_DpOT0_
FNDA:16831,_ZNSt6threadD2Ev
FNDA:15,_ZNSt6threadC2EOS_
FNDA:15,_ZNSt6thread4swapERS_
FNDA:16831,_ZNKSt6thread8joinableEv
FNDA:0,_ZNSt6thread11_State_implINS_8_InvokerISt5tupleIJMN6BICYCL8CL_HSM2kEKFvRNS3_3QFIERKNS3_3MpzEES4_St17reference_wrapperIS5_ESC_IS8_EEEEEEC2IJRSB_RKS4_SD_SE_EEEDpOT_
FNDA:16804,_ZNSt6thread11_State_implINS_8_InvokerISt5tupleIJMN6BICYCL8CL_HSMqkEKFvRNS3_3QFIERKNS3_3MpzEES4_St17reference_wrapperIS5_ESC_IS8_EEEEEEC2IJRSB_RKS4_SD_SE_EEEDpOT_
FNDA:12,_ZNSt6thread11_State_implINS_8_InvokerISt5tupleIJZN10ThreadPoolC4EmEUlvE_EEEEEC2IJS4_EEEDpOT_
FNDA:0,_ZNSt6thread11_State_implINS_8_InvokerISt5tupleIJMN6BICYCL8CL_HSM2kEKFvRNS3_3QFIERKNS3_3MpzEES4_St17reference_wrapperIS5_ESC_IS8_EEEEEE6_M_runEv
FNDA:16804,_ZNSt6thread11_State_implINS_8_InvokerISt5tupleIJMN6BICYCL8CL_HSMqkEKFvRNS3_3QFIERKNS3_3MpzEES4_St17reference_wrapperIS5_ESC_IS8_EEEEEE6_M_runEv
FNDA:12,_ZNSt6thread11_State_implINS_8_InvokerISt5tupleIJZN10ThreadPoolC4EmEUlvE_EEEEE6_M_runEv
FNDA:0,_ZNSt6thread8_InvokerISt5tupleIJMN6BICYCL8CL_HSM2kEKFvRNS2_3QFIERKNS2_3MpzEES3_St17reference_wrapperIS4_ESB_IS7_EEEEC2IJRSA_RKS3_SC_SD_EEEDpOT_
FNDA:16804,_ZNSt6thread8_InvokerISt5tupleIJMN6BICYCL8CL_HSMqkEKFvRNS2_3QFIERKNS2_3MpzEES3_St17reference_wrapperIS4_ESB_IS7_EEEEC2IJRSA_RKS3_SC_SD_EEEDpOT_
FNDA:12,_ZNSt6thread8_InvokerISt5tupleIJZN10ThreadPoolC4EmEUlvE_EEEC2IJS3_EEEDpOT_
FNDA:0,_ZNSt6thread8_InvokerISt5tupleIJMN6BICYCL8CL_HSM2kEKFvRNS2_3QFIERKNS2_3MpzEES3_St17reference_wrapperIS4_ESB_IS7_EEEE9_M_invokeIJLm0ELm1ELm2ELm3EEEEvSt12_Index_tupleIJXspT_EEE
FNDA:16804,_ZNSt6thread8_InvokerISt5tupleIJMN6BICYCL8CL_HSMqkEKFvRNS2_3QFIERKNS2_3MpzEES3_St17reference_wrapperIS4_ESB_IS7_EEEE9_M_invokeIJLm0ELm1ELm2ELm3EEEEvSt12_Index_tupleIJXspT_EEE
FNDA:12,_ZNSt6thread8_InvokerISt5tupleIJZN10ThreadPoolC4EmEUlvE_EEE9_M_invokeIJLm0EEEEvSt12_Index_tupleIJXspT_EEE
FNDA:0,_ZNSt6thread8_InvokerISt5tupleIJMN6BICYCL8CL_HSM2kEKFvRNS2_3QFIERKNS2_3MpzEES3_St17reference_wrapperIS4_ESB_IS7_EEEEclEv
FNDA:16804,_ZNSt6thread8_InvokerISt5tupleIJMN6BICYCL8CL_HSMqkEKFvRNS2_3QFIERKNS2_3MpzEES3_St17reference_wrapperIS4_ESB_IS7_EEEEclEv
FNDA:12,_ZNSt6thread8_InvokerISt5tupleIJZN10ThreadPoolC4EmEUlvE_EEEclEv
FNDA:16831,_ZSteqNSt6thread2idES0_
FNF:25
FNH:18
DA:101,33662
DA:152,0
DA:157,0
DA:163,16816
DA:164,16816
DA:173,16816
DA:176,16816
DA:179,16831
DA:181,16831
DA:183,16831
DA:187,15
DA:188,15
DA:201,15
DA:202,15
DA:205,16831
DA:206,16831
DA:248,16816
DA:249,16816
DA:250,16816
DA:253,16816
DA:285,16816
DA:286,16816
DA:287,16816
DA:300,16816
DA:301,16816
DA:304,16816
DA:308,16816
DA:333,16831
DA:339,16831
LF:29
LH:27
end_of_record
TN:
SF:/usr/include/c++/14.2.1/bits/stl_algobase.h
FN:1040,1040,_ZSt17__size_to_integerm
FN:1140,1153,_ZSt10__fill_n_aIPhmhET_S1_T0_RKT1_St26random_access_iterator_tag
FN:1175,1182,_ZSt6fill_nIPhmhET_S1_T0_RKT1_
FN:233,241,_ZSt3minImERKT_S2_S2_
FN:257,265,_ZSt3maxImERKT_S2_S2_
FN:316,318,_ZSt12__niter_baseIPNSt7__cxx1112basic_stringIcSt11char_traitsIcESaIcEEEET_S7_
FN:316,318,_ZSt12__niter_baseIPPSt8functionIFvvEEET_S5_
FN:316,318,_ZSt12__niter_baseIPSt6threadET_S2_
FN:316,318,_ZSt12__niter_baseIPhET_S1_
FN:353,354,_ZSt12__niter_wrapIPPSt8functionIFvvEEET_RKS5_S5_
FN:412,413,_ZNSt11__copy_moveILb0ELb0ESt26random_access_iterator_tagE12__assign_oneIPSt8functionIFvvEES6_EEvPT_PT0_
FN:448,457,_ZNSt11__copy_moveILb0ELb1ESt26random_access_iterator_tagE8__copy_mIPSt8functionIFvvEES6_EEPT0_PT_SA_S8_
FN:512,522,_ZSt14__copy_move_a2ILb0EPPSt8functionIFvvEES4_ET1_T0_S6_S5_
FN:547,548,_ZSt14__copy_move_a1ILb0EPPSt8functionIFvvEES4_ET1_T0_S6_S5_
FN:553,559,_ZSt13__copy_move_aILb0EPPSt8functionIFvvEES4_ET1_T0_S6_S5_
FN:642,652,_ZSt4copyIPPSt8functionIFvvEES4_ET0_T_S6_S5_
FN:762,771,_ZNSt20__copy_move_backwardILb0ELb1ESt26random_access_iterator_tagE13__copy_move_bIPSt8functionIFvvEES6_EEPT0_PT_SA_S8_
FN:777,790,_ZSt23__copy_move_backward_a2ILb0EPPSt8functionIFvvEES4_ET1_T0_S6_S5_
FN:795,796,_ZSt23__copy_move_backward_a1ILb0EPPSt8functionIFvvEES4_ET1_T0_S6_S5_
FN:823,829,_ZSt22__copy_move_backward_aILb0EPPSt8functionIFvvEES4_ET1_T0_S6_S5_
FN:878,889,_ZSt13copy_backwardIPPSt8functionIFvvEES4_ET0_T_S6_S5_
FN:960,973,_ZSt9__fill_a1IhEN9__gnu_cxx11__enable_ifIXsrSt9__is_byteIT_E7__valueEvE6__typeEPS3_S7_RKS3_
FN:997,998,_ZSt8__fill_aIPhhEvT_S1_RKT0_
FNDA:33616,_ZSt17__size_to_integerm
FNDA:33616,_ZSt10__fill_n_aIPhmhET_S1_T0_RKT1_St26random_access_iterator_tag
FNDA:33616,_ZSt6fill_nIPhmhET_S1_T0_RKT1_
FNDA:34259,_ZSt3minImERKT_S2_S2_
FNDA:33654,_ZSt3maxImERKT_S2_S2_
FNDA:3,_ZSt12__niter_baseIPNSt7__cxx1112basic_stringIcSt11char_traitsIcESaIcEEEET_S7_
FNDA:27,_ZSt12__niter_baseIPPSt8functionIFvvEEET_S5_
FNDA:15,_ZSt12__niter_baseIPSt6threadET_S2_
FNDA:0,_ZSt12__niter_baseIPhET_S1_
FNDA:9,_ZSt12__niter_wrapIPPSt8functionIFvvEEET_RKS5_S5_
FNDA:0,_ZNSt11__copy_moveILb0ELb0ESt26random_access_iterator_tagE12__assign_oneIPSt8functionIFvvEES6_EEvPT_PT0_
FNDA:9,_ZNSt11__copy_moveILb0ELb1ESt26random_access_iterator_tagE8__copy_mIPSt8functionIFvvEES6_EEPT0_PT_SA_S8_
FNDA:9,_ZSt14__copy_move_a2ILb0EPPSt8functionIFvvEES4_ET1_T0_S6_S5_
FNDA:9,_ZSt14__copy_move_a1ILb0EPPSt8functionIFvvEES4_ET1_T0_S6_S5_
FNDA:9,_ZSt13__copy_move_aILb0EPPSt8functionIFvvEES4_ET1_T0_S6_S5_
FNDA:9,_ZSt4copyIPPSt8functionIFvvEES4_ET0_T_S6_S5_
FNDA:0,_ZNSt20__copy_move_backwardILb0ELb1ESt26random_access_iterator_tagE13__copy_move_bIPSt8functionIFvvEES6_EEPT0_PT_SA_S8_
FNDA:0,_ZSt23__copy_move_backward_a2ILb0EPPSt8functionIFvvEES4_ET1_T0_S6_S5_
FNDA:0,_ZSt23__copy_move_backward_a1ILb0EPPSt8functionIFvvEES4_ET1_T0_S6_S5_
FNDA:0,_ZSt22__copy_move_backward_aILb0EPPSt8functionIFvvEES4_ET1_T0_S6_S5_
FNDA:0,_ZSt13copy_backwardIPPSt8functionIFvvEES4_ET0_T_S6_S5_
FNDA:33616,_ZSt9__fill_a1IhEN9__gnu_cxx11__enable_ifIXsrSt9__is_byteIT_E7__valueEvE6__typeEPS3_S7_RKS3_
FNDA:33616,_ZSt8__fill_aIPhhEvT_S1_RKT0_
FNF:23
FNH:16
DA:233,34259
DA:238,34259
DA:239,529
DA:240,33730
DA:257,33654
DA:262,33654
DA:263,9805
DA:264,23849
DA:316,45
DA:318,45
DA:353,9
DA:354,9
DA:412,0
DA:413,0
DA:448,9
DA:450,9
DA:451,9
DA:452,9
DA:453,0
DA:455,0
DA:456,9
DA:512,9
DA:521,9
DA:547,9
DA:548,9
DA:553,9
DA:555,9
DA:558,9
DA:642,9
DA:651,9
DA:762,0
DA:764,0
DA:765,0
DA:766,0
DA:767,0
DA:769,0
DA:770,0
DA:777,0
DA:787,0
DA:789,0
DA:795,0
DA:796,0
DA:823,0
DA:825,0
DA:828,0
DA:878,0
DA:888,0
DA:960,33616
DA:962,33616
DA:971,33616
DA:972,33616
DA:973,33616
DA:997,33616
DA:998,33616
DA:1040,33616
DA:1140,33616
DA:1146,33616
DA:1147,0
DA:1151,33616
DA:1152,33616
DA:1175,33616
DA:1180,33616
DA:1181,67232
LF:63
LH:41
end_of_record
TN:
SF:/usr/include/c++/14.2.1/bits/stl_construct.h
FN:109,120,_ZSt10_ConstructI4UserJEEvPT_DpOT0_
FN:109,120,_ZSt10_ConstructI9ValidatorJEEvPT_DpOT0_
FN:109,120,_ZSt10_ConstructISt5tupleIJN6BICYCL6_Utils17CL_HSM_CipherTextINS1_8CL_HSMqkEEE11curve_pointEEJRKS7_EEvPT_DpOT0_
FN:109,120,_ZSt10_ConstructISt5tupleIJN6BICYCL6_Utils17CL_HSM_CipherTextINS1_8CL_HSMqkEEES5_S5_EEJRKS6_EEvPT_DpOT0_
FN:109,120,_ZSt10_ConstructIhJEEvPT_DpOT0_
FN:146,153,_ZSt8_DestroyI4UserEvPT_
FN:146,153,_ZSt8_DestroyI9ValidatorEvPT_
FN:146,153,_ZSt8_DestroyINSt7__cxx1112basic_stringIcSt11char_traitsIcESaIcEEEEvPT_
FN:146,153,_ZSt8_DestroyISt5tupleIJN6BICYCL6_Utils17CL_HSM_CipherTextINS1_8CL_HSMqkEEE11curve_pointEEEvPT_
FN:146,153,_ZSt8_DestroyISt5tupleIJN6BICYCL6_Utils17CL_HSM_CipherTextINS1_8CL_HSMqkEEES5_S5_EEEvPT_
FN:146,153,_ZSt8_DestroyISt6threadEvPT_
FN:146,153,_ZSt8_DestroyISt8functionIFvvEEEvPT_
FN:160,164,_ZNSt12_Destroy_auxILb0EE9__destroyIP4UserEEvT_S4_
FN:160,164,_ZNSt12_Destroy_auxILb0EE9__destroyIP9ValidatorEEvT_S4_
FN:160,164,_ZNSt12_Destroy_auxILb0EE9__destroyIPNSt7__cxx1112basic_stringIcSt11char_traitsIcESaIcEEEEEvT_S9_
FN:160,164,_ZNSt12_Destroy_auxILb0EE9__destroyIPSt5tupleIJN6BICYCL6_Utils17CL_HSM_CipherTextINS3_8CL_HSMqkEEE11curve_pointEEEEvT_SB_
FN:160,164,_ZNSt12_Destroy_auxILb0EE9__destroyIPSt5tupleIJN6BICYCL6_Utils17CL_HSM_CipherTextINS3_8CL_HSMqkEEES7_S7_EEEEvT_SA_
FN:160,164,_ZNSt12_Destroy_auxILb0EE9__destroyIPSt6threadEEvT_S4_
FN:160,164,_ZNSt12_Destroy_auxILb0EE9__destroyIPSt8functionIFvvEEEEvT_S6_
FN:172,172,_ZNSt12_Destroy_auxILb1EE9__destroyIPhEEvT_S3_
FN:182,197,_ZSt8_DestroyIP4UserEvT_S2_
FN:182,197,_ZSt8_DestroyIP9ValidatorEvT_S2_
FN:182,197,_ZSt8_DestroyIPNSt7__cxx1112basic_stringIcSt11char_traitsIcESaIcEEEEvT_S7_
FN:182,197,_ZSt8_DestroyIPSt5tupleIJN6BICYCL6_Utils17CL_HSM_CipherTextINS1_8CL_HSMqkEEE11curve_pointEEEvT_S9_
FN:182,197,_ZSt8_DestroyIPSt5tupleIJN6BICYCL6_Utils17CL_HSM_CipherTextINS1_8CL_HSMqkEEES5_S5_EEEvT_S8_
FN:182,197,_ZSt8_DestroyIPSt6threadEvT_S2_
FN:182,197,_ZSt8_DestroyIPSt8functionIFvvEEEvT_S4_
FN:182,197,_ZSt8_DestroyIPhEvT_S1_
FNDA:100,_ZSt10_ConstructI4UserJEEvPT_DpOT0_
FNDA:2000,_ZSt10_ConstructI9ValidatorJEEvPT_DpOT0_
FNDA:4147,_ZSt10_ConstructISt5tupleIJN6BICYCL6_Utils17CL_HSM_CipherTextINS1_8CL_HSMqkEEE11curve_pointEEJRKS7_EEvPT_DpOT0_
FNDA:4095,_ZSt10_ConstructISt5tupleIJN6BICYCL6_Utils17CL_HSM_CipherTextINS1_8CL_HSMqkEEES5_S5_EEJRKS6_EEvPT_DpOT0_
FNDA:33616,_ZSt10_ConstructIhJEEvPT_DpOT0_
FNDA:100,_ZSt8_DestroyI4UserEvPT_
FNDA:2000,_ZSt8_DestroyI9ValidatorEvPT_
FNDA:1,_ZSt8_DestroyINSt7__cxx1112basic_stringIcSt11char_traitsIcESaIcEEEEvPT_
FNDA:6259,_ZSt8_DestroyISt5tupleIJN6BICYCL6_Utils17CL_HSM_CipherTextINS1_8CL_HSMqkEEE11curve_pointEEEvPT_
FNDA:6207,_ZSt8_DestroyISt5tupleIJN6BICYCL6_Utils17CL_HSM_CipherTextINS1_8CL_HSMqkEEES5_S5_EEEvPT_
FNDA:12,_ZSt8_DestroyISt6threadEvPT_
FNDA:0,_ZSt8_DestroyISt8functionIFvvEEEvPT_
FNDA:1,_ZNSt12_Destroy_auxILb0EE9__destroyIP4UserEEvT_S4_
FNDA:1,_ZNSt12_Destroy_auxILb0EE9__destroyIP9ValidatorEEvT_S4_
FNDA:1,_ZNSt12_Destroy_auxILb0EE9__destroyIPNSt7__cxx1112basic_stringIcSt11char_traitsIcESaIcEEEEEvT_S9_
FNDA:19,_ZNSt12_Destroy_auxILb0EE9__destroyIPSt5tupleIJN6BICYCL6_Utils17CL_HSM_CipherTextINS3_8CL_HSMqkEEE11curve_pointEEEEvT_SB_
FNDA:16,_ZNSt12_Destroy_auxILb0EE9__destroyIPSt5tupleIJN6BICYCL6_Utils17CL_HSM_CipherTextINS3_8CL_HSMqkEEES7_S7_EEEEvT_SA_
FNDA:1,_ZNSt12_Destroy_auxILb0EE9__destroyIPSt6threadEEvT_S4_
FNDA:1,_ZNSt12_Destroy_auxILb0EE9__destroyIPSt8functionIFvvEEEEvT_S6_
FNDA:56499,_ZNSt12_Destroy_auxILb1EE9__destroyIPhEEvT_S3_
FNDA:1,_ZSt8_DestroyIP4UserEvT_S2_
FNDA:1,_ZSt8_DestroyIP9ValidatorEvT_S2_
FNDA:1,_ZSt8_DestroyIPNSt7__cxx1112basic_stringIcSt11char_traitsIcESaIcEEEEvT_S7_
FNDA:19,_ZSt8_DestroyIPSt5tupleIJN6BICYCL6_Utils17CL_HSM_CipherTextINS1_8CL_HSMqkEEE11curve_pointEEEvT_S9_
FNDA:16,_ZSt8_DestroyIPSt5tupleIJN6BICYCL6_Utils17CL_HSM_CipherTextINS1_8CL_HSMqkEEES5_S5_EEEvT_S8_
FNDA:1,_ZSt8_DestroyIPSt6threadEvT_S2_
FNDA:1,_ZSt8_DestroyIPSt8functionIFvvEEEvT_S4_
FNDA:56499,_ZSt8_DestroyIPhEvT_S1_
FNF:28
FNH:27
DA:109,43958
DA:119,43958
DA:120,43958
DA:146,14579
DA:151,14579
DA:153,14579
DA:160,40
DA:162,14619
DA:163,14579
DA:164,40
DA:172,56499
DA:182,56539
DA:196,56539
DA:197,56539
LF:14
LH:14
end_of_record
TN:
SF:/usr/include/c++/14.2.1/bits/stl_deque.h
FN:1027,1028,_ZNSt5dequeISt8functionIFvvEESaIS2_EED2Ev
FN:1151,1152,_ZNSt5dequeISt8functionIFvvEESaIS2_EE5beginEv
FN:1170,1171,_ZNSt5dequeISt8functionIFvvEESaIS2_EE3endEv
FN:1268,1269,_ZNKSt5dequeISt8functionIFvvEESaIS2_EE4sizeEv
FN:1274,1275,_ZNKSt5dequeISt8functionIFvvEESaIS2_EE8max_sizeEv
FN:131,132,_ZNSt15_Deque_iteratorISt8functionIFvvEERS2_PS2_E14_S_buffer_sizeEv
FN:1347,1348,_ZNKSt5dequeISt8functionIFvvEESaIS2_EE5emptyEv
FN:1444,1448,_ZNSt5dequeISt8functionIFvvEESaIS2_EE5frontEv
FN:1468,1474,_ZNSt5dequeISt8functionIFvvEESaIS2_EE4backEv
FN:151,152,_ZNSt15_Deque_iteratorISt8functionIFvvEERS2_PS2_EC2Ev
FN:1574,1586,_ZNSt5dequeISt8functionIFvvEESaIS2_EE9pop_frontEv
FN:168,170,_ZNSt15_Deque_iteratorISt8functionIFvvEERS2_PS2_EC2ERKS5_
FN:181,182,_ZNKSt15_Deque_iteratorISt8functionIFvvEERS2_PS2_EdeEv
FN:1876,1881,_ZNSt5dequeISt8functionIFvvEESaIS2_EE11_S_max_sizeERKS3_
FN:2087,2092,_ZNSt5dequeISt8functionIFvvEESaIS2_EE15_M_destroy_dataESt15_Deque_iteratorIS2_RS2_PS2_ES8_RKS3_
FN:210,219,_ZNSt15_Deque_iteratorISt8functionIFvvEERS2_PS2_EmmEv
FN:2168,2173,_ZNSt5dequeISt8functionIFvvEESaIS2_EE22_M_reserve_map_at_backEm
FN:263,268,_ZNSt15_Deque_iteratorISt8functionIFvvEERS2_PS2_E11_M_set_nodeEPS4_
FN:272,273,_ZSteqRKSt15_Deque_iteratorISt8functionIFvvEERS2_PS2_ES7_
FN:370,376,_ZStmiRKSt15_Deque_iteratorISt8functionIFvvEERS2_PS2_ES7_
FN:458,460,_ZNSt11_Deque_baseISt8functionIFvvEESaIS2_EEC2Ev
FN:516,518,_ZNSt11_Deque_baseISt8functionIFvvEESaIS2_EE16_Deque_impl_dataC2Ev
FN:545,548,_ZNSt11_Deque_baseISt8functionIFvvEESaIS2_EE11_Deque_implC2Ev
FN:568,569,_ZNSt11_Deque_baseISt8functionIFvvEESaIS2_EE19_M_get_Tp_allocatorEv
FN:572,573,_ZNKSt11_Deque_baseISt8functionIFvvEESaIS2_EE19_M_get_Tp_allocatorEv
FN:576,577,_ZNKSt11_Deque_baseISt8functionIFvvEESaIS2_EE20_M_get_map_allocatorEv
FN:580,584,_ZNSt11_Deque_baseISt8functionIFvvEESaIS2_EE16_M_allocate_nodeEv
FN:587,591,_ZNSt11_Deque_baseISt8functionIFvvEESaIS2_EE18_M_deallocate_nodeEPS2_
FN:594,598,_ZNSt11_Deque_baseISt8functionIFvvEESaIS2_EE15_M_allocate_mapEm
FN:601,605,_ZNSt11_Deque_baseISt8functionIFvvEESaIS2_EE17_M_deallocate_mapEPPS2_m
FN:617,626,_ZNSt11_Deque_baseISt8functionIFvvEESaIS2_EED2Ev
FN:638,673,_ZNSt11_Deque_baseISt8functionIFvvEESaIS2_EE17_M_initialize_mapEm
FN:677,691,_ZNSt11_Deque_baseISt8functionIFvvEESaIS2_EE15_M_create_nodesEPPS2_S6_
FN:695,701,_ZNSt11_Deque_baseISt8functionIFvvEESaIS2_EE16_M_destroy_nodesEPPS2_S6_
FN:828,829,_ZNSt5dequeISt8functionIFvvEESaIS2_EE14_S_buffer_sizeEv
FN:855,855,_ZNSt5dequeISt8functionIFvvEESaIS2_EEC2Ev
FN:96,98,_ZSt16__deque_buf_sizem
FNDA:1,_ZNSt5dequeISt8functionIFvvEESaIS2_EED2Ev
FNDA:8449,_ZNSt5dequeISt8functionIFvvEESaIS2_EE5beginEv
FNDA:8449,_ZNSt5dequeISt8functionIFvvEESaIS2_EE3endEv
FNDA:528,_ZNKSt5dequeISt8functionIFvvEESaIS2_EE4sizeEv
FNDA:528,_ZNKSt5dequeISt8functionIFvvEESaIS2_EE8max_sizeEv
FNDA:2132,_ZNSt15_Deque_iteratorISt8functionIFvvEERS2_PS2_E14_S_buffer_sizeEv
FNDA:16994,_ZNKSt5dequeISt8functionIFvvEESaIS2_EE5emptyEv
FNDA:8448,_ZNSt5dequeISt8functionIFvvEESaIS2_EE5frontEv
FNDA:8448,_ZNSt5dequeISt8functionIFvvEESaIS2_EE4backEv
FNDA:2,_ZNSt15_Deque_iteratorISt8functionIFvvEERS2_PS2_EC2Ev
FNDA:8448,_ZNSt5dequeISt8functionIFvvEESaIS2_EE9pop_frontEv
FNDA:16900,_ZNSt15_Deque_iteratorISt8functionIFvvEERS2_PS2_EC2ERKS5_
FNDA:16896,_ZNKSt15_Deque_iteratorISt8functionIFvvEERS2_PS2_EdeEv
FNDA:528,_ZNSt5dequeISt8functionIFvvEESaIS2_EE11_S_max_sizeERKS3_
FNDA:1,_ZNSt5dequeISt8functionIFvvEESaIS2_EE15_M_destroy_dataESt15_Deque_iteratorIS2_RS2_PS2_ES8_RKS3_
FNDA:8448,_ZNSt15_Deque_iteratorISt8functionIFvvEERS2_PS2_EmmEv
FNDA:528,_ZNSt5dequeISt8functionIFvvEESaIS2_EE22_M_reserve_map_at_backEm
FNDA:1604,_ZNSt15_Deque_iteratorISt8functionIFvvEERS2_PS2_E11_M_set_nodeEPS4_
FNDA:16994,_ZSteqRKSt15_Deque_iteratorISt8functionIFvvEERS2_PS2_ES7_
FNDA:528,_ZStmiRKSt15_Deque_iteratorISt8functionIFvvEERS2_PS2_ES7_
FNDA:1,_ZNSt11_Deque_baseISt8functionIFvvEESaIS2_EEC2Ev
FNDA:1,_ZNSt11_Deque_baseISt8functionIFvvEESaIS2_EE16_Deque_impl_dataC2Ev
FNDA:1,_ZNSt11_Deque_baseISt8functionIFvvEESaIS2_EE11_Deque_implC2Ev
FNDA:8450,_ZNSt11_Deque_baseISt8functionIFvvEESaIS2_EE19_M_get_Tp_allocatorEv
FNDA:542,_ZNKSt11_Deque_baseISt8functionIFvvEESaIS2_EE19_M_get_Tp_allocatorEv
FNDA:14,_ZNKSt11_Deque_baseISt8functionIFvvEESaIS2_EE20_M_get_map_allocatorEv
FNDA:529,_ZNSt11_Deque_baseISt8functionIFvvEESaIS2_EE16_M_allocate_nodeEv
FNDA:529,_ZNSt11_Deque_baseISt8functionIFvvEESaIS2_EE18_M_deallocate_nodeEPS2_
FNDA:7,_ZNSt11_Deque_baseISt8functionIFvvEESaIS2_EE15_M_allocate_mapEm
FNDA:7,_ZNSt11_Deque_baseISt8functionIFvvEESaIS2_EE17_M_deallocate_mapEPPS2_m
FNDA:1,_ZNSt11_Deque_baseISt8functionIFvvEESaIS2_EED2Ev
FNDA:1,_ZNSt11_Deque_baseISt8functionIFvvEESaIS2_EE17_M_initialize_mapEm
FNDA:1,_ZNSt11_Deque_baseISt8functionIFvvEESaIS2_EE15_M_create_nodesEPPS2_S6_
FNDA:1,_ZNSt11_Deque_baseISt8functionIFvvEESaIS2_EE16_M_destroy_nodesEPPS2_S6_
FNDA:0,_ZNSt5dequeISt8functionIFvvEESaIS2_EE14_S_buffer_sizeEv
FNDA:1,_ZNSt5dequeISt8functionIFvvEESaIS2_EEC2Ev
FNDA:3192,_ZSt16__deque_buf_sizem
FNF:37
FNH:36
DA:96,3192
DA:98,3192
DA:131,2132
DA:132,2132
DA:151,2
DA:152,2
DA:168,16900
DA:169,16900
DA:170,16900
DA:181,16896
DA:182,16896
DA:210,8448
DA:212,8448
DA:214,528
DA:215,528
DA:217,8448
DA:218,8448
DA:263,1604
DA:265,1604
DA:266,1604
DA:267,1604
DA:268,1604
DA:272,16994
DA:273,16994
DA:370,528
DA:372,528
DA:373,528
DA:374,528
DA:375,528
DA:458,1
DA:459,1
DA:460,1
DA:516,1
DA:517,1
DA:518,1
DA:545,1
DA:547,1
DA:548,1
DA:568,8450
DA:569,8450
DA:572,542
DA:573,542
DA:576,14
DA:577,28
DA:580,529
DA:583,1058
DA:587,529
DA:590,529
DA:591,529
DA:594,7
DA:596,7
DA:597,14
DA:601,7
DA:603,7
DA:605,7
DA:617,1
DA:620,1
DA:622,1
DA:623,1
DA:624,1
DA:626,1
DA:638,1
DA:641,1
DA:644,2
DA:645,1
DA:646,1
DA:653,1
DA:654,1
DA:655,1
DA:658,1
DA:659,0
DA:661,0
DA:662,0
DA:663,0
DA:664,0
DA:667,1
DA:668,1
DA:669,1
DA:670,2
DA:671,1
DA:672,1
DA:673,1
DA:677,1
DA:683,2
DA:684,1
DA:686,0
DA:688,0
DA:689,0
DA:691,1
DA:695,1
DA:699,2
DA:700,1
DA:701,1
DA:828,0
DA:829,0
DA:855,1
DA:1027,1
DA:1028,1
DA:1151,8449
DA:1152,8449
DA:1170,8449
DA:1171,8449
DA:1268,528
DA:1269,528
DA:1274,528
DA:1275,528
DA:1347,16994
DA:1348,16994
DA:1444,8448
DA:1447,8448
DA:1468,8448
DA:1471,8448
DA:1472,8448
DA:1473,8448
DA:1574,8448
DA:1577,8448
DA:1578,8448
DA:1580,7920
DA:1582,7920
DA:1585,528
DA:1586,8448
DA:1876,528
DA:1878,528
DA:1879,528
DA:1880,528
DA:2087,1
DA:2091,1
DA:2092,1
DA:2168,528
DA:2170,528
DA:2171,528
DA:2172,9
DA:2173,528
LF:133
LH:123
end_of_record
TN:
SF:/usr/include/c++/14.2.1/bits/stl_function.h
FN:1179,1180,_ZNKSt10_Select1stISt4pairIKNSt7__cxx1112basic_stringIcSt11char_traitsIcESaIcEEESt5tupleIJP14PolicyContractN6BICYCL6_Utils16CL_HSM_PublicKeyINSB_8CL_HSMqkEEENSC_17CL_HSM_CipherTextISE_EES6_EEEEclERKSJ_
FN:1179,1180,_ZNKSt10_Select1stISt4pairIKNSt7__cxx1112basic_stringIcSt11char_traitsIcESaIcEEESt5tupleIJS6_N6BICYCL6_Utils16CL_HSM_ClearTextINS9_8CL_HSMqkEEEEEEEclERKSF_
FN:1179,1180,_ZNKSt10_Select1stISt4pairIKNSt7__cxx1112basic_stringIcSt11char_traitsIcESaIcEEESt5tupleIJS6_N6BICYCL6_Utils17CL_HSM_CipherTextINS9_8CL_HSMqkEEE11curve_pointS6_EEEEclERKSG_
FN:1179,1180,_ZNKSt10_Select1stISt4pairIKNSt7__cxx1112basic_stringIcSt11char_traitsIcESaIcEEESt5tupleIJS6_N6BICYCL6_Utils17CL_HSM_CipherTextINS9_8CL_HSMqkEEESD_SD_SD_EEEEclERKSF_
FN:404,405,_ZNKSt4lessINSt7__cxx1112basic_stringIcSt11char_traitsIcESaIcEEEEclERKS5_S8_
FNDA:31,_ZNKSt10_Select1stISt4pairIKNSt7__cxx1112basic_stringIcSt11char_traitsIcESaIcEEESt5tupleIJP14PolicyContractN6BICYCL6_Utils16CL_HSM_PublicKeyINSB_8CL_HSMqkEEENSC_17CL_HSM_CipherTextISE_EES6_EEEEclERKSJ_
FNDA:4,_ZNKSt10_Select1stISt4pairIKNSt7__cxx1112basic_stringIcSt11char_traitsIcESaIcEEESt5tupleIJS6_N6BICYCL6_Utils16CL_HSM_ClearTextINS9_8CL_HSMqkEEEEEEEclERKSF_
FNDA:22,_ZNKSt10_Select1stISt4pairIKNSt7__cxx1112basic_stringIcSt11char_traitsIcESaIcEEESt5tupleIJS6_N6BICYCL6_Utils17CL_HSM_CipherTextINS9_8CL_HSMqkEEE11curve_pointS6_EEEEclERKSG_
FNDA:10,_ZNKSt10_Select1stISt4pairIKNSt7__cxx1112basic_stringIcSt11char_traitsIcESaIcEEESt5tupleIJS6_N6BICYCL6_Utils17CL_HSM_CipherTextINS9_8CL_HSMqkEEESD_SD_SD_EEEEclERKSF_
FNDA:86,_ZNKSt4lessINSt7__cxx1112basic_stringIcSt11char_traitsIcESaIcEEEEclERKS5_S8_
FNF:5
FNH:5
DA:404,86
DA:405,86
DA:1179,67
DA:1180,67
LF:4
LH:4
end_of_record
TN:
SF:/usr/include/c++/14.2.1/bits/stl_iterator.h
FN:1067,1068,_ZN9__gnu_cxx17__normal_iteratorIP4UserSt6vectorIS1_SaIS1_EEEC2ERKS2_
FN:1067,1068,_ZN9__gnu_cxx17__normal_iteratorIP9ValidatorSt6vectorIS1_SaIS1_EEEC2ERKS2_
FN:1067,1068,_ZN9__gnu_cxx17__normal_iteratorIPKSt5tupleIJN6BICYCL6_Utils17CL_HSM_CipherTextINS2_8CL_HSMqkEEE11curve_pointEESt6vectorIS8_SaIS8_EEEC2ERKSA_
FN:1067,1068,_ZN9__gnu_cxx17__normal_iteratorIPNSt7__cxx1112basic_stringIcSt11char_traitsIcESaIcEEESt6vectorIS6_SaIS6_EEEC2ERKS7_
FN:1067,1068,_ZN9__gnu_cxx17__normal_iteratorIPSt5tupleIJN6BICYCL6_Utils17CL_HSM_CipherTextINS2_8CL_HSMqkEEE11curve_pointEESt6vectorIS8_SaIS8_EEEC2ERKS9_
FN:1067,1068,_ZN9__gnu_cxx17__normal_iteratorIPSt5tupleIJN6BICYCL6_Utils17CL_HSM_CipherTextINS2_8CL_HSMqkEEES6_S6_EESt6vectorIS7_SaIS7_EEEC2ERKS8_
FN:1067,1068,_ZN9__gnu_cxx17__normal_iteratorIPSt6threadSt6vectorIS1_SaIS1_EEEC2ERKS2_
FN:1090,1091,_ZNK9__gnu_cxx17__normal_iteratorIP4UserSt6vectorIS1_SaIS1_EEEdeEv
FN:1090,1091,_ZNK9__gnu_cxx17__normal_iteratorIP9ValidatorSt6vectorIS1_SaIS1_EEEdeEv
FN:1090,1091,_ZNK9__gnu_cxx17__normal_iteratorIPKSt5tupleIJN6BICYCL6_Utils17CL_HSM_CipherTextINS2_8CL_HSMqkEEE11curve_pointEESt6vectorIS8_SaIS8_EEEdeEv
FN:1090,1091,_ZNK9__gnu_cxx17__normal_iteratorIPNSt7__cxx1112basic_stringIcSt11char_traitsIcESaIcEEESt6vectorIS6_SaIS6_EEEdeEv
FN:1090,1091,_ZNK9__gnu_cxx17__normal_iteratorIPSt5tupleIJN6BICYCL6_Utils17CL_HSM_CipherTextINS2_8CL_HSMqkEEE11curve_pointEESt6vectorIS8_SaIS8_EEEdeEv
FN:1090,1091,_ZNK9__gnu_cxx17__normal_iteratorIPSt5tupleIJN6BICYCL6_Utils17CL_HSM_CipherTextINS2_8CL_HSMqkEEES6_S6_EESt6vectorIS7_SaIS7_EEEdeEv
FN:1090,1091,_ZNK9__gnu_cxx17__normal_iteratorIPSt6threadSt6vectorIS1_SaIS1_EEEdeEv
FN:1100,1104,_ZN9__gnu_cxx17__normal_iteratorIP4UserSt6vectorIS1_SaIS1_EEEppEv
FN:1100,1104,_ZN9__gnu_cxx17__normal_iteratorIP9ValidatorSt6vectorIS1_SaIS1_EEEppEv
FN:1100,1104,_ZN9__gnu_cxx17__normal_iteratorIPKSt5tupleIJN6BICYCL6_Utils17CL_HSM_CipherTextINS2_8CL_HSMqkEEE11curve_pointEESt6vectorIS8_SaIS8_EEEppEv
FN:1100,1104,_ZN9__gnu_cxx17__normal_iteratorIPNSt7__cxx1112basic_stringIcSt11char_traitsIcESaIcEEESt6vectorIS6_SaIS6_EEEppEv
FN:1100,1104,_ZN9__gnu_cxx17__normal_iteratorIPSt6threadSt6vectorIS1_SaIS1_EEEppEv
FN:1148,1149,_ZNK9__gnu_cxx17__normal_iteratorIPSt5tupleIJN6BICYCL6_Utils17CL_HSM_CipherTextINS2_8CL_HSMqkEEE11curve_pointEESt6vectorIS8_SaIS8_EEEmiEl
FN:1148,1149,_ZNK9__gnu_cxx17__normal_iteratorIPSt5tupleIJN6BICYCL6_Utils17CL_HSM_CipherTextINS2_8CL_HSMqkEEES6_S6_EESt6vectorIS7_SaIS7_EEEmiEl
FN:1148,1149,_ZNK9__gnu_cxx17__normal_iteratorIPSt6threadSt6vectorIS1_SaIS1_EEEmiEl
FN:1153,1154,_ZNK9__gnu_cxx17__normal_iteratorIP4UserSt6vectorIS1_SaIS1_EEE4baseEv
FN:1153,1154,_ZNK9__gnu_cxx17__normal_iteratorIP9ValidatorSt6vectorIS1_SaIS1_EEE4baseEv
FN:1153,1154,_ZNK9__gnu_cxx17__normal_iteratorIPKSt5tupleIJN6BICYCL6_Utils17CL_HSM_CipherTextINS2_8CL_HSMqkEEE11curve_pointEESt6vectorIS8_SaIS8_EEE4baseEv
FN:1153,1154,_ZNK9__gnu_cxx17__normal_iteratorIPNSt7__cxx1112basic_stringIcSt11char_traitsIcESaIcEEESt6vectorIS6_SaIS6_EEE4baseEv
FN:1153,1154,_ZNK9__gnu_cxx17__normal_iteratorIPSt5tupleIJN6BICYCL6_Utils17CL_HSM_CipherTextINS2_8CL_HSMqkEEE11curve_pointEESt6vectorIS8_SaIS8_EEE4baseEv
FN:1153,1154,_ZNK9__gnu_cxx17__normal_iteratorIPSt5tupleIJN6BICYCL6_Utils17CL_HSM_CipherTextINS2_8CL_HSMqkEEES6_S6_EESt6vectorIS7_SaIS7_EEE4baseEv
FN:1153,1154,_ZNK9__gnu_cxx17__normal_iteratorIPSt6threadSt6vectorIS1_SaIS1_EEE4baseEv
FN:1232,1235,_ZN9__gnu_cxxneIP4UserSt6vectorIS1_SaIS1_EEEEbRKNS_17__normal_iteratorIT_T0_EESB_
FN:1232,1235,_ZN9__gnu_cxxneIP9ValidatorSt6vectorIS1_SaIS1_EEEEbRKNS_17__normal_iteratorIT_T0_EESB_
FN:1232,1235,_ZN9__gnu_cxxneIPKSt5tupleIJN6BICYCL6_Utils17CL_HSM_CipherTextINS2_8CL_HSMqkEEE11curve_pointEESt6vectorIS8_SaIS8_EEEEbRKNS_17__normal_iteratorIT_T0_EESJ_
FN:1232,1235,_ZN9__gnu_cxxneIPNSt7__cxx1112basic_stringIcSt11char_traitsIcESaIcEEESt6vectorIS6_SaIS6_EEEEbRKNS_17__normal_iteratorIT_T0_EESG_
FN:1232,1235,_ZN9__gnu_cxxneIPSt6threadSt6vectorIS1_SaIS1_EEEEbRKNS_17__normal_iteratorIT_T0_EESB_
FN:1325,1328,_ZN9__gnu_cxxmiIPNSt7__cxx1112basic_stringIcSt11char_traitsIcESaIcEEESt6vectorIS6_SaIS6_EEEENS_17__normal_iteratorIT_T0_E15difference_typeERKSE_SH_
FN:1325,1328,_ZN9__gnu_cxxmiIPSt5tupleIJN6BICYCL6_Utils17CL_HSM_CipherTextINS2_8CL_HSMqkEEE11curve_pointEESt6vectorIS8_SaIS8_EEEENS_17__normal_iteratorIT_T0_E15difference_typeERKSG_SJ_
FN:1325,1328,_ZN9__gnu_cxxmiIPSt5tupleIJN6BICYCL6_Utils17CL_HSM_CipherTextINS2_8CL_HSMqkEEES6_S6_EESt6vectorIS7_SaIS7_EEEENS_17__normal_iteratorIT_T0_E15difference_typeERKSF_SI_
FN:1325,1328,_ZN9__gnu_cxxmiIPSt6threadSt6vectorIS1_SaIS1_EEEENS_17__normal_iteratorIT_T0_E15difference_typeERKS9_SC_
FN:1821,1822,_ZSt32__make_move_if_noexcept_iteratorISt5tupleIJN6BICYCL6_Utils17CL_HSM_CipherTextINS1_8CL_HSMqkEEE11curve_pointEEPKS7_ET0_PT_
FN:1821,1822,_ZSt32__make_move_if_noexcept_iteratorISt5tupleIJN6BICYCL6_Utils17CL_HSM_CipherTextINS1_8CL_HSMqkEEES5_S5_EEPKS6_ET0_PT_
FNDA:8,_ZN9__gnu_cxx17__normal_iteratorIP4UserSt6vectorIS1_SaIS1_EEEC2ERKS2_
FNDA:8,_ZN9__gnu_cxx17__normal_iteratorIP9ValidatorSt6vectorIS1_SaIS1_EEEC2ERKS2_
FNDA:4,_ZN9__gnu_cxx17__normal_iteratorIPKSt5tupleIJN6BICYCL6_Utils17CL_HSM_CipherTextINS2_8CL_HSMqkEEE11curve_pointEESt6vectorIS8_SaIS8_EEEC2ERKSA_
FNDA:4,_ZN9__gnu_cxx17__normal_iteratorIPNSt7__cxx1112basic_stringIcSt11char_traitsIcESaIcEEESt6vectorIS6_SaIS6_EEEC2ERKS7_
FNDA:4248,_ZN9__gnu_cxx17__normal_iteratorIPSt5tupleIJN6BICYCL6_Utils17CL_HSM_CipherTextINS2_8CL_HSMqkEEE11curve_pointEESt6vectorIS8_SaIS8_EEEC2ERKS9_
FNDA:4250,_ZN9__gnu_cxx17__normal_iteratorIPSt5tupleIJN6BICYCL6_Utils17CL_HSM_CipherTextINS2_8CL_HSMqkEEES6_S6_EESt6vectorIS7_SaIS7_EEEC2ERKS8_
FNDA:36,_ZN9__gnu_cxx17__normal_iteratorIPSt6threadSt6vectorIS1_SaIS1_EEEC2ERKS2_
FNDA:400,_ZNK9__gnu_cxx17__normal_iteratorIP4UserSt6vectorIS1_SaIS1_EEEdeEv
FNDA:8000,_ZNK9__gnu_cxx17__normal_iteratorIP9ValidatorSt6vectorIS1_SaIS1_EEEdeEv
FNDA:2100,_ZNK9__gnu_cxx17__normal_iteratorIPKSt5tupleIJN6BICYCL6_Utils17CL_HSM_CipherTextINS2_8CL_HSMqkEEE11curve_pointEESt6vectorIS8_SaIS8_EEEdeEv
FNDA:1,_ZNK9__gnu_cxx17__normal_iteratorIPNSt7__cxx1112basic_stringIcSt11char_traitsIcESaIcEEESt6vectorIS6_SaIS6_EEEdeEv
FNDA:2112,_ZNK9__gnu_cxx17__normal_iteratorIPSt5tupleIJN6BICYCL6_Utils17CL_HSM_CipherTextINS2_8CL_HSMqkEEE11curve_pointEESt6vectorIS8_SaIS8_EEEdeEv
FNDA:2112,_ZNK9__gnu_cxx17__normal_iteratorIPSt5tupleIJN6BICYCL6_Utils17CL_HSM_CipherTextINS2_8CL_HSMqkEEES6_S6_EESt6vectorIS7_SaIS7_EEEdeEv
FNDA:24,_ZNK9__gnu_cxx17__normal_iteratorIPSt6threadSt6vectorIS1_SaIS1_EEEdeEv
FNDA:400,_ZN9__gnu_cxx17__normal_iteratorIP4UserSt6vectorIS1_SaIS1_EEEppEv
FNDA:8000,_ZN9__gnu_cxx17__normal_iteratorIP9ValidatorSt6vectorIS1_SaIS1_EEEppEv
FNDA:2100,_ZN9__gnu_cxx17__normal_iteratorIPKSt5tupleIJN6BICYCL6_Utils17CL_HSM_CipherTextINS2_8CL_HSMqkEEE11curve_pointEESt6vectorIS8_SaIS8_EEEppEv
FNDA:1,_ZN9__gnu_cxx17__normal_iteratorIPNSt7__cxx1112basic_stringIcSt11char_traitsIcESaIcEEESt6vectorIS6_SaIS6_EEEppEv
FNDA:12,_ZN9__gnu_cxx17__normal_iteratorIPSt6threadSt6vectorIS1_SaIS1_EEEppEv
FNDA:2112,_ZNK9__gnu_cxx17__normal_iteratorIPSt5tupleIJN6BICYCL6_Utils17CL_HSM_CipherTextINS2_8CL_HSMqkEEE11curve_pointEESt6vectorIS8_SaIS8_EEEmiEl
FNDA:2112,_ZNK9__gnu_cxx17__normal_iteratorIPSt5tupleIJN6BICYCL6_Utils17CL_HSM_CipherTextINS2_8CL_HSMqkEEES6_S6_EESt6vectorIS7_SaIS7_EEEmiEl
FNDA:12,_ZNK9__gnu_cxx17__normal_iteratorIPSt6threadSt6vectorIS1_SaIS1_EEEmiEl
FNDA:808,_ZNK9__gnu_cxx17__normal_iteratorIP4UserSt6vectorIS1_SaIS1_EEE4baseEv
FNDA:16008,_ZNK9__gnu_cxx17__normal_iteratorIP9ValidatorSt6vectorIS1_SaIS1_EEE4baseEv
FNDA:4204,_ZNK9__gnu_cxx17__normal_iteratorIPKSt5tupleIJN6BICYCL6_Utils17CL_HSM_CipherTextINS2_8CL_HSMqkEEE11curve_pointEESt6vectorIS8_SaIS8_EEE4baseEv
FNDA:6,_ZNK9__gnu_cxx17__normal_iteratorIPNSt7__cxx1112basic_stringIcSt11char_traitsIcESaIcEEESt6vectorIS6_SaIS6_EEE4baseEv
FNDA:24,_ZNK9__gnu_cxx17__normal_iteratorIPSt5tupleIJN6BICYCL6_Utils17CL_HSM_CipherTextINS2_8CL_HSMqkEEE11curve_pointEESt6vectorIS8_SaIS8_EEE4baseEv
FNDA:26,_ZNK9__gnu_cxx17__normal_iteratorIPSt5tupleIJN6BICYCL6_Utils17CL_HSM_CipherTextINS2_8CL_HSMqkEEES6_S6_EESt6vectorIS7_SaIS7_EEE4baseEv
FNDA:36,_ZNK9__gnu_cxx17__normal_iteratorIPSt6threadSt6vectorIS1_SaIS1_EEE4baseEv
FNDA:404,_ZN9__gnu_cxxneIP4UserSt6vectorIS1_SaIS1_EEEEbRKNS_17__normal_iteratorIT_T0_EESB_
FNDA:8004,_ZN9__gnu_cxxneIP9ValidatorSt6vectorIS1_SaIS1_EEEEbRKNS_17__normal_iteratorIT_T0_EESB_
FNDA:2102,_ZN9__gnu_cxxneIPKSt5tupleIJN6BICYCL6_Utils17CL_HSM_CipherTextINS2_8CL_HSMqkEEE11curve_pointEESt6vectorIS8_SaIS8_EEEEbRKNS_17__normal_iteratorIT_T0_EESJ_
FNDA:2,_ZN9__gnu_cxxneIPNSt7__cxx1112basic_stringIcSt11char_traitsIcESaIcEEESt6vectorIS6_SaIS6_EEEEbRKNS_17__normal_iteratorIT_T0_EESG_
FNDA:13,_ZN9__gnu_cxxneIPSt6threadSt6vectorIS1_SaIS1_EEEEbRKNS_17__normal_iteratorIT_T0_EESB_
FNDA:1,_ZN9__gnu_cxxmiIPNSt7__cxx1112basic_stringIcSt11char_traitsIcESaIcEEESt6vectorIS6_SaIS6_EEEENS_17__normal_iteratorIT_T0_E15difference_typeERKSE_SH_
FNDA:12,_ZN9__gnu_cxxmiIPSt5tupleIJN6BICYCL6_Utils17CL_HSM_CipherTextINS2_8CL_HSMqkEEE11curve_pointEESt6vectorIS8_SaIS8_EEEENS_17__normal_iteratorIT_T0_E15difference_typeERKSG_SJ_
FNDA:13,_ZN9__gnu_cxxmiIPSt5tupleIJN6BICYCL6_Utils17CL_HSM_CipherTextINS2_8CL_HSMqkEEES6_S6_EESt6vectorIS7_SaIS7_EEEENS_17__normal_iteratorIT_T0_E15difference_typeERKSF_SI_
FNDA:5,_ZN9__gnu_cxxmiIPSt6threadSt6vectorIS1_SaIS1_EEEENS_17__normal_iteratorIT_T0_E15difference_typeERKS9_SC_
FNDA:28,_ZSt32__make_move_if_noexcept_iteratorISt5tupleIJN6BICYCL6_Utils17CL_HSM_CipherTextINS1_8CL_HSMqkEEE11curve_pointEEPKS7_ET0_PT_
FNDA:28,_ZSt32__make_move_if_noexcept_iteratorISt5tupleIJN6BICYCL6_Utils17CL_HSM_CipherTextINS1_8CL_HSMqkEEES5_S5_EEPKS6_ET0_PT_
FNF:40
FNH:40
DA:1067,8558
DA:1068,8558
DA:1090,14749
DA:1091,14749
DA:1100,10513
DA:1102,10513
DA:1103,10513
DA:1148,4236
DA:1149,4236
DA:1153,21112
DA:1154,21112
DA:1232,10525
DA:1235,10525
DA:1325,31
DA:1328,31
DA:1821,56
DA:1822,56
LF:17
LH:17
end_of_record
TN:
SF:/usr/include/c++/14.2.1/bits/stl_iterator_base_funcs.h
FNF:0
FNH:0
DA:106,4206
DA:151,8412
DA:152,8412
LF:3
LH:3
end_of_record
TN:
SF:/usr/include/c++/14.2.1/bits/stl_iterator_base_types.h
FNF:0
FNH:0
DA:240,37822
LF:1
LH:1
end_of_record
TN:
SF:/usr/include/c++/14.2.1/bits/stl_map.h
FN:1191,1192,_ZNKSt3mapINSt7__cxx1112basic_stringIcSt11char_traitsIcESaIcEEESt5tupleIJP14PolicyContractN6BICYCL6_Utils16CL_HSM_PublicKeyINS9_8CL_HSMqkEEENSA_17CL_HSM_CipherTextISC_EES5_EESt4lessIS5_ESaISt4pairIKS5_SG_EEE8key_compEv
FN:1191,1192,_ZNKSt3mapINSt7__cxx1112basic_stringIcSt11char_traitsIcESaIcEEESt5tupleIJS5_N6BICYCL6_Utils16CL_HSM_ClearTextINS7_8CL_HSMqkEEEEESt4lessIS5_ESaISt4pairIKS5_SC_EEE8key_compEv
FN:1191,1192,_ZNKSt3mapINSt7__cxx1112basic_stringIcSt11char_traitsIcESaIcEEESt5tupleIJS5_N6BICYCL6_Utils17CL_HSM_CipherTextINS7_8CL_HSMqkEEE11curve_pointS5_EESt4lessIS5_ESaISt4pairIKS5_SD_EEE8key_compEv
FN:1191,1192,_ZNKSt3mapINSt7__cxx1112basic_stringIcSt11char_traitsIcESaIcEEESt5tupleIJS5_N6BICYCL6_Utils17CL_HSM_CipherTextINS7_8CL_HSMqkEEESB_SB_SB_EESt4lessIS5_ESaISt4pairIKS5_SC_EEE8key_compEv
FN:1218,1219,_ZNSt3mapINSt7__cxx1112basic_stringIcSt11char_traitsIcESaIcEEESt5tupleIJP14PolicyContractN6BICYCL6_Utils16CL_HSM_PublicKeyINS9_8CL_HSMqkEEENSA_17CL_HSM_CipherTextISC_EES5_EESt4lessIS5_ESaISt4pairIKS5_SG_EEE4findERSK_
FN:1218,1219,_ZNSt3mapINSt7__cxx1112basic_stringIcSt11char_traitsIcESaIcEEESt5tupleIJS5_N6BICYCL6_Utils16CL_HSM_ClearTextINS7_8CL_HSMqkEEEEESt4lessIS5_ESaISt4pairIKS5_SC_EEE4findERSG_
FN:1218,1219,_ZNSt3mapINSt7__cxx1112basic_stringIcSt11char_traitsIcESaIcEEESt5tupleIJS5_N6BICYCL6_Utils17CL_HSM_CipherTextINS7_8CL_HSMqkEEE11curve_pointS5_EESt4lessIS5_ESaISt4pairIKS5_SD_EEE4findERSH_
FN:1218,1219,_ZNSt3mapINSt7__cxx1112basic_stringIcSt11char_traitsIcESaIcEEESt5tupleIJS5_N6BICYCL6_Utils17CL_HSM_CipherTextINS7_8CL_HSMqkEEESB_SB_SB_EESt4lessIS5_ESaISt4pairIKS5_SC_EEE4findERSG_
FN:1307,1308,_ZNSt3mapINSt7__cxx1112basic_stringIcSt11char_traitsIcESaIcEEESt5tupleIJP14PolicyContractN6BICYCL6_Utils16CL_HSM_PublicKeyINS9_8CL_HSMqkEEENSA_17CL_HSM_CipherTextISC_EES5_EESt4lessIS5_ESaISt4pairIKS5_SG_EEE11lower_boundERSK_
FN:1307,1308,_ZNSt3mapINSt7__cxx1112basic_stringIcSt11char_traitsIcESaIcEEESt5tupleIJS5_N6BICYCL6_Utils16CL_HSM_ClearTextINS7_8CL_HSMqkEEEEESt4lessIS5_ESaISt4pairIKS5_SC_EEE11lower_boundERSG_
FN:1307,1308,_ZNSt3mapINSt7__cxx1112basic_stringIcSt11char_traitsIcESaIcEEESt5tupleIJS5_N6BICYCL6_Utils17CL_HSM_CipherTextINS7_8CL_HSMqkEEE11curve_pointS5_EESt4lessIS5_ESaISt4pairIKS5_SD_EEE11lower_boundERSH_
FN:1307,1308,_ZNSt3mapINSt7__cxx1112basic_stringIcSt11char_traitsIcESaIcEEESt5tupleIJS5_N6BICYCL6_Utils17CL_HSM_CipherTextINS7_8CL_HSMqkEEESB_SB_SB_EESt4lessIS5_ESaISt4pairIKS5_SC_EEE11lower_boundERSG_
FN:197,197,_ZNSt3mapINSt7__cxx1112basic_stringIcSt11char_traitsIcESaIcEEESt5tupleIJP14PolicyContractN6BICYCL6_Utils16CL_HSM_PublicKeyINS9_8CL_HSMqkEEENSA_17CL_HSM_CipherTextISC_EES5_EESt4lessIS5_ESaISt4pairIKS5_SG_EEEC2Ev
FN:197,197,_ZNSt3mapINSt7__cxx1112basic_stringIcSt11char_traitsIcESaIcEEESt5tupleIJS5_N6BICYCL6_Utils16CL_HSM_ClearTextINS7_8CL_HSMqkEEEEESt4lessIS5_ESaISt4pairIKS5_SC_EEEC2Ev
FN:197,197,_ZNSt3mapINSt7__cxx1112basic_stringIcSt11char_traitsIcESaIcEEESt5tupleIJS5_N6BICYCL6_Utils17CL_HSM_CipherTextINS7_8CL_HSMqkEEE11curve_pointS5_EESt4lessIS5_ESaISt4pairIKS5_SD_EEEC2Ev
FN:197,197,_ZNSt3mapINSt7__cxx1112basic_stringIcSt11char_traitsIcESaIcEEESt5tupleIJS5_N6BICYCL6_Utils17CL_HSM_CipherTextINS7_8CL_HSMqkEEESB_SB_SB_EESt4lessIS5_ESaISt4pairIKS5_SC_EEEC2Ev
FN:314,314,_ZNSt3mapINSt7__cxx1112basic_stringIcSt11char_traitsIcESaIcEEESt5tupleIJP14PolicyContractN6BICYCL6_Utils16CL_HSM_PublicKeyINS9_8CL_HSMqkEEENSA_17CL_HSM_CipherTextISC_EES5_EESt4lessIS5_ESaISt4pairIKS5_SG_EEED2Ev
FN:314,314,_ZNSt3mapINSt7__cxx1112basic_stringIcSt11char_traitsIcESaIcEEESt5tupleIJS5_N6BICYCL6_Utils16CL_HSM_ClearTextINS7_8CL_HSMqkEEEEESt4lessIS5_ESaISt4pairIKS5_SC_EEED2Ev
FN:314,314,_ZNSt3mapINSt7__cxx1112basic_stringIcSt11char_traitsIcESaIcEEESt5tupleIJS5_N6BICYCL6_Utils17CL_HSM_CipherTextINS7_8CL_HSMqkEEE11curve_pointS5_EESt4lessIS5_ESaISt4pairIKS5_SD_EEED2Ev
FN:314,314,_ZNSt3mapINSt7__cxx1112basic_stringIcSt11char_traitsIcESaIcEEESt5tupleIJS5_N6BICYCL6_Utils17CL_HSM_CipherTextINS7_8CL_HSMqkEEESB_SB_SB_EESt4lessIS5_ESaISt4pairIKS5_SC_EEED2Ev
FN:368,369,_ZNSt3mapINSt7__cxx1112basic_stringIcSt11char_traitsIcESaIcEEESt5tupleIJS5_N6BICYCL6_Utils17CL_HSM_CipherTextINS7_8CL_HSMqkEEE11curve_pointS5_EESt4lessIS5_ESaISt4pairIKS5_SD_EEE5beginEv
FN:386,387,_ZNSt3mapINSt7__cxx1112basic_stringIcSt11char_traitsIcESaIcEEESt5tupleIJP14PolicyContractN6BICYCL6_Utils16CL_HSM_PublicKeyINS9_8CL_HSMqkEEENSA_17CL_HSM_CipherTextISC_EES5_EESt4lessIS5_ESaISt4pairIKS5_SG_EEE3endEv
FN:386,387,_ZNSt3mapINSt7__cxx1112basic_stringIcSt11char_traitsIcESaIcEEESt5tupleIJS5_N6BICYCL6_Utils16CL_HSM_ClearTextINS7_8CL_HSMqkEEEEESt4lessIS5_ESaISt4pairIKS5_SC_EEE3endEv
FN:386,387,_ZNSt3mapINSt7__cxx1112basic_stringIcSt11char_traitsIcESaIcEEESt5tupleIJS5_N6BICYCL6_Utils17CL_HSM_CipherTextINS7_8CL_HSMqkEEE11curve_pointS5_EESt4lessIS5_ESaISt4pairIKS5_SD_EEE3endEv
FN:386,387,_ZNSt3mapINSt7__cxx1112basic_stringIcSt11char_traitsIcESaIcEEESt5tupleIJS5_N6BICYCL6_Utils17CL_HSM_CipherTextINS7_8CL_HSMqkEEESB_SB_SB_EESt4lessIS5_ESaISt4pairIKS5_SC_EEE3endEv
FN:549,555,_ZNSt3mapINSt7__cxx1112basic_stringIcSt11char_traitsIcESaIcEEESt5tupleIJP14PolicyContractN6BICYCL6_Utils16CL_HSM_PublicKeyINS9_8CL_HSMqkEEENSA_17CL_HSM_CipherTextISC_EES5_EESt4lessIS5_ESaISt4pairIKS5_SG_EEE2atERSK_
FN:549,555,_ZNSt3mapINSt7__cxx1112basic_stringIcSt11char_traitsIcESaIcEEESt5tupleIJS5_N6BICYCL6_Utils16CL_HSM_ClearTextINS7_8CL_HSMqkEEEEESt4lessIS5_ESaISt4pairIKS5_SC_EEE2atERSG_
FN:549,555,_ZNSt3mapINSt7__cxx1112basic_stringIcSt11char_traitsIcESaIcEEESt5tupleIJS5_N6BICYCL6_Utils17CL_HSM_CipherTextINS7_8CL_HSMqkEEE11curve_pointS5_EESt4lessIS5_ESaISt4pairIKS5_SD_EEE2atERSH_
FN:549,555,_ZNSt3mapINSt7__cxx1112basic_stringIcSt11char_traitsIcESaIcEEESt5tupleIJS5_N6BICYCL6_Utils17CL_HSM_CipherTextINS7_8CL_HSMqkEEESB_SB_SB_EESt4lessIS5_ESaISt4pairIKS5_SC_EEE2atERSG_
FN:638,642,_ZNSt3mapINSt7__cxx1112basic_stringIcSt11char_traitsIcESaIcEEESt5tupleIJP14PolicyContractN6BICYCL6_Utils16CL_HSM_PublicKeyINS9_8CL_HSMqkEEENSA_17CL_HSM_CipherTextISC_EES5_EESt4lessIS5_ESaISt4pairIKS5_SG_EEE12emplace_hintIJSJ_IS5_SG_EEEESt17_Rb_tree_iteratorISL_ESt23_Rb_tree_const_iteratorISL_EDpOT_
FN:638,642,_ZNSt3mapINSt7__cxx1112basic_stringIcSt11char_traitsIcESaIcEEESt5tupleIJS5_N6BICYCL6_Utils16CL_HSM_ClearTextINS7_8CL_HSMqkEEEEESt4lessIS5_ESaISt4pairIKS5_SC_EEE12emplace_hintIJSF_IS5_SC_EEEESt17_Rb_tree_iteratorISH_ESt23_Rb_tree_const_iteratorISH_EDpOT_
FN:638,642,_ZNSt3mapINSt7__cxx1112basic_stringIcSt11char_traitsIcESaIcEEESt5tupleIJS5_N6BICYCL6_Utils17CL_HSM_CipherTextINS7_8CL_HSMqkEEE11curve_pointS5_EESt4lessIS5_ESaISt4pairIKS5_SD_EEE12emplace_hintIJSG_IS5_SD_EEEESt17_Rb_tree_iteratorISI_ESt23_Rb_tree_const_iteratorISI_EDpOT_
FN:638,642,_ZNSt3mapINSt7__cxx1112basic_stringIcSt11char_traitsIcESaIcEEESt5tupleIJS5_N6BICYCL6_Utils17CL_HSM_CipherTextINS7_8CL_HSMqkEEESB_SB_SB_EESt4lessIS5_ESaISt4pairIKS5_SC_EEE12emplace_hintIJSF_IS5_SC_EEEESt17_Rb_tree_iteratorISH_ESt23_Rb_tree_const_iteratorISH_EDpOT_
FN:847,866,_ZNSt3mapINSt7__cxx1112basic_stringIcSt11char_traitsIcESaIcEEESt5tupleIJP14PolicyContractN6BICYCL6_Utils16CL_HSM_PublicKeyINS9_8CL_HSMqkEEENSA_17CL_HSM_CipherTextISC_EES5_EESt4lessIS5_ESaISt4pairIKS5_SG_EEE6insertISJ_IS5_SG_EEENSt9enable_ifIXsrSt16is_constructibleISL_JT_EE5valueESJ_ISt17_Rb_tree_iteratorISL_EbEE4typeEOSS_
FN:847,866,_ZNSt3mapINSt7__cxx1112basic_stringIcSt11char_traitsIcESaIcEEESt5tupleIJS5_N6BICYCL6_Utils16CL_HSM_ClearTextINS7_8CL_HSMqkEEEEESt4lessIS5_ESaISt4pairIKS5_SC_EEE6insertISF_IS5_SC_EEENSt9enable_ifIXsrSt16is_constructibleISH_JT_EE5valueESF_ISt17_Rb_tree_iteratorISH_EbEE4typeEOSO_
FN:847,866,_ZNSt3mapINSt7__cxx1112basic_stringIcSt11char_traitsIcESaIcEEESt5tupleIJS5_N6BICYCL6_Utils17CL_HSM_CipherTextINS7_8CL_HSMqkEEE11curve_pointS5_EESt4lessIS5_ESaISt4pairIKS5_SD_EEE6insertISG_IS5_SD_EEENSt9enable_ifIXsrSt16is_constructibleISI_JT_EE5valueESG_ISt17_Rb_tree_iteratorISI_EbEE4typeEOSP_
FN:847,866,_ZNSt3mapINSt7__cxx1112basic_stringIcSt11char_traitsIcESaIcEEESt5tupleIJS5_N6BICYCL6_Utils17CL_HSM_CipherTextINS7_8CL_HSMqkEEESB_SB_SB_EESt4lessIS5_ESaISt4pairIKS5_SC_EEE6insertISF_IS5_SC_EEENSt9enable_ifIXsrSt16is_constructibleISH_JT_EE5valueESF_ISt17_Rb_tree_iteratorISH_EbEE4typeEOSO_
FNDA:10,_ZNKSt3mapINSt7__cxx1112basic_stringIcSt11char_traitsIcESaIcEEESt5tupleIJP14PolicyContractN6BICYCL6_Utils16CL_HSM_PublicKeyINS9_8CL_HSMqkEEENSA_17CL_HSM_CipherTextISC_EES5_EESt4lessIS5_ESaISt4pairIKS5_SG_EEE8key_compEv
FNDA:1,_ZNKSt3mapINSt7__cxx1112basic_stringIcSt11char_traitsIcESaIcEEESt5tupleIJS5_N6BICYCL6_Utils16CL_HSM_ClearTextINS7_8CL_HSMqkEEEEESt4lessIS5_ESaISt4pairIKS5_SC_EEE8key_compEv
FNDA:9,_ZNKSt3mapINSt7__cxx1112basic_stringIcSt11char_traitsIcESaIcEEESt5tupleIJS5_N6BICYCL6_Utils17CL_HSM_CipherTextINS7_8CL_HSMqkEEE11curve_pointS5_EESt4lessIS5_ESaISt4pairIKS5_SD_EEE8key_compEv
FNDA:3,_ZNKSt3mapINSt7__cxx1112basic_stringIcSt11char_traitsIcESaIcEEESt5tupleIJS5_N6BICYCL6_Utils17CL_HSM_CipherTextINS7_8CL_HSMqkEEESB_SB_SB_EESt4lessIS5_ESaISt4pairIKS5_SC_EEE8key_compEv
FNDA:10,_ZNSt3mapINSt7__cxx1112basic_stringIcSt11char_traitsIcESaIcEEESt5tupleIJP14PolicyContractN6BICYCL6_Utils16CL_HSM_PublicKeyINS9_8CL_HSMqkEEENSA_17CL_HSM_CipherTextISC_EES5_EESt4lessIS5_ESaISt4pairIKS5_SG_EEE4findERSK_
FNDA:1,_ZNSt3mapINSt7__cxx1112basic_stringIcSt11char_traitsIcESaIcEEESt5tupleIJS5_N6BICYCL6_Utils16CL_HSM_ClearTextINS7_8CL_HSMqkEEEEESt4lessIS5_ESaISt4pairIKS5_SC_EEE4findERSG_
FNDA:6,_ZNSt3mapINSt7__cxx1112basic_stringIcSt11char_traitsIcESaIcEEESt5tupleIJS5_N6BICYCL6_Utils17CL_HSM_CipherTextINS7_8CL_HSMqkEEE11curve_pointS5_EESt4lessIS5_ESaISt4pairIKS5_SD_EEE4findERSH_
FNDA:3,_ZNSt3mapINSt7__cxx1112basic_stringIcSt11char_traitsIcESaIcEEESt5tupleIJS5_N6BICYCL6_Utils17CL_HSM_CipherTextINS7_8CL_HSMqkEEESB_SB_SB_EESt4lessIS5_ESaISt4pairIKS5_SC_EEE4findERSG_
FNDA:11,_ZNSt3mapINSt7__cxx1112basic_stringIcSt11char_traitsIcESaIcEEESt5tupleIJP14PolicyContractN6BICYCL6_Utils16CL_HSM_PublicKeyINS9_8CL_HSMqkEEENSA_17CL_HSM_CipherTextISC_EES5_EESt4lessIS5_ESaISt4pairIKS5_SG_EEE11lower_boundERSK_
FNDA:2,_ZNSt3mapINSt7__cxx1112basic_stringIcSt11char_traitsIcESaIcEEESt5tupleIJS5_N6BICYCL6_Utils16CL_HSM_ClearTextINS7_8CL_HSMqkEEEEESt4lessIS5_ESaISt4pairIKS5_SC_EEE11lower_boundERSG_
FNDA:10,_ZNSt3mapINSt7__cxx1112basic_stringIcSt11char_traitsIcESaIcEEESt5tupleIJS5_N6BICYCL6_Utils17CL_HSM_CipherTextINS7_8CL_HSMqkEEE11curve_pointS5_EESt4lessIS5_ESaISt4pairIKS5_SD_EEE11lower_boundERSH_
FNDA:4,_ZNSt3mapINSt7__cxx1112basic_stringIcSt11char_traitsIcESaIcEEESt5tupleIJS5_N6BICYCL6_Utils17CL_HSM_CipherTextINS7_8CL_HSMqkEEESB_SB_SB_EESt4lessIS5_ESaISt4pairIKS5_SC_EEE11lower_boundERSG_
FNDA:1,_ZNSt3mapINSt7__cxx1112basic_stringIcSt11char_traitsIcESaIcEEESt5tupleIJP14PolicyContractN6BICYCL6_Utils16CL_HSM_PublicKeyINS9_8CL_HSMqkEEENSA_17CL_HSM_CipherTextISC_EES5_EESt4lessIS5_ESaISt4pairIKS5_SG_EEEC2Ev
FNDA:1,_ZNSt3mapINSt7__cxx1112basic_stringIcSt11char_traitsIcESaIcEEESt5tupleIJS5_N6BICYCL6_Utils16CL_HSM_ClearTextINS7_8CL_HSMqkEEEEESt4lessIS5_ESaISt4pairIKS5_SC_EEEC2Ev
FNDA:1,_ZNSt3mapINSt7__cxx1112basic_stringIcSt11char_traitsIcESaIcEEESt5tupleIJS5_N6BICYCL6_Utils17CL_HSM_CipherTextINS7_8CL_HSMqkEEE11curve_pointS5_EESt4lessIS5_ESaISt4pairIKS5_SD_EEEC2Ev
FNDA:1,_ZNSt3mapINSt7__cxx1112basic_stringIcSt11char_traitsIcESaIcEEESt5tupleIJS5_N6BICYCL6_Utils17CL_HSM_CipherTextINS7_8CL_HSMqkEEESB_SB_SB_EESt4lessIS5_ESaISt4pairIKS5_SC_EEEC2Ev
FNDA:1,_ZNSt3mapINSt7__cxx1112basic_stringIcSt11char_traitsIcESaIcEEESt5tupleIJP14PolicyContractN6BICYCL6_Utils16CL_HSM_PublicKeyINS9_8CL_HSMqkEEENSA_17CL_HSM_CipherTextISC_EES5_EESt4lessIS5_ESaISt4pairIKS5_SG_EEED2Ev
FNDA:1,_ZNSt3mapINSt7__cxx1112basic_stringIcSt11char_traitsIcESaIcEEESt5tupleIJS5_N6BICYCL6_Utils16CL_HSM_ClearTextINS7_8CL_HSMqkEEEEESt4lessIS5_ESaISt4pairIKS5_SC_EEED2Ev
FNDA:1,_ZNSt3mapINSt7__cxx1112basic_stringIcSt11char_traitsIcESaIcEEESt5tupleIJS5_N6BICYCL6_Utils17CL_HSM_CipherTextINS7_8CL_HSMqkEEE11curve_pointS5_EESt4lessIS5_ESaISt4pairIKS5_SD_EEED2Ev
FNDA:1,_ZNSt3mapINSt7__cxx1112basic_stringIcSt11char_traitsIcESaIcEEESt5tupleIJS5_N6BICYCL6_Utils17CL_HSM_CipherTextINS7_8CL_HSMqkEEESB_SB_SB_EESt4lessIS5_ESaISt4pairIKS5_SC_EEED2Ev
FNDA:1,_ZNSt3mapINSt7__cxx1112basic_stringIcSt11char_traitsIcESaIcEEESt5tupleIJS5_N6BICYCL6_Utils17CL_HSM_CipherTextINS7_8CL_HSMqkEEE11curve_pointS5_EESt4lessIS5_ESaISt4pairIKS5_SD_EEE5beginEv
FNDA:21,_ZNSt3mapINSt7__cxx1112basic_stringIcSt11char_traitsIcESaIcEEESt5tupleIJP14PolicyContractN6BICYCL6_Utils16CL_HSM_PublicKeyINS9_8CL_HSMqkEEENSA_17CL_HSM_CipherTextISC_EES5_EESt4lessIS5_ESaISt4pairIKS5_SG_EEE3endEv
FNDA:3,_ZNSt3mapINSt7__cxx1112basic_stringIcSt11char_traitsIcESaIcEEESt5tupleIJS5_N6BICYCL6_Utils16CL_HSM_ClearTextINS7_8CL_HSMqkEEEEESt4lessIS5_ESaISt4pairIKS5_SC_EEE3endEv
FNDA:17,_ZNSt3mapINSt7__cxx1112basic_stringIcSt11char_traitsIcESaIcEEESt5tupleIJS5_N6BICYCL6_Utils17CL_HSM_CipherTextINS7_8CL_HSMqkEEE11curve_pointS5_EESt4lessIS5_ESaISt4pairIKS5_SD_EEE3endEv
FNDA:7,_ZNSt3mapINSt7__cxx1112basic_stringIcSt11char_traitsIcESaIcEEESt5tupleIJS5_N6BICYCL6_Utils17CL_HSM_CipherTextINS7_8CL_HSMqkEEESB_SB_SB_EESt4lessIS5_ESaISt4pairIKS5_SC_EEE3endEv
FNDA:10,_ZNSt3mapINSt7__cxx1112basic_stringIcSt11char_traitsIcESaIcEEESt5tupleIJP14PolicyContractN6BICYCL6_Utils16CL_HSM_PublicKeyINS9_8CL_HSMqkEEENSA_17CL_HSM_CipherTextISC_EES5_EESt4lessIS5_ESaISt4pairIKS5_SG_EEE2atERSK_
FNDA:1,_ZNSt3mapINSt7__cxx1112basic_stringIcSt11char_traitsIcESaIcEEESt5tupleIJS5_N6BICYCL6_Utils16CL_HSM_ClearTextINS7_8CL_HSMqkEEEEESt4lessIS5_ESaISt4pairIKS5_SC_EEE2atERSG_
FNDA:9,_ZNSt3mapINSt7__cxx1112basic_stringIcSt11char_traitsIcESaIcEEESt5tupleIJS5_N6BICYCL6_Utils17CL_HSM_CipherTextINS7_8CL_HSMqkEEE11curve_pointS5_EESt4lessIS5_ESaISt4pairIKS5_SD_EEE2atERSH_
FNDA:3,_ZNSt3mapINSt7__cxx1112basic_stringIcSt11char_traitsIcESaIcEEESt5tupleIJS5_N6BICYCL6_Utils17CL_HSM_CipherTextINS7_8CL_HSMqkEEESB_SB_SB_EESt4lessIS5_ESaISt4pairIKS5_SC_EEE2atERSG_
FNDA:1,_ZNSt3mapINSt7__cxx1112basic_stringIcSt11char_traitsIcESaIcEEESt5tupleIJP14PolicyContractN6BICYCL6_Utils16CL_HSM_PublicKeyINS9_8CL_HSMqkEEENSA_17CL_HSM_CipherTextISC_EES5_EESt4lessIS5_ESaISt4pairIKS5_SG_EEE12emplace_hintIJSJ_IS5_SG_EEEESt17_Rb_tree_iteratorISL_ESt23_Rb_tree_const_iteratorISL_EDpOT_
FNDA:1,_ZNSt3mapINSt7__cxx1112basic_stringIcSt11char_traitsIcESaIcEEESt5tupleIJS5_N6BICYCL6_Utils16CL_HSM_ClearTextINS7_8CL_HSMqkEEEEESt4lessIS5_ESaISt4pairIKS5_SC_EEE12emplace_hintIJSF_IS5_SC_EEEESt17_Rb_tree_iteratorISH_ESt23_Rb_tree_const_iteratorISH_EDpOT_
FNDA:1,_ZNSt3mapINSt7__cxx1112basic_stringIcSt11char_traitsIcESaIcEEESt5tupleIJS5_N6BICYCL6_Utils17CL_HSM_CipherTextINS7_8CL_HSMqkEEE11curve_pointS5_EESt4lessIS5_ESaISt4pairIKS5_SD_EEE12emplace_hintIJSG_IS5_SD_EEEESt17_Rb_tree_iteratorISI_ESt23_Rb_tree_const_iteratorISI_EDpOT_
FNDA:1,_ZNSt3mapINSt7__cxx1112basic_stringIcSt11char_traitsIcESaIcEEESt5tupleIJS5_N6BICYCL6_Utils17CL_HSM_CipherTextINS7_8CL_HSMqkEEESB_SB_SB_EESt4lessIS5_ESaISt4pairIKS5_SC_EEE12emplace_hintIJSF_IS5_SC_EEEESt17_Rb_tree_iteratorISH_ESt23_Rb_tree_const_iteratorISH_EDpOT_
FNDA:1,_ZNSt3mapINSt7__cxx1112basic_stringIcSt11char_traitsIcESaIcEEESt5tupleIJP14PolicyContractN6BICYCL6_Utils16CL_HSM_PublicKeyINS9_8CL_HSMqkEEENSA_17CL_HSM_CipherTextISC_EES5_EESt4lessIS5_ESaISt4pairIKS5_SG_EEE6insertISJ_IS5_SG_EEENSt9enable_ifIXsrSt16is_constructibleISL_JT_EE5valueESJ_ISt17_Rb_tree_iteratorISL_EbEE4typeEOSS_
FNDA:1,_ZNSt3mapINSt7__cxx1112basic_stringIcSt11char_traitsIcESaIcEEESt5tupleIJS5_N6BICYCL6_Utils16CL_HSM_ClearTextINS7_8CL_HSMqkEEEEESt4lessIS5_ESaISt4pairIKS5_SC_EEE6insertISF_IS5_SC_EEENSt9enable_ifIXsrSt16is_constructibleISH_JT_EE5valueESF_ISt17_Rb_tree_iteratorISH_EbEE4typeEOSO_
FNDA:1,_ZNSt3mapINSt7__cxx1112basic_stringIcSt11char_traitsIcESaIcEEESt5tupleIJS5_N6BICYCL6_Utils17CL_HSM_CipherTextINS7_8CL_HSMqkEEE11curve_pointS5_EESt4lessIS5_ESaISt4pairIKS5_SD_EEE6insertISG_IS5_SD_EEENSt9enable_ifIXsrSt16is_constructibleISI_JT_EE5valueESG_ISt17_Rb_tree_iteratorISI_EbEE4typeEOSP_
FNDA:1,_ZNSt3mapINSt7__cxx1112basic_stringIcSt11char_traitsIcESaIcEEESt5tupleIJS5_N6BICYCL6_Utils17CL_HSM_CipherTextINS7_8CL_HSMqkEEESB_SB_SB_EESt4lessIS5_ESaISt4pairIKS5_SC_EEE6insertISF_IS5_SC_EEENSt9enable_ifIXsrSt16is_constructibleISH_JT_EE5valueESF_ISt17_Rb_tree_iteratorISH_EbEE4typeEOSO_
FNF:37
FNH:37
DA:197,4
DA:314,4
DA:368,1
DA:369,1
DA:386,48
DA:387,48
DA:549,23
DA:551,23
DA:552,23
DA:553,0
DA:554,46
DA:638,4
DA:640,4
DA:641,4
DA:847,4
DA:855,4
DA:856,4
DA:857,4
DA:859,4
DA:860,4
DA:862,0
DA:1191,23
DA:1192,23
DA:1218,20
DA:1219,20
DA:1307,27
DA:1308,27
LF:27
LH:25
end_of_record
TN:
SF:/usr/include/c++/14.2.1/bits/stl_pair.h
FN:1132,1138,_ZSt9make_pairIRNSt7__cxx1112basic_stringIcSt11char_traitsIcESaIcEEESt5tupleIJP14PolicyContractN6BICYCL6_Utils16CL_HSM_PublicKeyINSA_8CL_HSMqkEEENSB_17CL_HSM_CipherTextISD_EES5_EEESt4pairINSt25__strip_reference_wrapperINSt5decayIT_E4typeEE6__typeENSJ_INSK_IT0_E4typeEE6__typeEEOSL_OSQ_
FN:1132,1138,_ZSt9make_pairIRNSt7__cxx1112basic_stringIcSt11char_traitsIcESaIcEEESt5tupleIJS5_N6BICYCL6_Utils16CL_HSM_ClearTextINS8_8CL_HSMqkEEEEEESt4pairINSt25__strip_reference_wrapperINSt5decayIT_E4typeEE6__typeENSF_INSG_IT0_E4typeEE6__typeEEOSH_OSM_
FN:1132,1138,_ZSt9make_pairIRNSt7__cxx1112basic_stringIcSt11char_traitsIcESaIcEEESt5tupleIJS5_N6BICYCL6_Utils17CL_HSM_CipherTextINS8_8CL_HSMqkEEE11curve_pointS5_EEESt4pairINSt25__strip_reference_wrapperINSt5decayIT_E4typeEE6__typeENSG_INSH_IT0_E4typeEE6__typeEEOSI_OSN_
FN:1132,1138,_ZSt9make_pairIRNSt7__cxx1112basic_stringIcSt11char_traitsIcESaIcEEESt5tupleIJS5_N6BICYCL6_Utils17CL_HSM_CipherTextINS8_8CL_HSMqkEEESC_SC_SC_EEESt4pairINSt25__strip_reference_wrapperINSt5decayIT_E4typeEE6__typeENSF_INSG_IT0_E4typeEE6__typeEEOSH_OSM_
FN:752,753,_ZNSt4pairIPSt18_Rb_tree_node_baseS1_EC2IS1_S1_Lb1EEERKS1_S5_
FN:881,883,_ZNSt4pairINSt7__cxx1112basic_stringIcSt11char_traitsIcESaIcEEESt5tupleIJP14PolicyContractN6BICYCL6_Utils16CL_HSM_PublicKeyINS9_8CL_HSMqkEEENSA_17CL_HSM_CipherTextISC_EES5_EEEC2IRS5_SG_Lb1EEEOT_OT0_
FN:881,883,_ZNSt4pairINSt7__cxx1112basic_stringIcSt11char_traitsIcESaIcEEESt5tupleIJS5_N6BICYCL6_Utils16CL_HSM_ClearTextINS7_8CL_HSMqkEEEEEEC2IRS5_SC_Lb1EEEOT_OT0_
FN:881,883,_ZNSt4pairINSt7__cxx1112basic_stringIcSt11char_traitsIcESaIcEEESt5tupleIJS5_N6BICYCL6_Utils17CL_HSM_CipherTextINS7_8CL_HSMqkEEE11curve_pointS5_EEEC2IRS5_SD_Lb1EEEOT_OT0_
FN:881,883,_ZNSt4pairINSt7__cxx1112basic_stringIcSt11char_traitsIcESaIcEEESt5tupleIJS5_N6BICYCL6_Utils17CL_HSM_CipherTextINS7_8CL_HSMqkEEESB_SB_SB_EEEC2IRS5_SC_Lb1EEEOT_OT0_
FN:881,883,_ZNSt4pairIPSt18_Rb_tree_node_baseS1_EC2IRPSt13_Rb_tree_nodeIS_IKNSt7__cxx1112basic_stringIcSt11char_traitsIcESaIcEEESt5tupleIJP14PolicyContractN6BICYCL6_Utils16CL_HSM_PublicKeyINSF_8CL_HSMqkEEENSG_17CL_HSM_CipherTextISI_EESA_EEEERS1_Lb1EEEOT_OT0_
FN:881,883,_ZNSt4pairIPSt18_Rb_tree_node_baseS1_EC2IRPSt13_Rb_tree_nodeIS_IKNSt7__cxx1112basic_stringIcSt11char_traitsIcESaIcEEESt5tupleIJSA_N6BICYCL6_Utils16CL_HSM_ClearTextINSD_8CL_HSMqkEEEEEEERS1_Lb1EEEOT_OT0_
FN:881,883,_ZNSt4pairIPSt18_Rb_tree_node_baseS1_EC2IRPSt13_Rb_tree_nodeIS_IKNSt7__cxx1112basic_stringIcSt11char_traitsIcESaIcEEESt5tupleIJSA_N6BICYCL6_Utils17CL_HSM_CipherTextINSD_8CL_HSMqkEEE11curve_pointSA_EEEERS1_Lb1EEEOT_OT0_
FN:881,883,_ZNSt4pairIPSt18_Rb_tree_node_baseS1_EC2IRPSt13_Rb_tree_nodeIS_IKNSt7__cxx1112basic_stringIcSt11char_traitsIcESaIcEEESt5tupleIJSA_N6BICYCL6_Utils17CL_HSM_CipherTextINSD_8CL_HSMqkEEESH_SH_SH_EEEERS1_Lb1EEEOT_OT0_
FN:881,883,_ZNSt4pairIPSt18_Rb_tree_node_baseS1_EC2IRS1_S4_Lb1EEEOT_OT0_
FN:881,883,_ZNSt4pairISt17_Rb_tree_iteratorIS_IKNSt7__cxx1112basic_stringIcSt11char_traitsIcESaIcEEESt5tupleIJP14PolicyContractN6BICYCL6_Utils16CL_HSM_PublicKeyINSB_8CL_HSMqkEEENSC_17CL_HSM_CipherTextISE_EES6_EEEEbEC2IRSK_bLb1EEEOT_OT0_
FN:881,883,_ZNSt4pairISt17_Rb_tree_iteratorIS_IKNSt7__cxx1112basic_stringIcSt11char_traitsIcESaIcEEESt5tupleIJS6_N6BICYCL6_Utils16CL_HSM_ClearTextINS9_8CL_HSMqkEEEEEEEbEC2IRSG_bLb1EEEOT_OT0_
FN:881,883,_ZNSt4pairISt17_Rb_tree_iteratorIS_IKNSt7__cxx1112basic_stringIcSt11char_traitsIcESaIcEEESt5tupleIJS6_N6BICYCL6_Utils17CL_HSM_CipherTextINS9_8CL_HSMqkEEE11curve_pointS6_EEEEbEC2IRSH_bLb1EEEOT_OT0_
FN:881,883,_ZNSt4pairISt17_Rb_tree_iteratorIS_IKNSt7__cxx1112basic_stringIcSt11char_traitsIcESaIcEEESt5tupleIJS6_N6BICYCL6_Utils17CL_HSM_CipherTextINS9_8CL_HSMqkEEESD_SD_SD_EEEEbEC2IRSG_bLb1EEEOT_OT0_
FN:902,905,_ZNSt4pairIKNSt7__cxx1112basic_stringIcSt11char_traitsIcESaIcEEESt5tupleIJP14PolicyContractN6BICYCL6_Utils16CL_HSM_PublicKeyINSA_8CL_HSMqkEEENSB_17CL_HSM_CipherTextISD_EES5_EEEC2IS5_SH_Lb1EEEOS_IT_T0_E
FN:902,905,_ZNSt4pairIKNSt7__cxx1112basic_stringIcSt11char_traitsIcESaIcEEESt5tupleIJS5_N6BICYCL6_Utils16CL_HSM_ClearTextINS8_8CL_HSMqkEEEEEEC2IS5_SD_Lb1EEEOS_IT_T0_E
FN:902,905,_ZNSt4pairIKNSt7__cxx1112basic_stringIcSt11char_traitsIcESaIcEEESt5tupleIJS5_N6BICYCL6_Utils17CL_HSM_CipherTextINS8_8CL_HSMqkEEE11curve_pointS5_EEEC2IS5_SE_Lb1EEEOS_IT_T0_E
FN:902,905,_ZNSt4pairIKNSt7__cxx1112basic_stringIcSt11char_traitsIcESaIcEEESt5tupleIJS5_N6BICYCL6_Utils17CL_HSM_CipherTextINS8_8CL_HSMqkEEESC_SC_SC_EEEC2IS5_SD_Lb1EEEOS_IT_T0_E
FNDA:1,_ZSt9make_pairIRNSt7__cxx1112basic_stringIcSt11char_traitsIcESaIcEEESt5tupleIJP14PolicyContractN6BICYCL6_Utils16CL_HSM_PublicKeyINSA_8CL_HSMqkEEENSB_17CL_HSM_CipherTextISD_EES5_EEESt4pairINSt25__strip_reference_wrapperINSt5decayIT_E4typeEE6__typeENSJ_INSK_IT0_E4typeEE6__typeEEOSL_OSQ_
FNDA:1,_ZSt9make_pairIRNSt7__cxx1112basic_stringIcSt11char_traitsIcESaIcEEESt5tupleIJS5_N6BICYCL6_Utils16CL_HSM_ClearTextINS8_8CL_HSMqkEEEEEESt4pairINSt25__strip_reference_wrapperINSt5decayIT_E4typeEE6__typeENSF_INSG_IT0_E4typeEE6__typeEEOSH_OSM_
FNDA:1,_ZSt9make_pairIRNSt7__cxx1112basic_stringIcSt11char_traitsIcESaIcEEESt5tupleIJS5_N6BICYCL6_Utils17CL_HSM_CipherTextINS8_8CL_HSMqkEEE11curve_pointS5_EEESt4pairINSt25__strip_reference_wrapperINSt5decayIT_E4typeEE6__typeENSG_INSH_IT0_E4typeEE6__typeEEOSI_OSN_
FNDA:1,_ZSt9make_pairIRNSt7__cxx1112basic_stringIcSt11char_traitsIcESaIcEEESt5tupleIJS5_N6BICYCL6_Utils17CL_HSM_CipherTextINS8_8CL_HSMqkEEESC_SC_SC_EEESt4pairINSt25__strip_reference_wrapperINSt5decayIT_E4typeEE6__typeENSF_INSG_IT0_E4typeEE6__typeEEOSH_OSM_
FNDA:0,_ZNSt4pairIPSt18_Rb_tree_node_baseS1_EC2IS1_S1_Lb1EEERKS1_S5_
FNDA:1,_ZNSt4pairINSt7__cxx1112basic_stringIcSt11char_traitsIcESaIcEEESt5tupleIJP14PolicyContractN6BICYCL6_Utils16CL_HSM_PublicKeyINS9_8CL_HSMqkEEENSA_17CL_HSM_CipherTextISC_EES5_EEEC2IRS5_SG_Lb1EEEOT_OT0_
FNDA:1,_ZNSt4pairINSt7__cxx1112basic_stringIcSt11char_traitsIcESaIcEEESt5tupleIJS5_N6BICYCL6_Utils16CL_HSM_ClearTextINS7_8CL_HSMqkEEEEEEC2IRS5_SC_Lb1EEEOT_OT0_
FNDA:1,_ZNSt4pairINSt7__cxx1112basic_stringIcSt11char_traitsIcESaIcEEESt5tupleIJS5_N6BICYCL6_Utils17CL_HSM_CipherTextINS7_8CL_HSMqkEEE11curve_pointS5_EEEC2IRS5_SD_Lb1EEEOT_OT0_
FNDA:1,_ZNSt4pairINSt7__cxx1112basic_stringIcSt11char_traitsIcESaIcEEESt5tupleIJS5_N6BICYCL6_Utils17CL_HSM_CipherTextINS7_8CL_HSMqkEEESB_SB_SB_EEEC2IRS5_SC_Lb1EEEOT_OT0_
FNDA:1,_ZNSt4pairIPSt18_Rb_tree_node_baseS1_EC2IRPSt13_Rb_tree_nodeIS_IKNSt7__cxx1112basic_stringIcSt11char_traitsIcESaIcEEESt5tupleIJP14PolicyContractN6BICYCL6_Utils16CL_HSM_PublicKeyINSF_8CL_HSMqkEEENSG_17CL_HSM_CipherTextISI_EESA_EEEERS1_Lb1EEEOT_OT0_
FNDA:1,_ZNSt4pairIPSt18_Rb_tree_node_baseS1_EC2IRPSt13_Rb_tree_nodeIS_IKNSt7__cxx1112basic_stringIcSt11char_traitsIcESaIcEEESt5tupleIJSA_N6BICYCL6_Utils16CL_HSM_ClearTextINSD_8CL_HSMqkEEEEEEERS1_Lb1EEEOT_OT0_
FNDA:1,_ZNSt4pairIPSt18_Rb_tree_node_baseS1_EC2IRPSt13_Rb_tree_nodeIS_IKNSt7__cxx1112basic_stringIcSt11char_traitsIcESaIcEEESt5tupleIJSA_N6BICYCL6_Utils17CL_HSM_CipherTextINSD_8CL_HSMqkEEE11curve_pointSA_EEEERS1_Lb1EEEOT_OT0_
FNDA:1,_ZNSt4pairIPSt18_Rb_tree_node_baseS1_EC2IRPSt13_Rb_tree_nodeIS_IKNSt7__cxx1112basic_stringIcSt11char_traitsIcESaIcEEESt5tupleIJSA_N6BICYCL6_Utils17CL_HSM_CipherTextINSD_8CL_HSMqkEEESH_SH_SH_EEEERS1_Lb1EEEOT_OT0_
FNDA:0,_ZNSt4pairIPSt18_Rb_tree_node_baseS1_EC2IRS1_S4_Lb1EEEOT_OT0_
FNDA:1,_ZNSt4pairISt17_Rb_tree_iteratorIS_IKNSt7__cxx1112basic_stringIcSt11char_traitsIcESaIcEEESt5tupleIJP14PolicyContractN6BICYCL6_Utils16CL_HSM_PublicKeyINSB_8CL_HSMqkEEENSC_17CL_HSM_CipherTextISE_EES6_EEEEbEC2IRSK_bLb1EEEOT_OT0_
FNDA:1,_ZNSt4pairISt17_Rb_tree_iteratorIS_IKNSt7__cxx1112basic_stringIcSt11char_traitsIcESaIcEEESt5tupleIJS6_N6BICYCL6_Utils16CL_HSM_ClearTextINS9_8CL_HSMqkEEEEEEEbEC2IRSG_bLb1EEEOT_OT0_
FNDA:1,_ZNSt4pairISt17_Rb_tree_iteratorIS_IKNSt7__cxx1112basic_stringIcSt11char_traitsIcESaIcEEESt5tupleIJS6_N6BICYCL6_Utils17CL_HSM_CipherTextINS9_8CL_HSMqkEEE11curve_pointS6_EEEEbEC2IRSH_bLb1EEEOT_OT0_
FNDA:1,_ZNSt4pairISt17_Rb_tree_iteratorIS_IKNSt7__cxx1112basic_stringIcSt11char_traitsIcESaIcEEESt5tupleIJS6_N6BICYCL6_Utils17CL_HSM_CipherTextINS9_8CL_HSMqkEEESD_SD_SD_EEEEbEC2IRSG_bLb1EEEOT_OT0_
FNDA:1,_ZNSt4pairIKNSt7__cxx1112basic_stringIcSt11char_traitsIcESaIcEEESt5tupleIJP14PolicyContractN6BICYCL6_Utils16CL_HSM_PublicKeyINSA_8CL_HSMqkEEENSB_17CL_HSM_CipherTextISD_EES5_EEEC2IS5_SH_Lb1EEEOS_IT_T0_E
FNDA:1,_ZNSt4pairIKNSt7__cxx1112basic_stringIcSt11char_traitsIcESaIcEEESt5tupleIJS5_N6BICYCL6_Utils16CL_HSM_ClearTextINS8_8CL_HSMqkEEEEEEC2IS5_SD_Lb1EEEOS_IT_T0_E
FNDA:1,_ZNSt4pairIKNSt7__cxx1112basic_stringIcSt11char_traitsIcESaIcEEESt5tupleIJS5_N6BICYCL6_Utils17CL_HSM_CipherTextINS8_8CL_HSMqkEEE11curve_pointS5_EEEC2IS5_SE_Lb1EEEOS_IT_T0_E
FNDA:1,_ZNSt4pairIKNSt7__cxx1112basic_stringIcSt11char_traitsIcESaIcEEESt5tupleIJS5_N6BICYCL6_Utils17CL_HSM_CipherTextINS8_8CL_HSMqkEEESC_SC_SC_EEEC2IS5_SD_Lb1EEEOS_IT_T0_E
FNF:22
FNH:20
DA:752,0
DA:753,0
DA:881,12
DA:882,12
DA:883,12
DA:902,4
DA:903,4
DA:904,4
DA:905,4
DA:1132,4
DA:1137,4
LF:11
LH:9
end_of_record
TN:
SF:/usr/include/c++/14.2.1/bits/stl_queue.h
FN:166,167,_ZNSt5queueISt8functionIFvvEESt5dequeIS2_SaIS2_EEEC2IS5_vEEv
FN:216,217,_ZNKSt5queueISt8functionIFvvEESt5dequeIS2_SaIS2_EEE5emptyEv
FN:231,235,_ZNSt5queueISt8functionIFvvEESt5dequeIS2_SaIS2_EEE5frontEv
FN:294,295,_ZNSt5queueISt8functionIFvvEESt5dequeIS2_SaIS2_EEE7emplaceIJSt5_BindIFM21AccessControlContractFvPKN6BICYCL3QFIEmmRSB_EPS9_SD_mmSt17reference_wrapperISB_EEEEEEDcDpOT_
FN:294,295,_ZNSt5queueISt8functionIFvvEESt5dequeIS2_SaIS2_EEE7emplaceIJSt5_BindIFM21AccessControlContractFvRSt6vectorISt5tupleIJN6BICYCL6_Utils17CL_HSM_CipherTextINSC_8CL_HSMqkEEE11curve_pointEESaISI_EEmmNSD_16CL_HSM_PublicKeyISF_EERSI_EPS9_St17reference_wrapperISK_EmmSN_SS_ISI_EEEEEEDcDpOT_
FN:294,295,_ZNSt5queueISt8functionIFvvEESt5dequeIS2_SaIS2_EEE7emplaceIJSt5_BindIFM21AccessControlContractFvRSt6vectorISt5tupleIJN6BICYCL6_Utils17CL_HSM_CipherTextINSC_8CL_HSMqkEEESG_SG_EESaISH_EEmmNSD_16CL_HSM_PublicKeyISF_EERSH_EPS9_St17reference_wrapperISJ_EmmSM_SR_ISH_EEEEEEDcDpOT_
FN:294,295,_ZNSt5queueISt8functionIFvvEESt5dequeIS2_SaIS2_EEE7emplaceIJSt5_BindIFM4UserFvN6BICYCL8CL_HSMqkENSA_6_Utils16CL_HSM_PublicKeyISB_EENSC_17CL_HSM_CipherTextISB_EESG_RSt5tupleIJSG_SG_SG_EEEPS9_SB_SE_SG_SG_St17reference_wrapperISI_EEEEEEDcDpOT_
FN:294,295,_ZNSt5queueISt8functionIFvvEESt5dequeIS2_SaIS2_EEE7emplaceIJSt5_BindIFM4UserFvN6BICYCL8CL_HSMqkENSA_6_Utils17CL_HSM_CipherTextISB_EERNSA_3QFIEEPS9_SB_SE_St17reference_wrapperISF_EEEEEEDcDpOT_
FN:294,295,_ZNSt5queueISt8functionIFvvEESt5dequeIS2_SaIS2_EEE7emplaceIJSt5_BindIFM4UserFvRN6BICYCL8CL_HSMqkERKNSA_6_Utils16CL_HSM_PublicKeyISB_EERSt6vectorISt5tupleIJNSD_17CL_HSM_CipherTextISB_EE11curve_pointEESaISN_EEPSt5mutexEPS9_SB_SF_St17reference_wrapperISP_ESS_EEEEEDcDpOT_
FN:294,295,_ZNSt5queueISt8functionIFvvEESt5dequeIS2_SaIS2_EEE7emplaceIJSt5_BindIFM9ValidatorFvN6BICYCL8CL_HSMqkENSA_6_Utils16CL_HSM_PublicKeyISB_EENSC_17CL_HSM_CipherTextISB_EESG_RSt5tupleIJSG_SG_SG_EEEPS9_SB_SE_SG_SG_St17reference_wrapperISI_EEEEEEDcDpOT_
FN:294,295,_ZNSt5queueISt8functionIFvvEESt5dequeIS2_SaIS2_EEE7emplaceIJSt5_BindIFM9ValidatorFvN6BICYCL8CL_HSMqkENSA_6_Utils16CL_HSM_PublicKeyISB_EERSt5tupleIJNSC_17CL_HSM_CipherTextISB_EE11curve_pointEEPSt5mutexEPS9_SB_SE_St17reference_wrapperISJ_ESM_EEEEEDcDpOT_
FN:294,295,_ZNSt5queueISt8functionIFvvEESt5dequeIS2_SaIS2_EEE7emplaceIJSt5_BindIFM9ValidatorFvN6BICYCL8CL_HSMqkENSA_6_Utils17CL_HSM_CipherTextISB_EERNSA_3QFIEEPS9_SB_SE_St17reference_wrapperISF_EEEEEEDcDpOT_
FN:316,320,_ZNSt5queueISt8functionIFvvEESt5dequeIS2_SaIS2_EEE3popEv
FNDA:1,_ZNSt5queueISt8functionIFvvEESt5dequeIS2_SaIS2_EEEC2IS5_vEEv
FNDA:16994,_ZNKSt5queueISt8functionIFvvEESt5dequeIS2_SaIS2_EEE5emptyEv
FNDA:8448,_ZNSt5queueISt8functionIFvvEESt5dequeIS2_SaIS2_EEE5frontEv
FNDA:24,_ZNSt5queueISt8functionIFvvEESt5dequeIS2_SaIS2_EEE7emplaceIJSt5_BindIFM21AccessControlContractFvPKN6BICYCL3QFIEmmRSB_EPS9_SD_mmSt17reference_wrapperISB_EEEEEEDcDpOT_
FNDA:12,_ZNSt5queueISt8functionIFvvEESt5dequeIS2_SaIS2_EEE7emplaceIJSt5_BindIFM21AccessControlContractFvRSt6vectorISt5tupleIJN6BICYCL6_Utils17CL_HSM_CipherTextINSC_8CL_HSMqkEEE11curve_pointEESaISI_EEmmNSD_16CL_HSM_PublicKeyISF_EERSI_EPS9_St17reference_wrapperISK_EmmSN_SS_ISI_EEEEEEDcDpOT_
FNDA:12,_ZNSt5queueISt8functionIFvvEESt5dequeIS2_SaIS2_EEE7emplaceIJSt5_BindIFM21AccessControlContractFvRSt6vectorISt5tupleIJN6BICYCL6_Utils17CL_HSM_CipherTextINSC_8CL_HSMqkEEESG_SG_EESaISH_EEmmNSD_16CL_HSM_PublicKeyISF_EERSH_EPS9_St17reference_wrapperISJ_EmmSM_SR_ISH_EEEEEEDcDpOT_
FNDA:100,_ZNSt5queueISt8functionIFvvEESt5dequeIS2_SaIS2_EEE7emplaceIJSt5_BindIFM4UserFvN6BICYCL8CL_HSMqkENSA_6_Utils16CL_HSM_PublicKeyISB_EENSC_17CL_HSM_CipherTextISB_EESG_RSt5tupleIJSG_SG_SG_EEEPS9_SB_SE_SG_SG_St17reference_wrapperISI_EEEEEEDcDpOT_
FNDA:200,_ZNSt5queueISt8functionIFvvEESt5dequeIS2_SaIS2_EEE7emplaceIJSt5_BindIFM4UserFvN6BICYCL8CL_HSMqkENSA_6_Utils17CL_HSM_CipherTextISB_EERNSA_3QFIEEPS9_SB_SE_St17reference_wrapperISF_EEEEEEDcDpOT_
FNDA:100,_ZNSt5queueISt8functionIFvvEESt5dequeIS2_SaIS2_EEE7emplaceIJSt5_BindIFM4UserFvRN6BICYCL8CL_HSMqkERKNSA_6_Utils16CL_HSM_PublicKeyISB_EERSt6vectorISt5tupleIJNSD_17CL_HSM_CipherTextISB_EE11curve_pointEESaISN_EEPSt5mutexEPS9_SB_SF_St17reference_wrapperISP_ESS_EEEEEDcDpOT_
FNDA:2000,_ZNSt5queueISt8functionIFvvEESt5dequeIS2_SaIS2_EEE7emplaceIJSt5_BindIFM9ValidatorFvN6BICYCL8CL_HSMqkENSA_6_Utils16CL_HSM_PublicKeyISB_EENSC_17CL_HSM_CipherTextISB_EESG_RSt5tupleIJSG_SG_SG_EEEPS9_SB_SE_SG_SG_St17reference_wrapperISI_EEEEEEDcDpOT_
FNDA:2000,_ZNSt5queueISt8functionIFvvEESt5dequeIS2_SaIS2_EEE7emplaceIJSt5_BindIFM9ValidatorFvN6BICYCL8CL_HSMqkENSA_6_Utils16CL_HSM_PublicKeyISB_EERSt5tupleIJNSC_17CL_HSM_CipherTextISB_EE11curve_pointEEPSt5mutexEPS9_SB_SE_St17reference_wrapperISJ_ESM_EEEEEDcDpOT_
FNDA:4000,_ZNSt5queueISt8functionIFvvEESt5dequeIS2_SaIS2_EEE7emplaceIJSt5_BindIFM9ValidatorFvN6BICYCL8CL_HSMqkENSA_6_Utils17CL_HSM_CipherTextISB_EERNSA_3QFIEEPS9_SB_SE_St17reference_wrapperISF_EEEEEEDcDpOT_
FNDA:8448,_ZNSt5queueISt8functionIFvvEESt5dequeIS2_SaIS2_EEE3popEv
FNF:13
FNH:13
DA:166,1
DA:167,1
DA:216,16994
DA:217,16994
DA:231,8448
DA:234,8448
DA:294,8448
DA:295,8448
DA:316,8448
DA:319,8448
DA:320,8448
LF:11
LH:11
end_of_record
TN:
SF:/usr/include/c++/14.2.1/bits/stl_tree.h
FN:1001,1002,_ZNSt8_Rb_treeINSt7__cxx1112basic_stringIcSt11char_traitsIcESaIcEEESt4pairIKS5_St5tupleIJP14PolicyContractN6BICYCL6_Utils16CL_HSM_PublicKeyINSB_8CL_HSMqkEEENSC_17CL_HSM_CipherTextISE_EES5_EEESt10_Select1stISJ_ESt4lessIS5_ESaISJ_EE3endEv
FN:1001,1002,_ZNSt8_Rb_treeINSt7__cxx1112basic_stringIcSt11char_traitsIcESaIcEEESt4pairIKS5_St5tupleIJS5_N6BICYCL6_Utils16CL_HSM_ClearTextINS9_8CL_HSMqkEEEEEESt10_Select1stISF_ESt4lessIS5_ESaISF_EE3endEv
FN:1001,1002,_ZNSt8_Rb_treeINSt7__cxx1112basic_stringIcSt11char_traitsIcESaIcEEESt4pairIKS5_St5tupleIJS5_N6BICYCL6_Utils17CL_HSM_CipherTextINS9_8CL_HSMqkEEE11curve_pointS5_EEESt10_Select1stISG_ESt4lessIS5_ESaISG_EE3endEv
FN:1001,1002,_ZNSt8_Rb_treeINSt7__cxx1112basic_stringIcSt11char_traitsIcESaIcEEESt4pairIKS5_St5tupleIJS5_N6BICYCL6_Utils17CL_HSM_CipherTextINS9_8CL_HSMqkEEESD_SD_SD_EEESt10_Select1stISF_ESt4lessIS5_ESaISF_EE3endEv
FN:1029,1030,_ZNKSt8_Rb_treeINSt7__cxx1112basic_stringIcSt11char_traitsIcESaIcEEESt4pairIKS5_St5tupleIJP14PolicyContractN6BICYCL6_Utils16CL_HSM_PublicKeyINSB_8CL_HSMqkEEENSC_17CL_HSM_CipherTextISE_EES5_EEESt10_Select1stISJ_ESt4lessIS5_ESaISJ_EE4sizeEv
FN:1029,1030,_ZNKSt8_Rb_treeINSt7__cxx1112basic_stringIcSt11char_traitsIcESaIcEEESt4pairIKS5_St5tupleIJS5_N6BICYCL6_Utils16CL_HSM_ClearTextINS9_8CL_HSMqkEEEEEESt10_Select1stISF_ESt4lessIS5_ESaISF_EE4sizeEv
FN:1029,1030,_ZNKSt8_Rb_treeINSt7__cxx1112basic_stringIcSt11char_traitsIcESaIcEEESt4pairIKS5_St5tupleIJS5_N6BICYCL6_Utils17CL_HSM_CipherTextINS9_8CL_HSMqkEEE11curve_pointS5_EEESt10_Select1stISG_ESt4lessIS5_ESaISG_EE4sizeEv
FN:1029,1030,_ZNKSt8_Rb_treeINSt7__cxx1112basic_stringIcSt11char_traitsIcESaIcEEESt4pairIKS5_St5tupleIJS5_N6BICYCL6_Utils17CL_HSM_CipherTextINS9_8CL_HSMqkEEESD_SD_SD_EEESt10_Select1stISF_ESt4lessIS5_ESaISF_EE4sizeEv
FN:1266,1267,_ZNSt8_Rb_treeINSt7__cxx1112basic_stringIcSt11char_traitsIcESaIcEEESt4pairIKS5_St5tupleIJP14PolicyContractN6BICYCL6_Utils16CL_HSM_PublicKeyINSB_8CL_HSMqkEEENSC_17CL_HSM_CipherTextISE_EES5_EEESt10_Select1stISJ_ESt4lessIS5_ESaISJ_EE11lower_boundERS7_
FN:1266,1267,_ZNSt8_Rb_treeINSt7__cxx1112basic_stringIcSt11char_traitsIcESaIcEEESt4pairIKS5_St5tupleIJS5_N6BICYCL6_Utils16CL_HSM_ClearTextINS9_8CL_HSMqkEEEEEESt10_Select1stISF_ESt4lessIS5_ESaISF_EE11lower_boundERS7_
FN:1266,1267,_ZNSt8_Rb_treeINSt7__cxx1112basic_stringIcSt11char_traitsIcESaIcEEESt4pairIKS5_St5tupleIJS5_N6BICYCL6_Utils17CL_HSM_CipherTextINS9_8CL_HSMqkEEE11curve_pointS5_EEESt10_Select1stISG_ESt4lessIS5_ESaISG_EE11lower_boundERS7_
FN:1266,1267,_ZNSt8_Rb_treeINSt7__cxx1112basic_stringIcSt11char_traitsIcESaIcEEESt4pairIKS5_St5tupleIJS5_N6BICYCL6_Utils17CL_HSM_CipherTextINS9_8CL_HSMqkEEESD_SD_SD_EEESt10_Select1stISF_ESt4lessIS5_ESaISF_EE11lower_boundERS7_
FN:142,146,_ZNSt20_Rb_tree_key_compareISt4lessINSt7__cxx1112basic_stringIcSt11char_traitsIcESaIcEEEEEC2Ev
FN:1631,1634,_ZNSt8_Rb_treeINSt7__cxx1112basic_stringIcSt11char_traitsIcESaIcEEESt4pairIKS5_St5tupleIJP14PolicyContractN6BICYCL6_Utils16CL_HSM_PublicKeyINSB_8CL_HSMqkEEENSC_17CL_HSM_CipherTextISE_EES5_EEESt10_Select1stISJ_ESt4lessIS5_ESaISJ_EE10_Auto_nodeC2IJS6_IS5_SI_EEEERSP_DpOT_
FN:1631,1634,_ZNSt8_Rb_treeINSt7__cxx1112basic_stringIcSt11char_traitsIcESaIcEEESt4pairIKS5_St5tupleIJS5_N6BICYCL6_Utils16CL_HSM_ClearTextINS9_8CL_HSMqkEEEEEESt10_Select1stISF_ESt4lessIS5_ESaISF_EE10_Auto_nodeC2IJS6_IS5_SE_EEEERSL_DpOT_
FN:1631,1634,_ZNSt8_Rb_treeINSt7__cxx1112basic_stringIcSt11char_traitsIcESaIcEEESt4pairIKS5_St5tupleIJS5_N6BICYCL6_Utils17CL_HSM_CipherTextINS9_8CL_HSMqkEEE11curve_pointS5_EEESt10_Select1stISG_ESt4lessIS5_ESaISG_EE10_Auto_nodeC2IJS6_IS5_SF_EEEERSM_DpOT_
FN:1631,1634,_ZNSt8_Rb_treeINSt7__cxx1112basic_stringIcSt11char_traitsIcESaIcEEESt4pairIKS5_St5tupleIJS5_N6BICYCL6_Utils17CL_HSM_CipherTextINS9_8CL_HSMqkEEESD_SD_SD_EEESt10_Select1stISF_ESt4lessIS5_ESaISF_EE10_Auto_nodeC2IJS6_IS5_SE_EEEERSL_DpOT_
FN:1636,1640,_ZNSt8_Rb_treeINSt7__cxx1112basic_stringIcSt11char_traitsIcESaIcEEESt4pairIKS5_St5tupleIJP14PolicyContractN6BICYCL6_Utils16CL_HSM_PublicKeyINSB_8CL_HSMqkEEENSC_17CL_HSM_CipherTextISE_EES5_EEESt10_Select1stISJ_ESt4lessIS5_ESaISJ_EE10_Auto_nodeD2Ev
FN:1636,1640,_ZNSt8_Rb_treeINSt7__cxx1112basic_stringIcSt11char_traitsIcESaIcEEESt4pairIKS5_St5tupleIJS5_N6BICYCL6_Utils16CL_HSM_ClearTextINS9_8CL_HSMqkEEEEEESt10_Select1stISF_ESt4lessIS5_ESaISF_EE10_Auto_nodeD2Ev
FN:1636,1640,_ZNSt8_Rb_treeINSt7__cxx1112basic_stringIcSt11char_traitsIcESaIcEEESt4pairIKS5_St5tupleIJS5_N6BICYCL6_Utils17CL_HSM_CipherTextINS9_8CL_HSMqkEEE11curve_pointS5_EEESt10_Select1stISG_ESt4lessIS5_ESaISG_EE10_Auto_nodeD2Ev
FN:1636,1640,_ZNSt8_Rb_treeINSt7__cxx1112basic_stringIcSt11char_traitsIcESaIcEEESt4pairIKS5_St5tupleIJS5_N6BICYCL6_Utils17CL_HSM_CipherTextINS9_8CL_HSMqkEEESD_SD_SD_EEESt10_Select1stISF_ESt4lessIS5_ESaISF_EE10_Auto_nodeD2Ev
FN:1647,1648,_ZNKSt8_Rb_treeINSt7__cxx1112basic_stringIcSt11char_traitsIcESaIcEEESt4pairIKS5_St5tupleIJP14PolicyContractN6BICYCL6_Utils16CL_HSM_PublicKeyINSB_8CL_HSMqkEEENSC_17CL_HSM_CipherTextISE_EES5_EEESt10_Select1stISJ_ESt4lessIS5_ESaISJ_EE10_Auto_node6_M_keyEv
FN:1647,1648,_ZNKSt8_Rb_treeINSt7__cxx1112basic_stringIcSt11char_traitsIcESaIcEEESt4pairIKS5_St5tupleIJS5_N6BICYCL6_Utils16CL_HSM_ClearTextINS9_8CL_HSMqkEEEEEESt10_Select1stISF_ESt4lessIS5_ESaISF_EE10_Auto_node6_M_keyEv
FN:1647,1648,_ZNKSt8_Rb_treeINSt7__cxx1112basic_stringIcSt11char_traitsIcESaIcEEESt4pairIKS5_St5tupleIJS5_N6BICYCL6_Utils17CL_HSM_CipherTextINS9_8CL_HSMqkEEE11curve_pointS5_EEESt10_Select1stISG_ESt4lessIS5_ESaISG_EE10_Auto_node6_M_keyEv
FN:1647,1648,_ZNKSt8_Rb_treeINSt7__cxx1112basic_stringIcSt11char_traitsIcESaIcEEESt4pairIKS5_St5tupleIJS5_N6BICYCL6_Utils17CL_HSM_CipherTextINS9_8CL_HSMqkEEESD_SD_SD_EEESt10_Select1stISF_ESt4lessIS5_ESaISF_EE10_Auto_node6_M_keyEv
FN:1651,1656,_ZNSt8_Rb_treeINSt7__cxx1112basic_stringIcSt11char_traitsIcESaIcEEESt4pairIKS5_St5tupleIJP14PolicyContractN6BICYCL6_Utils16CL_HSM_PublicKeyINSB_8CL_HSMqkEEENSC_17CL_HSM_CipherTextISE_EES5_EEESt10_Select1stISJ_ESt4lessIS5_ESaISJ_EE10_Auto_node9_M_insertES6_IPSt18_Rb_tree_node_baseSS_E
FN:1651,1656,_ZNSt8_Rb_treeINSt7__cxx1112basic_stringIcSt11char_traitsIcESaIcEEESt4pairIKS5_St5tupleIJS5_N6BICYCL6_Utils16CL_HSM_ClearTextINS9_8CL_HSMqkEEEEEESt10_Select1stISF_ESt4lessIS5_ESaISF_EE10_Auto_node9_M_insertES6_IPSt18_Rb_tree_node_baseSO_E
FN:1651,1656,_ZNSt8_Rb_treeINSt7__cxx1112basic_stringIcSt11char_traitsIcESaIcEEESt4pairIKS5_St5tupleIJS5_N6BICYCL6_Utils17CL_HSM_CipherTextINS9_8CL_HSMqkEEE11curve_pointS5_EEESt10_Select1stISG_ESt4lessIS5_ESaISG_EE10_Auto_node9_M_insertES6_IPSt18_Rb_tree_node_baseSP_E
FN:1651,1656,_ZNSt8_Rb_treeINSt7__cxx1112basic_stringIcSt11char_traitsIcESaIcEEESt4pairIKS5_St5tupleIJS5_N6BICYCL6_Utils17CL_HSM_CipherTextINS9_8CL_HSMqkEEESD_SD_SD_EEESt10_Select1stISF_ESt4lessIS5_ESaISF_EE10_Auto_node9_M_insertES6_IPSt18_Rb_tree_node_baseSO_E
FN:169,173,_ZNSt15_Rb_tree_headerC2Ev
FN:1926,1937,_ZNSt8_Rb_treeINSt7__cxx1112basic_stringIcSt11char_traitsIcESaIcEEESt4pairIKS5_St5tupleIJP14PolicyContractN6BICYCL6_Utils16CL_HSM_PublicKeyINSB_8CL_HSMqkEEENSC_17CL_HSM_CipherTextISE_EES5_EEESt10_Select1stISJ_ESt4lessIS5_ESaISJ_EE8_M_eraseEPSt13_Rb_tree_nodeISJ_E
FN:1926,1937,_ZNSt8_Rb_treeINSt7__cxx1112basic_stringIcSt11char_traitsIcESaIcEEESt4pairIKS5_St5tupleIJS5_N6BICYCL6_Utils16CL_HSM_ClearTextINS9_8CL_HSMqkEEEEEESt10_Select1stISF_ESt4lessIS5_ESaISF_EE8_M_eraseEPSt13_Rb_tree_nodeISF_E
FN:1926,1937,_ZNSt8_Rb_treeINSt7__cxx1112basic_stringIcSt11char_traitsIcESaIcEEESt4pairIKS5_St5tupleIJS5_N6BICYCL6_Utils17CL_HSM_CipherTextINS9_8CL_HSMqkEEE11curve_pointS5_EEESt10_Select1stISG_ESt4lessIS5_ESaISG_EE8_M_eraseEPSt13_Rb_tree_nodeISG_E
FN:1926,1937,_ZNSt8_Rb_treeINSt7__cxx1112basic_stringIcSt11char_traitsIcESaIcEEESt4pairIKS5_St5tupleIJS5_N6BICYCL6_Utils17CL_HSM_CipherTextINS9_8CL_HSMqkEEESD_SD_SD_EEESt10_Select1stISF_ESt4lessIS5_ESaISF_EE8_M_eraseEPSt13_Rb_tree_nodeISF_E
FN:1943,1953,_ZNSt8_Rb_treeINSt7__cxx1112basic_stringIcSt11char_traitsIcESaIcEEESt4pairIKS5_St5tupleIJP14PolicyContractN6BICYCL6_Utils16CL_HSM_PublicKeyINSB_8CL_HSMqkEEENSC_17CL_HSM_CipherTextISE_EES5_EEESt10_Select1stISJ_ESt4lessIS5_ESaISJ_EE14_M_lower_boundEPSt13_Rb_tree_nodeISJ_EPSt18_Rb_tree_node_baseRS7_
FN:1943,1953,_ZNSt8_Rb_treeINSt7__cxx1112basic_stringIcSt11char_traitsIcESaIcEEESt4pairIKS5_St5tupleIJS5_N6BICYCL6_Utils16CL_HSM_ClearTextINS9_8CL_HSMqkEEEEEESt10_Select1stISF_ESt4lessIS5_ESaISF_EE14_M_lower_boundEPSt13_Rb_tree_nodeISF_EPSt18_Rb_tree_node_baseRS7_
FN:1943,1953,_ZNSt8_Rb_treeINSt7__cxx1112basic_stringIcSt11char_traitsIcESaIcEEESt4pairIKS5_St5tupleIJS5_N6BICYCL6_Utils17CL_HSM_CipherTextINS9_8CL_HSMqkEEE11curve_pointS5_EEESt10_Select1stISG_ESt4lessIS5_ESaISG_EE14_M_lower_boundEPSt13_Rb_tree_nodeISG_EPSt18_Rb_tree_node_baseRS7_
FN:1943,1953,_ZNSt8_Rb_treeINSt7__cxx1112basic_stringIcSt11char_traitsIcESaIcEEESt4pairIKS5_St5tupleIJS5_N6BICYCL6_Utils17CL_HSM_CipherTextINS9_8CL_HSMqkEEESD_SD_SD_EEESt10_Select1stISF_ESt4lessIS5_ESaISF_EE14_M_lower_boundEPSt13_Rb_tree_nodeISF_EPSt18_Rb_tree_node_baseRS7_
FN:202,208,_ZNSt15_Rb_tree_header8_M_resetEv
FN:2104,2128,_ZNSt8_Rb_treeINSt7__cxx1112basic_stringIcSt11char_traitsIcESaIcEEESt4pairIKS5_St5tupleIJP14PolicyContractN6BICYCL6_Utils16CL_HSM_PublicKeyINSB_8CL_HSMqkEEENSC_17CL_HSM_CipherTextISE_EES5_EEESt10_Select1stISJ_ESt4lessIS5_ESaISJ_EE24_M_get_insert_unique_posERS7_
FN:2104,2128,_ZNSt8_Rb_treeINSt7__cxx1112basic_stringIcSt11char_traitsIcESaIcEEESt4pairIKS5_St5tupleIJS5_N6BICYCL6_Utils16CL_HSM_ClearTextINS9_8CL_HSMqkEEEEEESt10_Select1stISF_ESt4lessIS5_ESaISF_EE24_M_get_insert_unique_posERS7_
FN:2104,2128,_ZNSt8_Rb_treeINSt7__cxx1112basic_stringIcSt11char_traitsIcESaIcEEESt4pairIKS5_St5tupleIJS5_N6BICYCL6_Utils17CL_HSM_CipherTextINS9_8CL_HSMqkEEE11curve_pointS5_EEESt10_Select1stISG_ESt4lessIS5_ESaISG_EE24_M_get_insert_unique_posERS7_
FN:2104,2128,_ZNSt8_Rb_treeINSt7__cxx1112basic_stringIcSt11char_traitsIcESaIcEEESt4pairIKS5_St5tupleIJS5_N6BICYCL6_Utils17CL_HSM_CipherTextINS9_8CL_HSMqkEEESD_SD_SD_EEESt10_Select1stISF_ESt4lessIS5_ESaISF_EE24_M_get_insert_unique_posERS7_
FN:2206,2257,_ZNSt8_Rb_treeINSt7__cxx1112basic_stringIcSt11char_traitsIcESaIcEEESt4pairIKS5_St5tupleIJP14PolicyContractN6BICYCL6_Utils16CL_HSM_PublicKeyINSB_8CL_HSMqkEEENSC_17CL_HSM_CipherTextISE_EES5_EEESt10_Select1stISJ_ESt4lessIS5_ESaISJ_EE29_M_get_insert_hint_unique_posESt23_Rb_tree_const_iteratorISJ_ERS7_
FN:2206,2257,_ZNSt8_Rb_treeINSt7__cxx1112basic_stringIcSt11char_traitsIcESaIcEEESt4pairIKS5_St5tupleIJS5_N6BICYCL6_Utils16CL_HSM_ClearTextINS9_8CL_HSMqkEEEEEESt10_Select1stISF_ESt4lessIS5_ESaISF_EE29_M_get_insert_hint_unique_posESt23_Rb_tree_const_iteratorISF_ERS7_
FN:2206,2257,_ZNSt8_Rb_treeINSt7__cxx1112basic_stringIcSt11char_traitsIcESaIcEEESt4pairIKS5_St5tupleIJS5_N6BICYCL6_Utils17CL_HSM_CipherTextINS9_8CL_HSMqkEEE11curve_pointS5_EEESt10_Select1stISG_ESt4lessIS5_ESaISG_EE29_M_get_insert_hint_unique_posESt23_Rb_tree_const_iteratorISG_ERS7_
FN:2206,2257,_ZNSt8_Rb_treeINSt7__cxx1112basic_stringIcSt11char_traitsIcESaIcEEESt4pairIKS5_St5tupleIJS5_N6BICYCL6_Utils17CL_HSM_CipherTextINS9_8CL_HSMqkEEESD_SD_SD_EEESt10_Select1stISF_ESt4lessIS5_ESaISF_EE29_M_get_insert_hint_unique_posESt23_Rb_tree_const_iteratorISF_ERS7_
FN:230,231,_ZNSt13_Rb_tree_nodeISt4pairIKNSt7__cxx1112basic_stringIcSt11char_traitsIcESaIcEEESt5tupleIJP14PolicyContractN6BICYCL6_Utils16CL_HSM_PublicKeyINSB_8CL_HSMqkEEENSC_17CL_HSM_CipherTextISE_EES6_EEEE9_M_valptrEv
FN:230,231,_ZNSt13_Rb_tree_nodeISt4pairIKNSt7__cxx1112basic_stringIcSt11char_traitsIcESaIcEEESt5tupleIJS6_N6BICYCL6_Utils16CL_HSM_ClearTextINS9_8CL_HSMqkEEEEEEE9_M_valptrEv
FN:230,231,_ZNSt13_Rb_tree_nodeISt4pairIKNSt7__cxx1112basic_stringIcSt11char_traitsIcESaIcEEESt5tupleIJS6_N6BICYCL6_Utils17CL_HSM_CipherTextINS9_8CL_HSMqkEEE11curve_pointS6_EEEE9_M_valptrEv
FN:230,231,_ZNSt13_Rb_tree_nodeISt4pairIKNSt7__cxx1112basic_stringIcSt11char_traitsIcESaIcEEESt5tupleIJS6_N6BICYCL6_Utils17CL_HSM_CipherTextINS9_8CL_HSMqkEEESD_SD_SD_EEEE9_M_valptrEv
FN:234,235,_ZNKSt13_Rb_tree_nodeISt4pairIKNSt7__cxx1112basic_stringIcSt11char_traitsIcESaIcEEESt5tupleIJP14PolicyContractN6BICYCL6_Utils16CL_HSM_PublicKeyINSB_8CL_HSMqkEEENSC_17CL_HSM_CipherTextISE_EES6_EEEE9_M_valptrEv
FN:234,235,_ZNKSt13_Rb_tree_nodeISt4pairIKNSt7__cxx1112basic_stringIcSt11char_traitsIcESaIcEEESt5tupleIJS6_N6BICYCL6_Utils16CL_HSM_ClearTextINS9_8CL_HSMqkEEEEEEE9_M_valptrEv
FN:234,235,_ZNKSt13_Rb_tree_nodeISt4pairIKNSt7__cxx1112basic_stringIcSt11char_traitsIcESaIcEEESt5tupleIJS6_N6BICYCL6_Utils17CL_HSM_CipherTextINS9_8CL_HSMqkEEE11curve_pointS6_EEEE9_M_valptrEv
FN:234,235,_ZNKSt13_Rb_tree_nodeISt4pairIKNSt7__cxx1112basic_stringIcSt11char_traitsIcESaIcEEESt5tupleIJS6_N6BICYCL6_Utils17CL_HSM_CipherTextINS9_8CL_HSMqkEEESD_SD_SD_EEEE9_M_valptrEv
FN:2373,2385,_ZNSt8_Rb_treeINSt7__cxx1112basic_stringIcSt11char_traitsIcESaIcEEESt4pairIKS5_St5tupleIJP14PolicyContractN6BICYCL6_Utils16CL_HSM_PublicKeyINSB_8CL_HSMqkEEENSC_17CL_HSM_CipherTextISE_EES5_EEESt10_Select1stISJ_ESt4lessIS5_ESaISJ_EE14_M_insert_nodeEPSt18_Rb_tree_node_baseSR_PSt13_Rb_tree_nodeISJ_E
FN:2373,2385,_ZNSt8_Rb_treeINSt7__cxx1112basic_stringIcSt11char_traitsIcESaIcEEESt4pairIKS5_St5tupleIJS5_N6BICYCL6_Utils16CL_HSM_ClearTextINS9_8CL_HSMqkEEEEEESt10_Select1stISF_ESt4lessIS5_ESaISF_EE14_M_insert_nodeEPSt18_Rb_tree_node_baseSN_PSt13_Rb_tree_nodeISF_E
FN:2373,2385,_ZNSt8_Rb_treeINSt7__cxx1112basic_stringIcSt11char_traitsIcESaIcEEESt4pairIKS5_St5tupleIJS5_N6BICYCL6_Utils17CL_HSM_CipherTextINS9_8CL_HSMqkEEE11curve_pointS5_EEESt10_Select1stISG_ESt4lessIS5_ESaISG_EE14_M_insert_nodeEPSt18_Rb_tree_node_baseSO_PSt13_Rb_tree_nodeISG_E
FN:2373,2385,_ZNSt8_Rb_treeINSt7__cxx1112basic_stringIcSt11char_traitsIcESaIcEEESt4pairIKS5_St5tupleIJS5_N6BICYCL6_Utils17CL_HSM_CipherTextINS9_8CL_HSMqkEEESD_SD_SD_EEESt10_Select1stISF_ESt4lessIS5_ESaISF_EE14_M_insert_nodeEPSt18_Rb_tree_node_baseSN_PSt13_Rb_tree_nodeISF_E
FN:2454,2463,_ZNSt8_Rb_treeINSt7__cxx1112basic_stringIcSt11char_traitsIcESaIcEEESt4pairIKS5_St5tupleIJP14PolicyContractN6BICYCL6_Utils16CL_HSM_PublicKeyINSB_8CL_HSMqkEEENSC_17CL_HSM_CipherTextISE_EES5_EEESt10_Select1stISJ_ESt4lessIS5_ESaISJ_EE22_M_emplace_hint_uniqueIJS6_IS5_SI_EEEESt17_Rb_tree_iteratorISJ_ESt23_Rb_tree_const_iteratorISJ_EDpOT_
FN:2454,2463,_ZNSt8_Rb_treeINSt7__cxx1112basic_stringIcSt11char_traitsIcESaIcEEESt4pairIKS5_St5tupleIJS5_N6BICYCL6_Utils16CL_HSM_ClearTextINS9_8CL_HSMqkEEEEEESt10_Select1stISF_ESt4lessIS5_ESaISF_EE22_M_emplace_hint_uniqueIJS6_IS5_SE_EEEESt17_Rb_tree_iteratorISF_ESt23_Rb_tree_const_iteratorISF_EDpOT_
FN:2454,2463,_ZNSt8_Rb_treeINSt7__cxx1112basic_stringIcSt11char_traitsIcESaIcEEESt4pairIKS5_St5tupleIJS5_N6BICYCL6_Utils17CL_HSM_CipherTextINS9_8CL_HSMqkEEE11curve_pointS5_EEESt10_Select1stISG_ESt4lessIS5_ESaISG_EE22_M_emplace_hint_uniqueIJS6_IS5_SF_EEEESt17_Rb_tree_iteratorISG_ESt23_Rb_tree_const_iteratorISG_EDpOT_
FN:2454,2463,_ZNSt8_Rb_treeINSt7__cxx1112basic_stringIcSt11char_traitsIcESaIcEEESt4pairIKS5_St5tupleIJS5_N6BICYCL6_Utils17CL_HSM_CipherTextINS9_8CL_HSMqkEEESD_SD_SD_EEESt10_Select1stISF_ESt4lessIS5_ESaISF_EE22_M_emplace_hint_uniqueIJS6_IS5_SE_EEEESt17_Rb_tree_iteratorISF_ESt23_Rb_tree_const_iteratorISF_EDpOT_
FN:2525,2532,_ZNSt8_Rb_treeINSt7__cxx1112basic_stringIcSt11char_traitsIcESaIcEEESt4pairIKS5_St5tupleIJP14PolicyContractN6BICYCL6_Utils16CL_HSM_PublicKeyINSB_8CL_HSMqkEEENSC_17CL_HSM_CipherTextISE_EES5_EEESt10_Select1stISJ_ESt4lessIS5_ESaISJ_EE4findERS7_
FN:2525,2532,_ZNSt8_Rb_treeINSt7__cxx1112basic_stringIcSt11char_traitsIcESaIcEEESt4pairIKS5_St5tupleIJS5_N6BICYCL6_Utils16CL_HSM_ClearTextINS9_8CL_HSMqkEEEEEESt10_Select1stISF_ESt4lessIS5_ESaISF_EE4findERS7_
FN:2525,2532,_ZNSt8_Rb_treeINSt7__cxx1112basic_stringIcSt11char_traitsIcESaIcEEESt4pairIKS5_St5tupleIJS5_N6BICYCL6_Utils17CL_HSM_CipherTextINS9_8CL_HSMqkEEE11curve_pointS5_EEESt10_Select1stISG_ESt4lessIS5_ESaISG_EE4findERS7_
FN:2525,2532,_ZNSt8_Rb_treeINSt7__cxx1112basic_stringIcSt11char_traitsIcESaIcEEESt4pairIKS5_St5tupleIJS5_N6BICYCL6_Utils17CL_HSM_CipherTextINS9_8CL_HSMqkEEESD_SD_SD_EEESt10_Select1stISF_ESt4lessIS5_ESaISF_EE4findERS7_
FN:269,270,_ZNSt17_Rb_tree_iteratorISt4pairIKNSt7__cxx1112basic_stringIcSt11char_traitsIcESaIcEEESt5tupleIJP14PolicyContractN6BICYCL6_Utils16CL_HSM_PublicKeyINSB_8CL_HSMqkEEENSC_17CL_HSM_CipherTextISE_EES6_EEEEC2EPSt18_Rb_tree_node_base
FN:269,270,_ZNSt17_Rb_tree_iteratorISt4pairIKNSt7__cxx1112basic_stringIcSt11char_traitsIcESaIcEEESt5tupleIJS6_N6BICYCL6_Utils16CL_HSM_ClearTextINS9_8CL_HSMqkEEEEEEEC2EPSt18_Rb_tree_node_base
FN:269,270,_ZNSt17_Rb_tree_iteratorISt4pairIKNSt7__cxx1112basic_stringIcSt11char_traitsIcESaIcEEESt5tupleIJS6_N6BICYCL6_Utils17CL_HSM_CipherTextINS9_8CL_HSMqkEEE11curve_pointS6_EEEEC2EPSt18_Rb_tree_node_base
FN:269,270,_ZNSt17_Rb_tree_iteratorISt4pairIKNSt7__cxx1112basic_stringIcSt11char_traitsIcESaIcEEESt5tupleIJS6_N6BICYCL6_Utils17CL_HSM_CipherTextINS9_8CL_HSMqkEEESD_SD_SD_EEEEC2EPSt18_Rb_tree_node_base
FN:273,274,_ZNKSt17_Rb_tree_iteratorISt4pairIKNSt7__cxx1112basic_stringIcSt11char_traitsIcESaIcEEESt5tupleIJP14PolicyContractN6BICYCL6_Utils16CL_HSM_PublicKeyINSB_8CL_HSMqkEEENSC_17CL_HSM_CipherTextISE_EES6_EEEEdeEv
FN:273,274,_ZNKSt17_Rb_tree_iteratorISt4pairIKNSt7__cxx1112basic_stringIcSt11char_traitsIcESaIcEEESt5tupleIJS6_N6BICYCL6_Utils16CL_HSM_ClearTextINS9_8CL_HSMqkEEEEEEEdeEv
FN:273,274,_ZNKSt17_Rb_tree_iteratorISt4pairIKNSt7__cxx1112basic_stringIcSt11char_traitsIcESaIcEEESt5tupleIJS6_N6BICYCL6_Utils17CL_HSM_CipherTextINS9_8CL_HSMqkEEE11curve_pointS6_EEEEdeEv
FN:273,274,_ZNKSt17_Rb_tree_iteratorISt4pairIKNSt7__cxx1112basic_stringIcSt11char_traitsIcESaIcEEESt5tupleIJS6_N6BICYCL6_Utils17CL_HSM_CipherTextINS9_8CL_HSMqkEEESD_SD_SD_EEEEdeEv
FN:281,285,_ZNSt17_Rb_tree_iteratorISt4pairIKNSt7__cxx1112basic_stringIcSt11char_traitsIcESaIcEEESt5tupleIJP14PolicyContractN6BICYCL6_Utils16CL_HSM_PublicKeyINSB_8CL_HSMqkEEENSC_17CL_HSM_CipherTextISE_EES6_EEEEppEv
FN:281,285,_ZNSt17_Rb_tree_iteratorISt4pairIKNSt7__cxx1112basic_stringIcSt11char_traitsIcESaIcEEESt5tupleIJS6_N6BICYCL6_Utils16CL_HSM_ClearTextINS9_8CL_HSMqkEEEEEEEppEv
FN:281,285,_ZNSt17_Rb_tree_iteratorISt4pairIKNSt7__cxx1112basic_stringIcSt11char_traitsIcESaIcEEESt5tupleIJS6_N6BICYCL6_Utils17CL_HSM_CipherTextINS9_8CL_HSMqkEEE11curve_pointS6_EEEEppEv
FN:281,285,_ZNSt17_Rb_tree_iteratorISt4pairIKNSt7__cxx1112basic_stringIcSt11char_traitsIcESaIcEEESt5tupleIJS6_N6BICYCL6_Utils17CL_HSM_CipherTextINS9_8CL_HSMqkEEESD_SD_SD_EEEEppEv
FN:296,300,_ZNSt17_Rb_tree_iteratorISt4pairIKNSt7__cxx1112basic_stringIcSt11char_traitsIcESaIcEEESt5tupleIJP14PolicyContractN6BICYCL6_Utils16CL_HSM_PublicKeyINSB_8CL_HSMqkEEENSC_17CL_HSM_CipherTextISE_EES6_EEEEmmEv
FN:296,300,_ZNSt17_Rb_tree_iteratorISt4pairIKNSt7__cxx1112basic_stringIcSt11char_traitsIcESaIcEEESt5tupleIJS6_N6BICYCL6_Utils16CL_HSM_ClearTextINS9_8CL_HSMqkEEEEEEEmmEv
FN:296,300,_ZNSt17_Rb_tree_iteratorISt4pairIKNSt7__cxx1112basic_stringIcSt11char_traitsIcESaIcEEESt5tupleIJS6_N6BICYCL6_Utils17CL_HSM_CipherTextINS9_8CL_HSMqkEEE11curve_pointS6_EEEEmmEv
FN:296,300,_ZNSt17_Rb_tree_iteratorISt4pairIKNSt7__cxx1112basic_stringIcSt11char_traitsIcESaIcEEESt5tupleIJS6_N6BICYCL6_Utils17CL_HSM_CipherTextINS9_8CL_HSMqkEEESD_SD_SD_EEEEmmEv
FN:311,312,_ZSteqRKSt17_Rb_tree_iteratorISt4pairIKNSt7__cxx1112basic_stringIcSt11char_traitsIcESaIcEEESt5tupleIJP14PolicyContractN6BICYCL6_Utils16CL_HSM_PublicKeyINSB_8CL_HSMqkEEENSC_17CL_HSM_CipherTextISE_EES6_EEEESM_
FN:311,312,_ZSteqRKSt17_Rb_tree_iteratorISt4pairIKNSt7__cxx1112basic_stringIcSt11char_traitsIcESaIcEEESt5tupleIJS6_N6BICYCL6_Utils16CL_HSM_ClearTextINS9_8CL_HSMqkEEEEEEESI_
FN:311,312,_ZSteqRKSt17_Rb_tree_iteratorISt4pairIKNSt7__cxx1112basic_stringIcSt11char_traitsIcESaIcEEESt5tupleIJS6_N6BICYCL6_Utils17CL_HSM_CipherTextINS9_8CL_HSMqkEEE11curve_pointS6_EEEESJ_
FN:311,312,_ZSteqRKSt17_Rb_tree_iteratorISt4pairIKNSt7__cxx1112basic_stringIcSt11char_traitsIcESaIcEEESt5tupleIJS6_N6BICYCL6_Utils17CL_HSM_CipherTextINS9_8CL_HSMqkEEESD_SD_SD_EEEESI_
FN:316,317,_ZStneRKSt17_Rb_tree_iteratorISt4pairIKNSt7__cxx1112basic_stringIcSt11char_traitsIcESaIcEEESt5tupleIJP14PolicyContractN6BICYCL6_Utils16CL_HSM_PublicKeyINSB_8CL_HSMqkEEENSC_17CL_HSM_CipherTextISE_EES6_EEEESM_
FN:316,317,_ZStneRKSt17_Rb_tree_iteratorISt4pairIKNSt7__cxx1112basic_stringIcSt11char_traitsIcESaIcEEESt5tupleIJS6_N6BICYCL6_Utils16CL_HSM_ClearTextINS9_8CL_HSMqkEEEEEEESI_
FN:316,317,_ZStneRKSt17_Rb_tree_iteratorISt4pairIKNSt7__cxx1112basic_stringIcSt11char_traitsIcESaIcEEESt5tupleIJS6_N6BICYCL6_Utils17CL_HSM_CipherTextINS9_8CL_HSMqkEEE11curve_pointS6_EEEESJ_
FN:316,317,_ZStneRKSt17_Rb_tree_iteratorISt4pairIKNSt7__cxx1112basic_stringIcSt11char_traitsIcESaIcEEESt5tupleIJS6_N6BICYCL6_Utils17CL_HSM_CipherTextINS9_8CL_HSMqkEEESD_SD_SD_EEEESI_
FN:346,347,_ZNSt23_Rb_tree_const_iteratorISt4pairIKNSt7__cxx1112basic_stringIcSt11char_traitsIcESaIcEEESt5tupleIJP14PolicyContractN6BICYCL6_Utils16CL_HSM_PublicKeyINSB_8CL_HSMqkEEENSC_17CL_HSM_CipherTextISE_EES6_EEEEC2ERKSt17_Rb_tree_iteratorISJ_E
FN:346,347,_ZNSt23_Rb_tree_const_iteratorISt4pairIKNSt7__cxx1112basic_stringIcSt11char_traitsIcESaIcEEESt5tupleIJS6_N6BICYCL6_Utils16CL_HSM_ClearTextINS9_8CL_HSMqkEEEEEEEC2ERKSt17_Rb_tree_iteratorISF_E
FN:346,347,_ZNSt23_Rb_tree_const_iteratorISt4pairIKNSt7__cxx1112basic_stringIcSt11char_traitsIcESaIcEEESt5tupleIJS6_N6BICYCL6_Utils17CL_HSM_CipherTextINS9_8CL_HSMqkEEE11curve_pointS6_EEEEC2ERKSt17_Rb_tree_iteratorISG_E
FN:346,347,_ZNSt23_Rb_tree_const_iteratorISt4pairIKNSt7__cxx1112basic_stringIcSt11char_traitsIcESaIcEEESt5tupleIJS6_N6BICYCL6_Utils17CL_HSM_CipherTextINS9_8CL_HSMqkEEESD_SD_SD_EEEEC2ERKSt17_Rb_tree_iteratorISF_E
FN:350,351,_ZNKSt23_Rb_tree_const_iteratorISt4pairIKNSt7__cxx1112basic_stringIcSt11char_traitsIcESaIcEEESt5tupleIJP14PolicyContractN6BICYCL6_Utils16CL_HSM_PublicKeyINSB_8CL_HSMqkEEENSC_17CL_HSM_CipherTextISE_EES6_EEEE13_M_const_castEv
FN:350,351,_ZNKSt23_Rb_tree_const_iteratorISt4pairIKNSt7__cxx1112basic_stringIcSt11char_traitsIcESaIcEEESt5tupleIJS6_N6BICYCL6_Utils16CL_HSM_ClearTextINS9_8CL_HSMqkEEEEEEE13_M_const_castEv
FN:350,351,_ZNKSt23_Rb_tree_const_iteratorISt4pairIKNSt7__cxx1112basic_stringIcSt11char_traitsIcESaIcEEESt5tupleIJS6_N6BICYCL6_Utils17CL_HSM_CipherTextINS9_8CL_HSMqkEEE11curve_pointS6_EEEE13_M_const_castEv
FN:350,351,_ZNKSt23_Rb_tree_const_iteratorISt4pairIKNSt7__cxx1112basic_stringIcSt11char_traitsIcESaIcEEESt5tupleIJS6_N6BICYCL6_Utils17CL_HSM_CipherTextINS9_8CL_HSMqkEEESD_SD_SD_EEEE13_M_const_castEv
FN:545,546,_ZNSt8_Rb_treeINSt7__cxx1112basic_stringIcSt11char_traitsIcESaIcEEESt4pairIKS5_St5tupleIJP14PolicyContractN6BICYCL6_Utils16CL_HSM_PublicKeyINSB_8CL_HSMqkEEENSC_17CL_HSM_CipherTextISE_EES5_EEESt10_Select1stISJ_ESt4lessIS5_ESaISJ_EE21_M_get_Node_allocatorEv
FN:545,546,_ZNSt8_Rb_treeINSt7__cxx1112basic_stringIcSt11char_traitsIcESaIcEEESt4pairIKS5_St5tupleIJS5_N6BICYCL6_Utils16CL_HSM_ClearTextINS9_8CL_HSMqkEEEEEESt10_Select1stISF_ESt4lessIS5_ESaISF_EE21_M_get_Node_allocatorEv
FN:545,546,_ZNSt8_Rb_treeINSt7__cxx1112basic_stringIcSt11char_traitsIcESaIcEEESt4pairIKS5_St5tupleIJS5_N6BICYCL6_Utils17CL_HSM_CipherTextINS9_8CL_HSMqkEEE11curve_pointS5_EEESt10_Select1stISG_ESt4lessIS5_ESaISG_EE21_M_get_Node_allocatorEv
FN:545,546,_ZNSt8_Rb_treeINSt7__cxx1112basic_stringIcSt11char_traitsIcESaIcEEESt4pairIKS5_St5tupleIJS5_N6BICYCL6_Utils17CL_HSM_CipherTextINS9_8CL_HSMqkEEESD_SD_SD_EEESt10_Select1stISF_ESt4lessIS5_ESaISF_EE21_M_get_Node_allocatorEv
FN:558,559,_ZNSt8_Rb_treeINSt7__cxx1112basic_stringIcSt11char_traitsIcESaIcEEESt4pairIKS5_St5tupleIJP14PolicyContractN6BICYCL6_Utils16CL_HSM_PublicKeyINSB_8CL_HSMqkEEENSC_17CL_HSM_CipherTextISE_EES5_EEESt10_Select1stISJ_ESt4lessIS5_ESaISJ_EE11_M_get_nodeEv
FN:558,559,_ZNSt8_Rb_treeINSt7__cxx1112basic_stringIcSt11char_traitsIcESaIcEEESt4pairIKS5_St5tupleIJS5_N6BICYCL6_Utils16CL_HSM_ClearTextINS9_8CL_HSMqkEEEEEESt10_Select1stISF_ESt4lessIS5_ESaISF_EE11_M_get_nodeEv
FN:558,559,_ZNSt8_Rb_treeINSt7__cxx1112basic_stringIcSt11char_traitsIcESaIcEEESt4pairIKS5_St5tupleIJS5_N6BICYCL6_Utils17CL_HSM_CipherTextINS9_8CL_HSMqkEEE11curve_pointS5_EEESt10_Select1stISG_ESt4lessIS5_ESaISG_EE11_M_get_nodeEv
FN:558,559,_ZNSt8_Rb_treeINSt7__cxx1112basic_stringIcSt11char_traitsIcESaIcEEESt4pairIKS5_St5tupleIJS5_N6BICYCL6_Utils17CL_HSM_CipherTextINS9_8CL_HSMqkEEESD_SD_SD_EEESt10_Select1stISF_ESt4lessIS5_ESaISF_EE11_M_get_nodeEv
FN:562,563,_ZNSt8_Rb_treeINSt7__cxx1112basic_stringIcSt11char_traitsIcESaIcEEESt4pairIKS5_St5tupleIJP14PolicyContractN6BICYCL6_Utils16CL_HSM_PublicKeyINSB_8CL_HSMqkEEENSC_17CL_HSM_CipherTextISE_EES5_EEESt10_Select1stISJ_ESt4lessIS5_ESaISJ_EE11_M_put_nodeEPSt13_Rb_tree_nodeISJ_E
FN:562,563,_ZNSt8_Rb_treeINSt7__cxx1112basic_stringIcSt11char_traitsIcESaIcEEESt4pairIKS5_St5tupleIJS5_N6BICYCL6_Utils16CL_HSM_ClearTextINS9_8CL_HSMqkEEEEEESt10_Select1stISF_ESt4lessIS5_ESaISF_EE11_M_put_nodeEPSt13_Rb_tree_nodeISF_E
FN:562,563,_ZNSt8_Rb_treeINSt7__cxx1112basic_stringIcSt11char_traitsIcESaIcEEESt4pairIKS5_St5tupleIJS5_N6BICYCL6_Utils17CL_HSM_CipherTextINS9_8CL_HSMqkEEE11curve_pointS5_EEESt10_Select1stISG_ESt4lessIS5_ESaISG_EE11_M_put_nodeEPSt13_Rb_tree_nodeISG_E
FN:562,563,_ZNSt8_Rb_treeINSt7__cxx1112basic_stringIcSt11char_traitsIcESaIcEEESt4pairIKS5_St5tupleIJS5_N6BICYCL6_Utils17CL_HSM_CipherTextINS9_8CL_HSMqkEEESD_SD_SD_EEESt10_Select1stISF_ESt4lessIS5_ESaISF_EE11_M_put_nodeEPSt13_Rb_tree_nodeISF_E
FN:588,603,_ZNSt8_Rb_treeINSt7__cxx1112basic_stringIcSt11char_traitsIcESaIcEEESt4pairIKS5_St5tupleIJP14PolicyContractN6BICYCL6_Utils16CL_HSM_PublicKeyINSB_8CL_HSMqkEEENSC_17CL_HSM_CipherTextISE_EES5_EEESt10_Select1stISJ_ESt4lessIS5_ESaISJ_EE17_M_construct_nodeIJS6_IS5_SI_EEEEvPSt13_Rb_tree_nodeISJ_EDpOT_
FN:588,603,_ZNSt8_Rb_treeINSt7__cxx1112basic_stringIcSt11char_traitsIcESaIcEEESt4pairIKS5_St5tupleIJS5_N6BICYCL6_Utils16CL_HSM_ClearTextINS9_8CL_HSMqkEEEEEESt10_Select1stISF_ESt4lessIS5_ESaISF_EE17_M_construct_nodeIJS6_IS5_SE_EEEEvPSt13_Rb_tree_nodeISF_EDpOT_
FN:588,603,_ZNSt8_Rb_treeINSt7__cxx1112basic_stringIcSt11char_traitsIcESaIcEEESt4pairIKS5_St5tupleIJS5_N6BICYCL6_Utils17CL_HSM_CipherTextINS9_8CL_HSMqkEEE11curve_pointS5_EEESt10_Select1stISG_ESt4lessIS5_ESaISG_EE17_M_construct_nodeIJS6_IS5_SF_EEEEvPSt13_Rb_tree_nodeISG_EDpOT_
FN:588,603,_ZNSt8_Rb_treeINSt7__cxx1112basic_stringIcSt11char_traitsIcESaIcEEESt4pairIKS5_St5tupleIJS5_N6BICYCL6_Utils17CL_HSM_CipherTextINS9_8CL_HSMqkEEESD_SD_SD_EEESt10_Select1stISF_ESt4lessIS5_ESaISF_EE17_M_construct_nodeIJS6_IS5_SE_EEEEvPSt13_Rb_tree_nodeISF_EDpOT_
FN:607,612,_ZNSt8_Rb_treeINSt7__cxx1112basic_stringIcSt11char_traitsIcESaIcEEESt4pairIKS5_St5tupleIJP14PolicyContractN6BICYCL6_Utils16CL_HSM_PublicKeyINSB_8CL_HSMqkEEENSC_17CL_HSM_CipherTextISE_EES5_EEESt10_Select1stISJ_ESt4lessIS5_ESaISJ_EE14_M_create_nodeIJS6_IS5_SI_EEEEPSt13_Rb_tree_nodeISJ_EDpOT_
FN:607,612,_ZNSt8_Rb_treeINSt7__cxx1112basic_stringIcSt11char_traitsIcESaIcEEESt4pairIKS5_St5tupleIJS5_N6BICYCL6_Utils16CL_HSM_ClearTextINS9_8CL_HSMqkEEEEEESt10_Select1stISF_ESt4lessIS5_ESaISF_EE14_M_create_nodeIJS6_IS5_SE_EEEEPSt13_Rb_tree_nodeISF_EDpOT_
FN:607,612,_ZNSt8_Rb_treeINSt7__cxx1112basic_stringIcSt11char_traitsIcESaIcEEESt4pairIKS5_St5tupleIJS5_N6BICYCL6_Utils17CL_HSM_CipherTextINS9_8CL_HSMqkEEE11curve_pointS5_EEESt10_Select1stISG_ESt4lessIS5_ESaISG_EE14_M_create_nodeIJS6_IS5_SF_EEEEPSt13_Rb_tree_nodeISG_EDpOT_
FN:607,612,_ZNSt8_Rb_treeINSt7__cxx1112basic_stringIcSt11char_traitsIcESaIcEEESt4pairIKS5_St5tupleIJS5_N6BICYCL6_Utils17CL_HSM_CipherTextINS9_8CL_HSMqkEEESD_SD_SD_EEESt10_Select1stISF_ESt4lessIS5_ESaISF_EE14_M_create_nodeIJS6_IS5_SE_EEEEPSt13_Rb_tree_nodeISF_EDpOT_
FN:616,624,_ZNSt8_Rb_treeINSt7__cxx1112basic_stringIcSt11char_traitsIcESaIcEEESt4pairIKS5_St5tupleIJP14PolicyContractN6BICYCL6_Utils16CL_HSM_PublicKeyINSB_8CL_HSMqkEEENSC_17CL_HSM_CipherTextISE_EES5_EEESt10_Select1stISJ_ESt4lessIS5_ESaISJ_EE15_M_destroy_nodeEPSt13_Rb_tree_nodeISJ_E
FN:616,624,_ZNSt8_Rb_treeINSt7__cxx1112basic_stringIcSt11char_traitsIcESaIcEEESt4pairIKS5_St5tupleIJS5_N6BICYCL6_Utils16CL_HSM_ClearTextINS9_8CL_HSMqkEEEEEESt10_Select1stISF_ESt4lessIS5_ESaISF_EE15_M_destroy_nodeEPSt13_Rb_tree_nodeISF_E
FN:616,624,_ZNSt8_Rb_treeINSt7__cxx1112basic_stringIcSt11char_traitsIcESaIcEEESt4pairIKS5_St5tupleIJS5_N6BICYCL6_Utils17CL_HSM_CipherTextINS9_8CL_HSMqkEEE11curve_pointS5_EEESt10_Select1stISG_ESt4lessIS5_ESaISG_EE15_M_destroy_nodeEPSt13_Rb_tree_nodeISG_E
FN:616,624,_ZNSt8_Rb_treeINSt7__cxx1112basic_stringIcSt11char_traitsIcESaIcEEESt4pairIKS5_St5tupleIJS5_N6BICYCL6_Utils17CL_HSM_CipherTextINS9_8CL_HSMqkEEESD_SD_SD_EEESt10_Select1stISF_ESt4lessIS5_ESaISF_EE15_M_destroy_nodeEPSt13_Rb_tree_nodeISF_E
FN:627,631,_ZNSt8_Rb_treeINSt7__cxx1112basic_stringIcSt11char_traitsIcESaIcEEESt4pairIKS5_St5tupleIJP14PolicyContractN6BICYCL6_Utils16CL_HSM_PublicKeyINSB_8CL_HSMqkEEENSC_17CL_HSM_CipherTextISE_EES5_EEESt10_Select1stISJ_ESt4lessIS5_ESaISJ_EE12_M_drop_nodeEPSt13_Rb_tree_nodeISJ_E
FN:627,631,_ZNSt8_Rb_treeINSt7__cxx1112basic_stringIcSt11char_traitsIcESaIcEEESt4pairIKS5_St5tupleIJS5_N6BICYCL6_Utils16CL_HSM_ClearTextINS9_8CL_HSMqkEEEEEESt10_Select1stISF_ESt4lessIS5_ESaISF_EE12_M_drop_nodeEPSt13_Rb_tree_nodeISF_E
FN:627,631,_ZNSt8_Rb_treeINSt7__cxx1112basic_stringIcSt11char_traitsIcESaIcEEESt4pairIKS5_St5tupleIJS5_N6BICYCL6_Utils17CL_HSM_CipherTextINS9_8CL_HSMqkEEE11curve_pointS5_EEESt10_Select1stISG_ESt4lessIS5_ESaISG_EE12_M_drop_nodeEPSt13_Rb_tree_nodeISG_E
FN:627,631,_ZNSt8_Rb_treeINSt7__cxx1112basic_stringIcSt11char_traitsIcESaIcEEESt4pairIKS5_St5tupleIJS5_N6BICYCL6_Utils17CL_HSM_CipherTextINS9_8CL_HSMqkEEESD_SD_SD_EEESt10_Select1stISF_ESt4lessIS5_ESaISF_EE12_M_drop_nodeEPSt13_Rb_tree_nodeISF_E
FN:665,670,_ZNSt8_Rb_treeINSt7__cxx1112basic_stringIcSt11char_traitsIcESaIcEEESt4pairIKS5_St5tupleIJP14PolicyContractN6BICYCL6_Utils16CL_HSM_PublicKeyINSB_8CL_HSMqkEEENSC_17CL_HSM_CipherTextISE_EES5_EEESt10_Select1stISJ_ESt4lessIS5_ESaISJ_EE13_Rb_tree_implISN_Lb1EEC2Ev
FN:665,670,_ZNSt8_Rb_treeINSt7__cxx1112basic_stringIcSt11char_traitsIcESaIcEEESt4pairIKS5_St5tupleIJS5_N6BICYCL6_Utils16CL_HSM_ClearTextINS9_8CL_HSMqkEEEEEESt10_Select1stISF_ESt4lessIS5_ESaISF_EE13_Rb_tree_implISJ_Lb1EEC2Ev
FN:665,670,_ZNSt8_Rb_treeINSt7__cxx1112basic_stringIcSt11char_traitsIcESaIcEEESt4pairIKS5_St5tupleIJS5_N6BICYCL6_Utils17CL_HSM_CipherTextINS9_8CL_HSMqkEEE11curve_pointS5_EEESt10_Select1stISG_ESt4lessIS5_ESaISG_EE13_Rb_tree_implISK_Lb1EEC2Ev
FN:665,670,_ZNSt8_Rb_treeINSt7__cxx1112basic_stringIcSt11char_traitsIcESaIcEEESt4pairIKS5_St5tupleIJS5_N6BICYCL6_Utils17CL_HSM_CipherTextINS9_8CL_HSMqkEEESD_SD_SD_EEESt10_Select1stISF_ESt4lessIS5_ESaISF_EE13_Rb_tree_implISJ_Lb1EEC2Ev
FN:716,717,_ZNSt8_Rb_treeINSt7__cxx1112basic_stringIcSt11char_traitsIcESaIcEEESt4pairIKS5_St5tupleIJP14PolicyContractN6BICYCL6_Utils16CL_HSM_PublicKeyINSB_8CL_HSMqkEEENSC_17CL_HSM_CipherTextISE_EES5_EEESt10_Select1stISJ_ESt4lessIS5_ESaISJ_EE11_M_leftmostEv
FN:716,717,_ZNSt8_Rb_treeINSt7__cxx1112basic_stringIcSt11char_traitsIcESaIcEEESt4pairIKS5_St5tupleIJS5_N6BICYCL6_Utils16CL_HSM_ClearTextINS9_8CL_HSMqkEEEEEESt10_Select1stISF_ESt4lessIS5_ESaISF_EE11_M_leftmostEv
FN:716,717,_ZNSt8_Rb_treeINSt7__cxx1112basic_stringIcSt11char_traitsIcESaIcEEESt4pairIKS5_St5tupleIJS5_N6BICYCL6_Utils17CL_HSM_CipherTextINS9_8CL_HSMqkEEE11curve_pointS5_EEESt10_Select1stISG_ESt4lessIS5_ESaISG_EE11_M_leftmostEv
FN:716,717,_ZNSt8_Rb_treeINSt7__cxx1112basic_stringIcSt11char_traitsIcESaIcEEESt4pairIKS5_St5tupleIJS5_N6BICYCL6_Utils17CL_HSM_CipherTextINS9_8CL_HSMqkEEESD_SD_SD_EEESt10_Select1stISF_ESt4lessIS5_ESaISF_EE11_M_leftmostEv
FN:724,725,_ZNSt8_Rb_treeINSt7__cxx1112basic_stringIcSt11char_traitsIcESaIcEEESt4pairIKS5_St5tupleIJP14PolicyContractN6BICYCL6_Utils16CL_HSM_PublicKeyINSB_8CL_HSMqkEEENSC_17CL_HSM_CipherTextISE_EES5_EEESt10_Select1stISJ_ESt4lessIS5_ESaISJ_EE12_M_rightmostEv
FN:724,725,_ZNSt8_Rb_treeINSt7__cxx1112basic_stringIcSt11char_traitsIcESaIcEEESt4pairIKS5_St5tupleIJS5_N6BICYCL6_Utils16CL_HSM_ClearTextINS9_8CL_HSMqkEEEEEESt10_Select1stISF_ESt4lessIS5_ESaISF_EE12_M_rightmostEv
FN:724,725,_ZNSt8_Rb_treeINSt7__cxx1112basic_stringIcSt11char_traitsIcESaIcEEESt4pairIKS5_St5tupleIJS5_N6BICYCL6_Utils17CL_HSM_CipherTextINS9_8CL_HSMqkEEE11curve_pointS5_EEESt10_Select1stISG_ESt4lessIS5_ESaISG_EE12_M_rightmostEv
FN:724,725,_ZNSt8_Rb_treeINSt7__cxx1112basic_stringIcSt11char_traitsIcESaIcEEESt4pairIKS5_St5tupleIJS5_N6BICYCL6_Utils17CL_HSM_CipherTextINS9_8CL_HSMqkEEESD_SD_SD_EEESt10_Select1stISF_ESt4lessIS5_ESaISF_EE12_M_rightmostEv
FN:732,733,_ZNKSt8_Rb_treeINSt7__cxx1112basic_stringIcSt11char_traitsIcESaIcEEESt4pairIKS5_St5tupleIJP14PolicyContractN6BICYCL6_Utils16CL_HSM_PublicKeyINSB_8CL_HSMqkEEENSC_17CL_HSM_CipherTextISE_EES5_EEESt10_Select1stISJ_ESt4lessIS5_ESaISJ_EE9_M_mbeginEv
FN:732,733,_ZNKSt8_Rb_treeINSt7__cxx1112basic_stringIcSt11char_traitsIcESaIcEEESt4pairIKS5_St5tupleIJS5_N6BICYCL6_Utils16CL_HSM_ClearTextINS9_8CL_HSMqkEEEEEESt10_Select1stISF_ESt4lessIS5_ESaISF_EE9_M_mbeginEv
FN:732,733,_ZNKSt8_Rb_treeINSt7__cxx1112basic_stringIcSt11char_traitsIcESaIcEEESt4pairIKS5_St5tupleIJS5_N6BICYCL6_Utils17CL_HSM_CipherTextINS9_8CL_HSMqkEEE11curve_pointS5_EEESt10_Select1stISG_ESt4lessIS5_ESaISG_EE9_M_mbeginEv
FN:732,733,_ZNKSt8_Rb_treeINSt7__cxx1112basic_stringIcSt11char_traitsIcESaIcEEESt4pairIKS5_St5tupleIJS5_N6BICYCL6_Utils17CL_HSM_CipherTextINS9_8CL_HSMqkEEESD_SD_SD_EEESt10_Select1stISF_ESt4lessIS5_ESaISF_EE9_M_mbeginEv
FN:736,737,_ZNSt8_Rb_treeINSt7__cxx1112basic_stringIcSt11char_traitsIcESaIcEEESt4pairIKS5_St5tupleIJP14PolicyContractN6BICYCL6_Utils16CL_HSM_PublicKeyINSB_8CL_HSMqkEEENSC_17CL_HSM_CipherTextISE_EES5_EEESt10_Select1stISJ_ESt4lessIS5_ESaISJ_EE8_M_beginEv
FN:736,737,_ZNSt8_Rb_treeINSt7__cxx1112basic_stringIcSt11char_traitsIcESaIcEEESt4pairIKS5_St5tupleIJS5_N6BICYCL6_Utils16CL_HSM_ClearTextINS9_8CL_HSMqkEEEEEESt10_Select1stISF_ESt4lessIS5_ESaISF_EE8_M_beginEv
FN:736,737,_ZNSt8_Rb_treeINSt7__cxx1112basic_stringIcSt11char_traitsIcESaIcEEESt4pairIKS5_St5tupleIJS5_N6BICYCL6_Utils17CL_HSM_CipherTextINS9_8CL_HSMqkEEE11curve_pointS5_EEESt10_Select1stISG_ESt4lessIS5_ESaISG_EE8_M_beginEv
FN:736,737,_ZNSt8_Rb_treeINSt7__cxx1112basic_stringIcSt11char_traitsIcESaIcEEESt4pairIKS5_St5tupleIJS5_N6BICYCL6_Utils17CL_HSM_CipherTextINS9_8CL_HSMqkEEESD_SD_SD_EEESt10_Select1stISF_ESt4lessIS5_ESaISF_EE8_M_beginEv
FN:747,748,_ZNSt8_Rb_treeINSt7__cxx1112basic_stringIcSt11char_traitsIcESaIcEEESt4pairIKS5_St5tupleIJP14PolicyContractN6BICYCL6_Utils16CL_HSM_PublicKeyINSB_8CL_HSMqkEEENSC_17CL_HSM_CipherTextISE_EES5_EEESt10_Select1stISJ_ESt4lessIS5_ESaISJ_EE6_M_endEv
FN:747,748,_ZNSt8_Rb_treeINSt7__cxx1112basic_stringIcSt11char_traitsIcESaIcEEESt4pairIKS5_St5tupleIJS5_N6BICYCL6_Utils16CL_HSM_ClearTextINS9_8CL_HSMqkEEEEEESt10_Select1stISF_ESt4lessIS5_ESaISF_EE6_M_endEv
FN:747,748,_ZNSt8_Rb_treeINSt7__cxx1112basic_stringIcSt11char_traitsIcESaIcEEESt4pairIKS5_St5tupleIJS5_N6BICYCL6_Utils17CL_HSM_CipherTextINS9_8CL_HSMqkEEE11curve_pointS5_EEESt10_Select1stISG_ESt4lessIS5_ESaISG_EE6_M_endEv
FN:747,748,_ZNSt8_Rb_treeINSt7__cxx1112basic_stringIcSt11char_traitsIcESaIcEEESt4pairIKS5_St5tupleIJS5_N6BICYCL6_Utils17CL_HSM_CipherTextINS9_8CL_HSMqkEEESD_SD_SD_EEESt10_Select1stISF_ESt4lessIS5_ESaISF_EE6_M_endEv
FN:755,774,_ZNSt8_Rb_treeINSt7__cxx1112basic_stringIcSt11char_traitsIcESaIcEEESt4pairIKS5_St5tupleIJP14PolicyContractN6BICYCL6_Utils16CL_HSM_PublicKeyINSB_8CL_HSMqkEEENSC_17CL_HSM_CipherTextISE_EES5_EEESt10_Select1stISJ_ESt4lessIS5_ESaISJ_EE6_S_keyEPKSt13_Rb_tree_nodeISJ_E
FN:755,774,_ZNSt8_Rb_treeINSt7__cxx1112basic_stringIcSt11char_traitsIcESaIcEEESt4pairIKS5_St5tupleIJS5_N6BICYCL6_Utils16CL_HSM_ClearTextINS9_8CL_HSMqkEEEEEESt10_Select1stISF_ESt4lessIS5_ESaISF_EE6_S_keyEPKSt13_Rb_tree_nodeISF_E
FN:755,774,_ZNSt8_Rb_treeINSt7__cxx1112basic_stringIcSt11char_traitsIcESaIcEEESt4pairIKS5_St5tupleIJS5_N6BICYCL6_Utils17CL_HSM_CipherTextINS9_8CL_HSMqkEEE11curve_pointS5_EEESt10_Select1stISG_ESt4lessIS5_ESaISG_EE6_S_keyEPKSt13_Rb_tree_nodeISG_E
FN:755,774,_ZNSt8_Rb_treeINSt7__cxx1112basic_stringIcSt11char_traitsIcESaIcEEESt4pairIKS5_St5tupleIJS5_N6BICYCL6_Utils17CL_HSM_CipherTextINS9_8CL_HSMqkEEESD_SD_SD_EEESt10_Select1stISF_ESt4lessIS5_ESaISF_EE6_S_keyEPKSt13_Rb_tree_nodeISF_E
FN:777,778,_ZNSt8_Rb_treeINSt7__cxx1112basic_stringIcSt11char_traitsIcESaIcEEESt4pairIKS5_St5tupleIJP14PolicyContractN6BICYCL6_Utils16CL_HSM_PublicKeyINSB_8CL_HSMqkEEENSC_17CL_HSM_CipherTextISE_EES5_EEESt10_Select1stISJ_ESt4lessIS5_ESaISJ_EE7_S_leftEPSt18_Rb_tree_node_base
FN:777,778,_ZNSt8_Rb_treeINSt7__cxx1112basic_stringIcSt11char_traitsIcESaIcEEESt4pairIKS5_St5tupleIJS5_N6BICYCL6_Utils16CL_HSM_ClearTextINS9_8CL_HSMqkEEEEEESt10_Select1stISF_ESt4lessIS5_ESaISF_EE7_S_leftEPSt18_Rb_tree_node_base
FN:777,778,_ZNSt8_Rb_treeINSt7__cxx1112basic_stringIcSt11char_traitsIcESaIcEEESt4pairIKS5_St5tupleIJS5_N6BICYCL6_Utils17CL_HSM_CipherTextINS9_8CL_HSMqkEEE11curve_pointS5_EEESt10_Select1stISG_ESt4lessIS5_ESaISG_EE7_S_leftEPSt18_Rb_tree_node_base
FN:777,778,_ZNSt8_Rb_treeINSt7__cxx1112basic_stringIcSt11char_traitsIcESaIcEEESt4pairIKS5_St5tupleIJS5_N6BICYCL6_Utils17CL_HSM_CipherTextINS9_8CL_HSMqkEEESD_SD_SD_EEESt10_Select1stISF_ESt4lessIS5_ESaISF_EE7_S_leftEPSt18_Rb_tree_node_base
FN:785,786,_ZNSt8_Rb_treeINSt7__cxx1112basic_stringIcSt11char_traitsIcESaIcEEESt4pairIKS5_St5tupleIJP14PolicyContractN6BICYCL6_Utils16CL_HSM_PublicKeyINSB_8CL_HSMqkEEENSC_17CL_HSM_CipherTextISE_EES5_EEESt10_Select1stISJ_ESt4lessIS5_ESaISJ_EE8_S_rightEPSt18_Rb_tree_node_base
FN:785,786,_ZNSt8_Rb_treeINSt7__cxx1112basic_stringIcSt11char_traitsIcESaIcEEESt4pairIKS5_St5tupleIJS5_N6BICYCL6_Utils16CL_HSM_ClearTextINS9_8CL_HSMqkEEEEEESt10_Select1stISF_ESt4lessIS5_ESaISF_EE8_S_rightEPSt18_Rb_tree_node_base
FN:785,786,_ZNSt8_Rb_treeINSt7__cxx1112basic_stringIcSt11char_traitsIcESaIcEEESt4pairIKS5_St5tupleIJS5_N6BICYCL6_Utils17CL_HSM_CipherTextINS9_8CL_HSMqkEEE11curve_pointS5_EEESt10_Select1stISG_ESt4lessIS5_ESaISG_EE8_S_rightEPSt18_Rb_tree_node_base
FN:785,786,_ZNSt8_Rb_treeINSt7__cxx1112basic_stringIcSt11char_traitsIcESaIcEEESt4pairIKS5_St5tupleIJS5_N6BICYCL6_Utils17CL_HSM_CipherTextINS9_8CL_HSMqkEEESD_SD_SD_EEESt10_Select1stISF_ESt4lessIS5_ESaISF_EE8_S_rightEPSt18_Rb_tree_node_base
FN:793,794,_ZNSt8_Rb_treeINSt7__cxx1112basic_stringIcSt11char_traitsIcESaIcEEESt4pairIKS5_St5tupleIJP14PolicyContractN6BICYCL6_Utils16CL_HSM_PublicKeyINSB_8CL_HSMqkEEENSC_17CL_HSM_CipherTextISE_EES5_EEESt10_Select1stISJ_ESt4lessIS5_ESaISJ_EE6_S_keyEPKSt18_Rb_tree_node_base
FN:793,794,_ZNSt8_Rb_treeINSt7__cxx1112basic_stringIcSt11char_traitsIcESaIcEEESt4pairIKS5_St5tupleIJS5_N6BICYCL6_Utils16CL_HSM_ClearTextINS9_8CL_HSMqkEEEEEESt10_Select1stISF_ESt4lessIS5_ESaISF_EE6_S_keyEPKSt18_Rb_tree_node_base
FN:793,794,_ZNSt8_Rb_treeINSt7__cxx1112basic_stringIcSt11char_traitsIcESaIcEEESt4pairIKS5_St5tupleIJS5_N6BICYCL6_Utils17CL_HSM_CipherTextINS9_8CL_HSMqkEEE11curve_pointS5_EEESt10_Select1stISG_ESt4lessIS5_ESaISG_EE6_S_keyEPKSt18_Rb_tree_node_base
FN:793,794,_ZNSt8_Rb_treeINSt7__cxx1112basic_stringIcSt11char_traitsIcESaIcEEESt4pairIKS5_St5tupleIJS5_N6BICYCL6_Utils17CL_HSM_CipherTextINS9_8CL_HSMqkEEESD_SD_SD_EEESt10_Select1stISF_ESt4lessIS5_ESaISF_EE6_S_keyEPKSt18_Rb_tree_node_base
FN:926,926,_ZNSt8_Rb_treeINSt7__cxx1112basic_stringIcSt11char_traitsIcESaIcEEESt4pairIKS5_St5tupleIJP14PolicyContractN6BICYCL6_Utils16CL_HSM_PublicKeyINSB_8CL_HSMqkEEENSC_17CL_HSM_CipherTextISE_EES5_EEESt10_Select1stISJ_ESt4lessIS5_ESaISJ_EEC2Ev
FN:926,926,_ZNSt8_Rb_treeINSt7__cxx1112basic_stringIcSt11char_traitsIcESaIcEEESt4pairIKS5_St5tupleIJS5_N6BICYCL6_Utils16CL_HSM_ClearTextINS9_8CL_HSMqkEEEEEESt10_Select1stISF_ESt4lessIS5_ESaISF_EEC2Ev
FN:926,926,_ZNSt8_Rb_treeINSt7__cxx1112basic_stringIcSt11char_traitsIcESaIcEEESt4pairIKS5_St5tupleIJS5_N6BICYCL6_Utils17CL_HSM_CipherTextINS9_8CL_HSMqkEEE11curve_pointS5_EEESt10_Select1stISG_ESt4lessIS5_ESaISG_EEC2Ev
FN:926,926,_ZNSt8_Rb_treeINSt7__cxx1112basic_stringIcSt11char_traitsIcESaIcEEESt4pairIKS5_St5tupleIJS5_N6BICYCL6_Utils17CL_HSM_CipherTextINS9_8CL_HSMqkEEESD_SD_SD_EEESt10_Select1stISF_ESt4lessIS5_ESaISF_EEC2Ev
FN:981,982,_ZNSt8_Rb_treeINSt7__cxx1112basic_stringIcSt11char_traitsIcESaIcEEESt4pairIKS5_St5tupleIJP14PolicyContractN6BICYCL6_Utils16CL_HSM_PublicKeyINSB_8CL_HSMqkEEENSC_17CL_HSM_CipherTextISE_EES5_EEESt10_Select1stISJ_ESt4lessIS5_ESaISJ_EED2Ev
FN:981,982,_ZNSt8_Rb_treeINSt7__cxx1112basic_stringIcSt11char_traitsIcESaIcEEESt4pairIKS5_St5tupleIJS5_N6BICYCL6_Utils16CL_HSM_ClearTextINS9_8CL_HSMqkEEEEEESt10_Select1stISF_ESt4lessIS5_ESaISF_EED2Ev
FN:981,982,_ZNSt8_Rb_treeINSt7__cxx1112basic_stringIcSt11char_traitsIcESaIcEEESt4pairIKS5_St5tupleIJS5_N6BICYCL6_Utils17CL_HSM_CipherTextINS9_8CL_HSMqkEEE11curve_pointS5_EEESt10_Select1stISG_ESt4lessIS5_ESaISG_EED2Ev
FN:981,982,_ZNSt8_Rb_treeINSt7__cxx1112basic_stringIcSt11char_traitsIcESaIcEEESt4pairIKS5_St5tupleIJS5_N6BICYCL6_Utils17CL_HSM_CipherTextINS9_8CL_HSMqkEEESD_SD_SD_EEESt10_Select1stISF_ESt4lessIS5_ESaISF_EED2Ev
FN:989,990,_ZNKSt8_Rb_treeINSt7__cxx1112basic_stringIcSt11char_traitsIcESaIcEEESt4pairIKS5_St5tupleIJP14PolicyContractN6BICYCL6_Utils16CL_HSM_PublicKeyINSB_8CL_HSMqkEEENSC_17CL_HSM_CipherTextISE_EES5_EEESt10_Select1stISJ_ESt4lessIS5_ESaISJ_EE8key_compEv
FN:989,990,_ZNKSt8_Rb_treeINSt7__cxx1112basic_stringIcSt11char_traitsIcESaIcEEESt4pairIKS5_St5tupleIJS5_N6BICYCL6_Utils16CL_HSM_ClearTextINS9_8CL_HSMqkEEEEEESt10_Select1stISF_ESt4lessIS5_ESaISF_EE8key_compEv
FN:989,990,_ZNKSt8_Rb_treeINSt7__cxx1112basic_stringIcSt11char_traitsIcESaIcEEESt4pairIKS5_St5tupleIJS5_N6BICYCL6_Utils17CL_HSM_CipherTextINS9_8CL_HSMqkEEE11curve_pointS5_EEESt10_Select1stISG_ESt4lessIS5_ESaISG_EE8key_compEv
FN:989,990,_ZNKSt8_Rb_treeINSt7__cxx1112basic_stringIcSt11char_traitsIcESaIcEEESt4pairIKS5_St5tupleIJS5_N6BICYCL6_Utils17CL_HSM_CipherTextINS9_8CL_HSMqkEEESD_SD_SD_EEESt10_Select1stISF_ESt4lessIS5_ESaISF_EE8key_compEv
FN:993,994,_ZNSt8_Rb_treeINSt7__cxx1112basic_stringIcSt11char_traitsIcESaIcEEESt4pairIKS5_St5tupleIJP14PolicyContractN6BICYCL6_Utils16CL_HSM_PublicKeyINSB_8CL_HSMqkEEENSC_17CL_HSM_CipherTextISE_EES5_EEESt10_Select1stISJ_ESt4lessIS5_ESaISJ_EE5beginEv
FN:993,994,_ZNSt8_Rb_treeINSt7__cxx1112basic_stringIcSt11char_traitsIcESaIcEEESt4pairIKS5_St5tupleIJS5_N6BICYCL6_Utils16CL_HSM_ClearTextINS9_8CL_HSMqkEEEEEESt10_Select1stISF_ESt4lessIS5_ESaISF_EE5beginEv
FN:993,994,_ZNSt8_Rb_treeINSt7__cxx1112basic_stringIcSt11char_traitsIcESaIcEEESt4pairIKS5_St5tupleIJS5_N6BICYCL6_Utils17CL_HSM_CipherTextINS9_8CL_HSMqkEEE11curve_pointS5_EEESt10_Select1stISG_ESt4lessIS5_ESaISG_EE5beginEv
FN:993,994,_ZNSt8_Rb_treeINSt7__cxx1112basic_stringIcSt11char_traitsIcESaIcEEESt4pairIKS5_St5tupleIJS5_N6BICYCL6_Utils17CL_HSM_CipherTextINS9_8CL_HSMqkEEESD_SD_SD_EEESt10_Select1stISF_ESt4lessIS5_ESaISF_EE5beginEv
FNDA:31,_ZNSt8_Rb_treeINSt7__cxx1112basic_stringIcSt11char_traitsIcESaIcEEESt4pairIKS5_St5tupleIJP14PolicyContractN6BICYCL6_Utils16CL_HSM_PublicKeyINSB_8CL_HSMqkEEENSC_17CL_HSM_CipherTextISE_EES5_EEESt10_Select1stISJ_ESt4lessIS5_ESaISJ_EE3endEv
FNDA:4,_ZNSt8_Rb_treeINSt7__cxx1112basic_stringIcSt11char_traitsIcESaIcEEESt4pairIKS5_St5tupleIJS5_N6BICYCL6_Utils16CL_HSM_ClearTextINS9_8CL_HSMqkEEEEEESt10_Select1stISF_ESt4lessIS5_ESaISF_EE3endEv
FNDA:23,_ZNSt8_Rb_treeINSt7__cxx1112basic_stringIcSt11char_traitsIcESaIcEEESt4pairIKS5_St5tupleIJS5_N6BICYCL6_Utils17CL_HSM_CipherTextINS9_8CL_HSMqkEEE11curve_pointS5_EEESt10_Select1stISG_ESt4lessIS5_ESaISG_EE3endEv
FNDA:10,_ZNSt8_Rb_treeINSt7__cxx1112basic_stringIcSt11char_traitsIcESaIcEEESt4pairIKS5_St5tupleIJS5_N6BICYCL6_Utils17CL_HSM_CipherTextINS9_8CL_HSMqkEEESD_SD_SD_EEESt10_Select1stISF_ESt4lessIS5_ESaISF_EE3endEv
FNDA:1,_ZNKSt8_Rb_treeINSt7__cxx1112basic_stringIcSt11char_traitsIcESaIcEEESt4pairIKS5_St5tupleIJP14PolicyContractN6BICYCL6_Utils16CL_HSM_PublicKeyINSB_8CL_HSMqkEEENSC_17CL_HSM_CipherTextISE_EES5_EEESt10_Select1stISJ_ESt4lessIS5_ESaISJ_EE4sizeEv
FNDA:1,_ZNKSt8_Rb_treeINSt7__cxx1112basic_stringIcSt11char_traitsIcESaIcEEESt4pairIKS5_St5tupleIJS5_N6BICYCL6_Utils16CL_HSM_ClearTextINS9_8CL_HSMqkEEEEEESt10_Select1stISF_ESt4lessIS5_ESaISF_EE4sizeEv
FNDA:1,_ZNKSt8_Rb_treeINSt7__cxx1112basic_stringIcSt11char_traitsIcESaIcEEESt4pairIKS5_St5tupleIJS5_N6BICYCL6_Utils17CL_HSM_CipherTextINS9_8CL_HSMqkEEE11curve_pointS5_EEESt10_Select1stISG_ESt4lessIS5_ESaISG_EE4sizeEv
FNDA:1,_ZNKSt8_Rb_treeINSt7__cxx1112basic_stringIcSt11char_traitsIcESaIcEEESt4pairIKS5_St5tupleIJS5_N6BICYCL6_Utils17CL_HSM_CipherTextINS9_8CL_HSMqkEEESD_SD_SD_EEESt10_Select1stISF_ESt4lessIS5_ESaISF_EE4sizeEv
FNDA:11,_ZNSt8_Rb_treeINSt7__cxx1112basic_stringIcSt11char_traitsIcESaIcEEESt4pairIKS5_St5tupleIJP14PolicyContractN6BICYCL6_Utils16CL_HSM_PublicKeyINSB_8CL_HSMqkEEENSC_17CL_HSM_CipherTextISE_EES5_EEESt10_Select1stISJ_ESt4lessIS5_ESaISJ_EE11lower_boundERS7_
FNDA:2,_ZNSt8_Rb_treeINSt7__cxx1112basic_stringIcSt11char_traitsIcESaIcEEESt4pairIKS5_St5tupleIJS5_N6BICYCL6_Utils16CL_HSM_ClearTextINS9_8CL_HSMqkEEEEEESt10_Select1stISF_ESt4lessIS5_ESaISF_EE11lower_boundERS7_
FNDA:10,_ZNSt8_Rb_treeINSt7__cxx1112basic_stringIcSt11char_traitsIcESaIcEEESt4pairIKS5_St5tupleIJS5_N6BICYCL6_Utils17CL_HSM_CipherTextINS9_8CL_HSMqkEEE11curve_pointS5_EEESt10_Select1stISG_ESt4lessIS5_ESaISG_EE11lower_boundERS7_
FNDA:4,_ZNSt8_Rb_treeINSt7__cxx1112basic_stringIcSt11char_traitsIcESaIcEEESt4pairIKS5_St5tupleIJS5_N6BICYCL6_Utils17CL_HSM_CipherTextINS9_8CL_HSMqkEEESD_SD_SD_EEESt10_Select1stISF_ESt4lessIS5_ESaISF_EE11lower_boundERS7_
FNDA:4,_ZNSt20_Rb_tree_key_compareISt4lessINSt7__cxx1112basic_stringIcSt11char_traitsIcESaIcEEEEEC2Ev
FNDA:1,_ZNSt8_Rb_treeINSt7__cxx1112basic_stringIcSt11char_traitsIcESaIcEEESt4pairIKS5_St5tupleIJP14PolicyContractN6BICYCL6_Utils16CL_HSM_PublicKeyINSB_8CL_HSMqkEEENSC_17CL_HSM_CipherTextISE_EES5_EEESt10_Select1stISJ_ESt4lessIS5_ESaISJ_EE10_Auto_nodeC2IJS6_IS5_SI_EEEERSP_DpOT_
FNDA:1,_ZNSt8_Rb_treeINSt7__cxx1112basic_stringIcSt11char_traitsIcESaIcEEESt4pairIKS5_St5tupleIJS5_N6BICYCL6_Utils16CL_HSM_ClearTextINS9_8CL_HSMqkEEEEEESt10_Select1stISF_ESt4lessIS5_ESaISF_EE10_Auto_nodeC2IJS6_IS5_SE_EEEERSL_DpOT_
FNDA:1,_ZNSt8_Rb_treeINSt7__cxx1112basic_stringIcSt11char_traitsIcESaIcEEESt4pairIKS5_St5tupleIJS5_N6BICYCL6_Utils17CL_HSM_CipherTextINS9_8CL_HSMqkEEE11curve_pointS5_EEESt10_Select1stISG_ESt4lessIS5_ESaISG_EE10_Auto_nodeC2IJS6_IS5_SF_EEEERSM_DpOT_
FNDA:1,_ZNSt8_Rb_treeINSt7__cxx1112basic_stringIcSt11char_traitsIcESaIcEEESt4pairIKS5_St5tupleIJS5_N6BICYCL6_Utils17CL_HSM_CipherTextINS9_8CL_HSMqkEEESD_SD_SD_EEESt10_Select1stISF_ESt4lessIS5_ESaISF_EE10_Auto_nodeC2IJS6_IS5_SE_EEEERSL_DpOT_
FNDA:1,_ZNSt8_Rb_treeINSt7__cxx1112basic_stringIcSt11char_traitsIcESaIcEEESt4pairIKS5_St5tupleIJP14PolicyContractN6BICYCL6_Utils16CL_HSM_PublicKeyINSB_8CL_HSMqkEEENSC_17CL_HSM_CipherTextISE_EES5_EEESt10_Select1stISJ_ESt4lessIS5_ESaISJ_EE10_Auto_nodeD2Ev
FNDA:1,_ZNSt8_Rb_treeINSt7__cxx1112basic_stringIcSt11char_traitsIcESaIcEEESt4pairIKS5_St5tupleIJS5_N6BICYCL6_Utils16CL_HSM_ClearTextINS9_8CL_HSMqkEEEEEESt10_Select1stISF_ESt4lessIS5_ESaISF_EE10_Auto_nodeD2Ev
FNDA:1,_ZNSt8_Rb_treeINSt7__cxx1112basic_stringIcSt11char_traitsIcESaIcEEESt4pairIKS5_St5tupleIJS5_N6BICYCL6_Utils17CL_HSM_CipherTextINS9_8CL_HSMqkEEE11curve_pointS5_EEESt10_Select1stISG_ESt4lessIS5_ESaISG_EE10_Auto_nodeD2Ev
FNDA:1,_ZNSt8_Rb_treeINSt7__cxx1112basic_stringIcSt11char_traitsIcESaIcEEESt4pairIKS5_St5tupleIJS5_N6BICYCL6_Utils17CL_HSM_CipherTextINS9_8CL_HSMqkEEESD_SD_SD_EEESt10_Select1stISF_ESt4lessIS5_ESaISF_EE10_Auto_nodeD2Ev
FNDA:1,_ZNKSt8_Rb_treeINSt7__cxx1112basic_stringIcSt11char_traitsIcESaIcEEESt4pairIKS5_St5tupleIJP14PolicyContractN6BICYCL6_Utils16CL_HSM_PublicKeyINSB_8CL_HSMqkEEENSC_17CL_HSM_CipherTextISE_EES5_EEESt10_Select1stISJ_ESt4lessIS5_ESaISJ_EE10_Auto_node6_M_keyEv
FNDA:1,_ZNKSt8_Rb_treeINSt7__cxx1112basic_stringIcSt11char_traitsIcESaIcEEESt4pairIKS5_St5tupleIJS5_N6BICYCL6_Utils16CL_HSM_ClearTextINS9_8CL_HSMqkEEEEEESt10_Select1stISF_ESt4lessIS5_ESaISF_EE10_Auto_node6_M_keyEv
FNDA:1,_ZNKSt8_Rb_treeINSt7__cxx1112basic_stringIcSt11char_traitsIcESaIcEEESt4pairIKS5_St5tupleIJS5_N6BICYCL6_Utils17CL_HSM_CipherTextINS9_8CL_HSMqkEEE11curve_pointS5_EEESt10_Select1stISG_ESt4lessIS5_ESaISG_EE10_Auto_node6_M_keyEv
FNDA:1,_ZNKSt8_Rb_treeINSt7__cxx1112basic_stringIcSt11char_traitsIcESaIcEEESt4pairIKS5_St5tupleIJS5_N6BICYCL6_Utils17CL_HSM_CipherTextINS9_8CL_HSMqkEEESD_SD_SD_EEESt10_Select1stISF_ESt4lessIS5_ESaISF_EE10_Auto_node6_M_keyEv
FNDA:1,_ZNSt8_Rb_treeINSt7__cxx1112basic_stringIcSt11char_traitsIcESaIcEEESt4pairIKS5_St5tupleIJP14PolicyContractN6BICYCL6_Utils16CL_HSM_PublicKeyINSB_8CL_HSMqkEEENSC_17CL_HSM_CipherTextISE_EES5_EEESt10_Select1stISJ_ESt4lessIS5_ESaISJ_EE10_Auto_node9_M_insertES6_IPSt18_Rb_tree_node_baseSS_E
FNDA:1,_ZNSt8_Rb_treeINSt7__cxx1112basic_stringIcSt11char_traitsIcESaIcEEESt4pairIKS5_St5tupleIJS5_N6BICYCL6_Utils16CL_HSM_ClearTextINS9_8CL_HSMqkEEEEEESt10_Select1stISF_ESt4lessIS5_ESaISF_EE10_Auto_node9_M_insertES6_IPSt18_Rb_tree_node_baseSO_E
FNDA:1,_ZNSt8_Rb_treeINSt7__cxx1112basic_stringIcSt11char_traitsIcESaIcEEESt4pairIKS5_St5tupleIJS5_N6BICYCL6_Utils17CL_HSM_CipherTextINS9_8CL_HSMqkEEE11curve_pointS5_EEESt10_Select1stISG_ESt4lessIS5_ESaISG_EE10_Auto_node9_M_insertES6_IPSt18_Rb_tree_node_baseSP_E
FNDA:1,_ZNSt8_Rb_treeINSt7__cxx1112basic_stringIcSt11char_traitsIcESaIcEEESt4pairIKS5_St5tupleIJS5_N6BICYCL6_Utils17CL_HSM_CipherTextINS9_8CL_HSMqkEEESD_SD_SD_EEESt10_Select1stISF_ESt4lessIS5_ESaISF_EE10_Auto_node9_M_insertES6_IPSt18_Rb_tree_node_baseSO_E
FNDA:4,_ZNSt15_Rb_tree_headerC2Ev
FNDA:2,_ZNSt8_Rb_treeINSt7__cxx1112basic_stringIcSt11char_traitsIcESaIcEEESt4pairIKS5_St5tupleIJP14PolicyContractN6BICYCL6_Utils16CL_HSM_PublicKeyINSB_8CL_HSMqkEEENSC_17CL_HSM_CipherTextISE_EES5_EEESt10_Select1stISJ_ESt4lessIS5_ESaISJ_EE8_M_eraseEPSt13_Rb_tree_nodeISJ_E
FNDA:2,_ZNSt8_Rb_treeINSt7__cxx1112basic_stringIcSt11char_traitsIcESaIcEEESt4pairIKS5_St5tupleIJS5_N6BICYCL6_Utils16CL_HSM_ClearTextINS9_8CL_HSMqkEEEEEESt10_Select1stISF_ESt4lessIS5_ESaISF_EE8_M_eraseEPSt13_Rb_tree_nodeISF_E
FNDA:2,_ZNSt8_Rb_treeINSt7__cxx1112basic_stringIcSt11char_traitsIcESaIcEEESt4pairIKS5_St5tupleIJS5_N6BICYCL6_Utils17CL_HSM_CipherTextINS9_8CL_HSMqkEEE11curve_pointS5_EEESt10_Select1stISG_ESt4lessIS5_ESaISG_EE8_M_eraseEPSt13_Rb_tree_nodeISG_E
FNDA:2,_ZNSt8_Rb_treeINSt7__cxx1112basic_stringIcSt11char_traitsIcESaIcEEESt4pairIKS5_St5tupleIJS5_N6BICYCL6_Utils17CL_HSM_CipherTextINS9_8CL_HSMqkEEESD_SD_SD_EEESt10_Select1stISF_ESt4lessIS5_ESaISF_EE8_M_eraseEPSt13_Rb_tree_nodeISF_E
FNDA:21,_ZNSt8_Rb_treeINSt7__cxx1112basic_stringIcSt11char_traitsIcESaIcEEESt4pairIKS5_St5tupleIJP14PolicyContractN6BICYCL6_Utils16CL_HSM_PublicKeyINSB_8CL_HSMqkEEENSC_17CL_HSM_CipherTextISE_EES5_EEESt10_Select1stISJ_ESt4lessIS5_ESaISJ_EE14_M_lower_boundEPSt13_Rb_tree_nodeISJ_EPSt18_Rb_tree_node_baseRS7_
FNDA:3,_ZNSt8_Rb_treeINSt7__cxx1112basic_stringIcSt11char_traitsIcESaIcEEESt4pairIKS5_St5tupleIJS5_N6BICYCL6_Utils16CL_HSM_ClearTextINS9_8CL_HSMqkEEEEEESt10_Select1stISF_ESt4lessIS5_ESaISF_EE14_M_lower_boundEPSt13_Rb_tree_nodeISF_EPSt18_Rb_tree_node_baseRS7_
FNDA:16,_ZNSt8_Rb_treeINSt7__cxx1112basic_stringIcSt11char_traitsIcESaIcEEESt4pairIKS5_St5tupleIJS5_N6BICYCL6_Utils17CL_HSM_CipherTextINS9_8CL_HSMqkEEE11curve_pointS5_EEESt10_Select1stISG_ESt4lessIS5_ESaISG_EE14_M_lower_boundEPSt13_Rb_tree_nodeISG_EPSt18_Rb_tree_node_baseRS7_
FNDA:7,_ZNSt8_Rb_treeINSt7__cxx1112basic_stringIcSt11char_traitsIcESaIcEEESt4pairIKS5_St5tupleIJS5_N6BICYCL6_Utils17CL_HSM_CipherTextINS9_8CL_HSMqkEEESD_SD_SD_EEESt10_Select1stISF_ESt4lessIS5_ESaISF_EE14_M_lower_boundEPSt13_Rb_tree_nodeISF_EPSt18_Rb_tree_node_baseRS7_
FNDA:4,_ZNSt15_Rb_tree_header8_M_resetEv
FNDA:1,_ZNSt8_Rb_treeINSt7__cxx1112basic_stringIcSt11char_traitsIcESaIcEEESt4pairIKS5_St5tupleIJP14PolicyContractN6BICYCL6_Utils16CL_HSM_PublicKeyINSB_8CL_HSMqkEEENSC_17CL_HSM_CipherTextISE_EES5_EEESt10_Select1stISJ_ESt4lessIS5_ESaISJ_EE24_M_get_insert_unique_posERS7_
FNDA:1,_ZNSt8_Rb_treeINSt7__cxx1112basic_stringIcSt11char_traitsIcESaIcEEESt4pairIKS5_St5tupleIJS5_N6BICYCL6_Utils16CL_HSM_ClearTextINS9_8CL_HSMqkEEEEEESt10_Select1stISF_ESt4lessIS5_ESaISF_EE24_M_get_insert_unique_posERS7_
FNDA:1,_ZNSt8_Rb_treeINSt7__cxx1112basic_stringIcSt11char_traitsIcESaIcEEESt4pairIKS5_St5tupleIJS5_N6BICYCL6_Utils17CL_HSM_CipherTextINS9_8CL_HSMqkEEE11curve_pointS5_EEESt10_Select1stISG_ESt4lessIS5_ESaISG_EE24_M_get_insert_unique_posERS7_
FNDA:1,_ZNSt8_Rb_treeINSt7__cxx1112basic_stringIcSt11char_traitsIcESaIcEEESt4pairIKS5_St5tupleIJS5_N6BICYCL6_Utils17CL_HSM_CipherTextINS9_8CL_HSMqkEEESD_SD_SD_EEESt10_Select1stISF_ESt4lessIS5_ESaISF_EE24_M_get_insert_unique_posERS7_
FNDA:1,_ZNSt8_Rb_treeINSt7__cxx1112basic_stringIcSt11char_traitsIcESaIcEEESt4pairIKS5_St5tupleIJP14PolicyContractN6BICYCL6_Utils16CL_HSM_PublicKeyINSB_8CL_HSMqkEEENSC_17CL_HSM_CipherTextISE_EES5_EEESt10_Select1stISJ_ESt4lessIS5_ESaISJ_EE29_M_get_insert_hint_unique_posESt23_Rb_tree_const_iteratorISJ_ERS7_
FNDA:1,_ZNSt8_Rb_treeINSt7__cxx1112basic_stringIcSt11char_traitsIcESaIcEEESt4pairIKS5_St5tupleIJS5_N6BICYCL6_Utils16CL_HSM_ClearTextINS9_8CL_HSMqkEEEEEESt10_Select1stISF_ESt4lessIS5_ESaISF_EE29_M_get_insert_hint_unique_posESt23_Rb_tree_const_iteratorISF_ERS7_
FNDA:1,_ZNSt8_Rb_treeINSt7__cxx1112basic_stringIcSt11char_traitsIcESaIcEEESt4pairIKS5_St5tupleIJS5_N6BICYCL6_Utils17CL_HSM_CipherTextINS9_8CL_HSMqkEEE11curve_pointS5_EEESt10_Select1stISG_ESt4lessIS5_ESaISG_EE29_M_get_insert_hint_unique_posESt23_Rb_tree_const_iteratorISG_ERS7_
FNDA:1,_ZNSt8_Rb_treeINSt7__cxx1112basic_stringIcSt11char_traitsIcESaIcEEESt4pairIKS5_St5tupleIJS5_N6BICYCL6_Utils17CL_HSM_CipherTextINS9_8CL_HSMqkEEESD_SD_SD_EEESt10_Select1stISF_ESt4lessIS5_ESaISF_EE29_M_get_insert_hint_unique_posESt23_Rb_tree_const_iteratorISF_ERS7_
FNDA:22,_ZNSt13_Rb_tree_nodeISt4pairIKNSt7__cxx1112basic_stringIcSt11char_traitsIcESaIcEEESt5tupleIJP14PolicyContractN6BICYCL6_Utils16CL_HSM_PublicKeyINSB_8CL_HSMqkEEENSC_17CL_HSM_CipherTextISE_EES6_EEEE9_M_valptrEv
FNDA:4,_ZNSt13_Rb_tree_nodeISt4pairIKNSt7__cxx1112basic_stringIcSt11char_traitsIcESaIcEEESt5tupleIJS6_N6BICYCL6_Utils16CL_HSM_ClearTextINS9_8CL_HSMqkEEEEEEE9_M_valptrEv
FNDA:21,_ZNSt13_Rb_tree_nodeISt4pairIKNSt7__cxx1112basic_stringIcSt11char_traitsIcESaIcEEESt5tupleIJS6_N6BICYCL6_Utils17CL_HSM_CipherTextINS9_8CL_HSMqkEEE11curve_pointS6_EEEE9_M_valptrEv
FNDA:8,_ZNSt13_Rb_tree_nodeISt4pairIKNSt7__cxx1112basic_stringIcSt11char_traitsIcESaIcEEESt5tupleIJS6_N6BICYCL6_Utils17CL_HSM_CipherTextINS9_8CL_HSMqkEEESD_SD_SD_EEEE9_M_valptrEv
FNDA:31,_ZNKSt13_Rb_tree_nodeISt4pairIKNSt7__cxx1112basic_stringIcSt11char_traitsIcESaIcEEESt5tupleIJP14PolicyContractN6BICYCL6_Utils16CL_HSM_PublicKeyINSB_8CL_HSMqkEEENSC_17CL_HSM_CipherTextISE_EES6_EEEE9_M_valptrEv
FNDA:4,_ZNKSt13_Rb_tree_nodeISt4pairIKNSt7__cxx1112basic_stringIcSt11char_traitsIcESaIcEEESt5tupleIJS6_N6BICYCL6_Utils16CL_HSM_ClearTextINS9_8CL_HSMqkEEEEEEE9_M_valptrEv
FNDA:22,_ZNKSt13_Rb_tree_nodeISt4pairIKNSt7__cxx1112basic_stringIcSt11char_traitsIcESaIcEEESt5tupleIJS6_N6BICYCL6_Utils17CL_HSM_CipherTextINS9_8CL_HSMqkEEE11curve_pointS6_EEEE9_M_valptrEv
FNDA:10,_ZNKSt13_Rb_tree_nodeISt4pairIKNSt7__cxx1112basic_stringIcSt11char_traitsIcESaIcEEESt5tupleIJS6_N6BICYCL6_Utils17CL_HSM_CipherTextINS9_8CL_HSMqkEEESD_SD_SD_EEEE9_M_valptrEv
FNDA:1,_ZNSt8_Rb_treeINSt7__cxx1112basic_stringIcSt11char_traitsIcESaIcEEESt4pairIKS5_St5tupleIJP14PolicyContractN6BICYCL6_Utils16CL_HSM_PublicKeyINSB_8CL_HSMqkEEENSC_17CL_HSM_CipherTextISE_EES5_EEESt10_Select1stISJ_ESt4lessIS5_ESaISJ_EE14_M_insert_nodeEPSt18_Rb_tree_node_baseSR_PSt13_Rb_tree_nodeISJ_E
FNDA:1,_ZNSt8_Rb_treeINSt7__cxx1112basic_stringIcSt11char_traitsIcESaIcEEESt4pairIKS5_St5tupleIJS5_N6BICYCL6_Utils16CL_HSM_ClearTextINS9_8CL_HSMqkEEEEEESt10_Select1stISF_ESt4lessIS5_ESaISF_EE14_M_insert_nodeEPSt18_Rb_tree_node_baseSN_PSt13_Rb_tree_nodeISF_E
FNDA:1,_ZNSt8_Rb_treeINSt7__cxx1112basic_stringIcSt11char_traitsIcESaIcEEESt4pairIKS5_St5tupleIJS5_N6BICYCL6_Utils17CL_HSM_CipherTextINS9_8CL_HSMqkEEE11curve_pointS5_EEESt10_Select1stISG_ESt4lessIS5_ESaISG_EE14_M_insert_nodeEPSt18_Rb_tree_node_baseSO_PSt13_Rb_tree_nodeISG_E
FNDA:1,_ZNSt8_Rb_treeINSt7__cxx1112basic_stringIcSt11char_traitsIcESaIcEEESt4pairIKS5_St5tupleIJS5_N6BICYCL6_Utils17CL_HSM_CipherTextINS9_8CL_HSMqkEEESD_SD_SD_EEESt10_Select1stISF_ESt4lessIS5_ESaISF_EE14_M_insert_nodeEPSt18_Rb_tree_node_baseSN_PSt13_Rb_tree_nodeISF_E
FNDA:1,_ZNSt8_Rb_treeINSt7__cxx1112basic_stringIcSt11char_traitsIcESaIcEEESt4pairIKS5_St5tupleIJP14PolicyContractN6BICYCL6_Utils16CL_HSM_PublicKeyINSB_8CL_HSMqkEEENSC_17CL_HSM_CipherTextISE_EES5_EEESt10_Select1stISJ_ESt4lessIS5_ESaISJ_EE22_M_emplace_hint_uniqueIJS6_IS5_SI_EEEESt17_Rb_tree_iteratorISJ_ESt23_Rb_tree_const_iteratorISJ_EDpOT_
FNDA:1,_ZNSt8_Rb_treeINSt7__cxx1112basic_stringIcSt11char_traitsIcESaIcEEESt4pairIKS5_St5tupleIJS5_N6BICYCL6_Utils16CL_HSM_ClearTextINS9_8CL_HSMqkEEEEEESt10_Select1stISF_ESt4lessIS5_ESaISF_EE22_M_emplace_hint_uniqueIJS6_IS5_SE_EEEESt17_Rb_tree_iteratorISF_ESt23_Rb_tree_const_iteratorISF_EDpOT_
FNDA:1,_ZNSt8_Rb_treeINSt7__cxx1112basic_stringIcSt11char_traitsIcESaIcEEESt4pairIKS5_St5tupleIJS5_N6BICYCL6_Utils17CL_HSM_CipherTextINS9_8CL_HSMqkEEE11curve_pointS5_EEESt10_Select1stISG_ESt4lessIS5_ESaISG_EE22_M_emplace_hint_uniqueIJS6_IS5_SF_EEEESt17_Rb_tree_iteratorISG_ESt23_Rb_tree_const_iteratorISG_EDpOT_
FNDA:1,_ZNSt8_Rb_treeINSt7__cxx1112basic_stringIcSt11char_traitsIcESaIcEEESt4pairIKS5_St5tupleIJS5_N6BICYCL6_Utils17CL_HSM_CipherTextINS9_8CL_HSMqkEEESD_SD_SD_EEESt10_Select1stISF_ESt4lessIS5_ESaISF_EE22_M_emplace_hint_uniqueIJS6_IS5_SE_EEEESt17_Rb_tree_iteratorISF_ESt23_Rb_tree_const_iteratorISF_EDpOT_
FNDA:10,_ZNSt8_Rb_treeINSt7__cxx1112basic_stringIcSt11char_traitsIcESaIcEEESt4pairIKS5_St5tupleIJP14PolicyContractN6BICYCL6_Utils16CL_HSM_PublicKeyINSB_8CL_HSMqkEEENSC_17CL_HSM_CipherTextISE_EES5_EEESt10_Select1stISJ_ESt4lessIS5_ESaISJ_EE4findERS7_
FNDA:1,_ZNSt8_Rb_treeINSt7__cxx1112basic_stringIcSt11char_traitsIcESaIcEEESt4pairIKS5_St5tupleIJS5_N6BICYCL6_Utils16CL_HSM_ClearTextINS9_8CL_HSMqkEEEEEESt10_Select1stISF_ESt4lessIS5_ESaISF_EE4findERS7_
FNDA:6,_ZNSt8_Rb_treeINSt7__cxx1112basic_stringIcSt11char_traitsIcESaIcEEESt4pairIKS5_St5tupleIJS5_N6BICYCL6_Utils17CL_HSM_CipherTextINS9_8CL_HSMqkEEE11curve_pointS5_EEESt10_Select1stISG_ESt4lessIS5_ESaISG_EE4findERS7_
FNDA:3,_ZNSt8_Rb_treeINSt7__cxx1112basic_stringIcSt11char_traitsIcESaIcEEESt4pairIKS5_St5tupleIJS5_N6BICYCL6_Utils17CL_HSM_CipherTextINS9_8CL_HSMqkEEESD_SD_SD_EEESt10_Select1stISF_ESt4lessIS5_ESaISF_EE4findERS7_
FNDA:56,_ZNSt17_Rb_tree_iteratorISt4pairIKNSt7__cxx1112basic_stringIcSt11char_traitsIcESaIcEEESt5tupleIJP14PolicyContractN6BICYCL6_Utils16CL_HSM_PublicKeyINSB_8CL_HSMqkEEENSC_17CL_HSM_CipherTextISE_EES6_EEEEC2EPSt18_Rb_tree_node_base
FNDA:11,_ZNSt17_Rb_tree_iteratorISt4pairIKNSt7__cxx1112basic_stringIcSt11char_traitsIcESaIcEEESt5tupleIJS6_N6BICYCL6_Utils16CL_HSM_ClearTextINS9_8CL_HSMqkEEEEEEEC2EPSt18_Rb_tree_node_base
FNDA:44,_ZNSt17_Rb_tree_iteratorISt4pairIKNSt7__cxx1112basic_stringIcSt11char_traitsIcESaIcEEESt5tupleIJS6_N6BICYCL6_Utils17CL_HSM_CipherTextINS9_8CL_HSMqkEEE11curve_pointS6_EEEEC2EPSt18_Rb_tree_node_base
FNDA:21,_ZNSt17_Rb_tree_iteratorISt4pairIKNSt7__cxx1112basic_stringIcSt11char_traitsIcESaIcEEESt5tupleIJS6_N6BICYCL6_Utils17CL_HSM_CipherTextINS9_8CL_HSMqkEEESD_SD_SD_EEEEC2EPSt18_Rb_tree_node_base
FNDA:20,_ZNKSt17_Rb_tree_iteratorISt4pairIKNSt7__cxx1112basic_stringIcSt11char_traitsIcESaIcEEESt5tupleIJP14PolicyContractN6BICYCL6_Utils16CL_HSM_PublicKeyINSB_8CL_HSMqkEEENSC_17CL_HSM_CipherTextISE_EES6_EEEEdeEv
FNDA:2,_ZNKSt17_Rb_tree_iteratorISt4pairIKNSt7__cxx1112basic_stringIcSt11char_traitsIcESaIcEEESt5tupleIJS6_N6BICYCL6_Utils16CL_HSM_ClearTextINS9_8CL_HSMqkEEEEEEEdeEv
FNDA:19,_ZNKSt17_Rb_tree_iteratorISt4pairIKNSt7__cxx1112basic_stringIcSt11char_traitsIcESaIcEEESt5tupleIJS6_N6BICYCL6_Utils17CL_HSM_CipherTextINS9_8CL_HSMqkEEE11curve_pointS6_EEEEdeEv
FNDA:6,_ZNKSt17_Rb_tree_iteratorISt4pairIKNSt7__cxx1112basic_stringIcSt11char_traitsIcESaIcEEESt5tupleIJS6_N6BICYCL6_Utils17CL_HSM_CipherTextINS9_8CL_HSMqkEEESD_SD_SD_EEEEdeEv
FNDA:0,_ZNSt17_Rb_tree_iteratorISt4pairIKNSt7__cxx1112basic_stringIcSt11char_traitsIcESaIcEEESt5tupleIJP14PolicyContractN6BICYCL6_Utils16CL_HSM_PublicKeyINSB_8CL_HSMqkEEENSC_17CL_HSM_CipherTextISE_EES6_EEEEppEv
FNDA:0,_ZNSt17_Rb_tree_iteratorISt4pairIKNSt7__cxx1112basic_stringIcSt11char_traitsIcESaIcEEESt5tupleIJS6_N6BICYCL6_Utils16CL_HSM_ClearTextINS9_8CL_HSMqkEEEEEEEppEv
FNDA:1,_ZNSt17_Rb_tree_iteratorISt4pairIKNSt7__cxx1112basic_stringIcSt11char_traitsIcESaIcEEESt5tupleIJS6_N6BICYCL6_Utils17CL_HSM_CipherTextINS9_8CL_HSMqkEEE11curve_pointS6_EEEEppEv
FNDA:0,_ZNSt17_Rb_tree_iteratorISt4pairIKNSt7__cxx1112basic_stringIcSt11char_traitsIcESaIcEEESt5tupleIJS6_N6BICYCL6_Utils17CL_HSM_CipherTextINS9_8CL_HSMqkEEESD_SD_SD_EEEEppEv
FNDA:0,_ZNSt17_Rb_tree_iteratorISt4pairIKNSt7__cxx1112basic_stringIcSt11char_traitsIcESaIcEEESt5tupleIJP14PolicyContractN6BICYCL6_Utils16CL_HSM_PublicKeyINSB_8CL_HSMqkEEENSC_17CL_HSM_CipherTextISE_EES6_EEEEmmEv
FNDA:0,_ZNSt17_Rb_tree_iteratorISt4pairIKNSt7__cxx1112basic_stringIcSt11char_traitsIcESaIcEEESt5tupleIJS6_N6BICYCL6_Utils16CL_HSM_ClearTextINS9_8CL_HSMqkEEEEEEEmmEv
FNDA:0,_ZNSt17_Rb_tree_iteratorISt4pairIKNSt7__cxx1112basic_stringIcSt11char_traitsIcESaIcEEESt5tupleIJS6_N6BICYCL6_Utils17CL_HSM_CipherTextINS9_8CL_HSMqkEEE11curve_pointS6_EEEEmmEv
FNDA:0,_ZNSt17_Rb_tree_iteratorISt4pairIKNSt7__cxx1112basic_stringIcSt11char_traitsIcESaIcEEESt5tupleIJS6_N6BICYCL6_Utils17CL_HSM_CipherTextINS9_8CL_HSMqkEEESD_SD_SD_EEEEmmEv
FNDA:22,_ZSteqRKSt17_Rb_tree_iteratorISt4pairIKNSt7__cxx1112basic_stringIcSt11char_traitsIcESaIcEEESt5tupleIJP14PolicyContractN6BICYCL6_Utils16CL_HSM_PublicKeyINSB_8CL_HSMqkEEENSC_17CL_HSM_CipherTextISE_EES6_EEEESM_
FNDA:4,_ZSteqRKSt17_Rb_tree_iteratorISt4pairIKNSt7__cxx1112basic_stringIcSt11char_traitsIcESaIcEEESt5tupleIJS6_N6BICYCL6_Utils16CL_HSM_ClearTextINS9_8CL_HSMqkEEEEEEESI_
FNDA:17,_ZSteqRKSt17_Rb_tree_iteratorISt4pairIKNSt7__cxx1112basic_stringIcSt11char_traitsIcESaIcEEESt5tupleIJS6_N6BICYCL6_Utils17CL_HSM_CipherTextINS9_8CL_HSMqkEEE11curve_pointS6_EEEESJ_
FNDA:8,_ZSteqRKSt17_Rb_tree_iteratorISt4pairIKNSt7__cxx1112basic_stringIcSt11char_traitsIcESaIcEEESt5tupleIJS6_N6BICYCL6_Utils17CL_HSM_CipherTextINS9_8CL_HSMqkEEESD_SD_SD_EEEESI_
FNDA:10,_ZStneRKSt17_Rb_tree_iteratorISt4pairIKNSt7__cxx1112basic_stringIcSt11char_traitsIcESaIcEEESt5tupleIJP14PolicyContractN6BICYCL6_Utils16CL_HSM_PublicKeyINSB_8CL_HSMqkEEENSC_17CL_HSM_CipherTextISE_EES6_EEEESM_
FNDA:1,_ZStneRKSt17_Rb_tree_iteratorISt4pairIKNSt7__cxx1112basic_stringIcSt11char_traitsIcESaIcEEESt5tupleIJS6_N6BICYCL6_Utils16CL_HSM_ClearTextINS9_8CL_HSMqkEEEEEEESI_
FNDA:8,_ZStneRKSt17_Rb_tree_iteratorISt4pairIKNSt7__cxx1112basic_stringIcSt11char_traitsIcESaIcEEESt5tupleIJS6_N6BICYCL6_Utils17CL_HSM_CipherTextINS9_8CL_HSMqkEEE11curve_pointS6_EEEESJ_
FNDA:3,_ZStneRKSt17_Rb_tree_iteratorISt4pairIKNSt7__cxx1112basic_stringIcSt11char_traitsIcESaIcEEESt5tupleIJS6_N6BICYCL6_Utils17CL_HSM_CipherTextINS9_8CL_HSMqkEEESD_SD_SD_EEEESI_
FNDA:1,_ZNSt23_Rb_tree_const_iteratorISt4pairIKNSt7__cxx1112basic_stringIcSt11char_traitsIcESaIcEEESt5tupleIJP14PolicyContractN6BICYCL6_Utils16CL_HSM_PublicKeyINSB_8CL_HSMqkEEENSC_17CL_HSM_CipherTextISE_EES6_EEEEC2ERKSt17_Rb_tree_iteratorISJ_E
FNDA:1,_ZNSt23_Rb_tree_const_iteratorISt4pairIKNSt7__cxx1112basic_stringIcSt11char_traitsIcESaIcEEESt5tupleIJS6_N6BICYCL6_Utils16CL_HSM_ClearTextINS9_8CL_HSMqkEEEEEEEC2ERKSt17_Rb_tree_iteratorISF_E
FNDA:1,_ZNSt23_Rb_tree_const_iteratorISt4pairIKNSt7__cxx1112basic_stringIcSt11char_traitsIcESaIcEEESt5tupleIJS6_N6BICYCL6_Utils17CL_HSM_CipherTextINS9_8CL_HSMqkEEE11curve_pointS6_EEEEC2ERKSt17_Rb_tree_iteratorISG_E
FNDA:1,_ZNSt23_Rb_tree_const_iteratorISt4pairIKNSt7__cxx1112basic_stringIcSt11char_traitsIcESaIcEEESt5tupleIJS6_N6BICYCL6_Utils17CL_HSM_CipherTextINS9_8CL_HSMqkEEESD_SD_SD_EEEEC2ERKSt17_Rb_tree_iteratorISF_E
FNDA:1,_ZNKSt23_Rb_tree_const_iteratorISt4pairIKNSt7__cxx1112basic_stringIcSt11char_traitsIcESaIcEEESt5tupleIJP14PolicyContractN6BICYCL6_Utils16CL_HSM_PublicKeyINSB_8CL_HSMqkEEENSC_17CL_HSM_CipherTextISE_EES6_EEEE13_M_const_castEv
FNDA:1,_ZNKSt23_Rb_tree_const_iteratorISt4pairIKNSt7__cxx1112basic_stringIcSt11char_traitsIcESaIcEEESt5tupleIJS6_N6BICYCL6_Utils16CL_HSM_ClearTextINS9_8CL_HSMqkEEEEEEE13_M_const_castEv
FNDA:1,_ZNKSt23_Rb_tree_const_iteratorISt4pairIKNSt7__cxx1112basic_stringIcSt11char_traitsIcESaIcEEESt5tupleIJS6_N6BICYCL6_Utils17CL_HSM_CipherTextINS9_8CL_HSMqkEEE11curve_pointS6_EEEE13_M_const_castEv
FNDA:1,_ZNKSt23_Rb_tree_const_iteratorISt4pairIKNSt7__cxx1112basic_stringIcSt11char_traitsIcESaIcEEESt5tupleIJS6_N6BICYCL6_Utils17CL_HSM_CipherTextINS9_8CL_HSMqkEEESD_SD_SD_EEEE13_M_const_castEv
FNDA:4,_ZNSt8_Rb_treeINSt7__cxx1112basic_stringIcSt11char_traitsIcESaIcEEESt4pairIKS5_St5tupleIJP14PolicyContractN6BICYCL6_Utils16CL_HSM_PublicKeyINSB_8CL_HSMqkEEENSC_17CL_HSM_CipherTextISE_EES5_EEESt10_Select1stISJ_ESt4lessIS5_ESaISJ_EE21_M_get_Node_allocatorEv
FNDA:4,_ZNSt8_Rb_treeINSt7__cxx1112basic_stringIcSt11char_traitsIcESaIcEEESt4pairIKS5_St5tupleIJS5_N6BICYCL6_Utils16CL_HSM_ClearTextINS9_8CL_HSMqkEEEEEESt10_Select1stISF_ESt4lessIS5_ESaISF_EE21_M_get_Node_allocatorEv
FNDA:4,_ZNSt8_Rb_treeINSt7__cxx1112basic_stringIcSt11char_traitsIcESaIcEEESt4pairIKS5_St5tupleIJS5_N6BICYCL6_Utils17CL_HSM_CipherTextINS9_8CL_HSMqkEEE11curve_pointS5_EEESt10_Select1stISG_ESt4lessIS5_ESaISG_EE21_M_get_Node_allocatorEv
FNDA:4,_ZNSt8_Rb_treeINSt7__cxx1112basic_stringIcSt11char_traitsIcESaIcEEESt4pairIKS5_St5tupleIJS5_N6BICYCL6_Utils17CL_HSM_CipherTextINS9_8CL_HSMqkEEESD_SD_SD_EEESt10_Select1stISF_ESt4lessIS5_ESaISF_EE21_M_get_Node_allocatorEv
FNDA:1,_ZNSt8_Rb_treeINSt7__cxx1112basic_stringIcSt11char_traitsIcESaIcEEESt4pairIKS5_St5tupleIJP14PolicyContractN6BICYCL6_Utils16CL_HSM_PublicKeyINSB_8CL_HSMqkEEENSC_17CL_HSM_CipherTextISE_EES5_EEESt10_Select1stISJ_ESt4lessIS5_ESaISJ_EE11_M_get_nodeEv
FNDA:1,_ZNSt8_Rb_treeINSt7__cxx1112basic_stringIcSt11char_traitsIcESaIcEEESt4pairIKS5_St5tupleIJS5_N6BICYCL6_Utils16CL_HSM_ClearTextINS9_8CL_HSMqkEEEEEESt10_Select1stISF_ESt4lessIS5_ESaISF_EE11_M_get_nodeEv
FNDA:1,_ZNSt8_Rb_treeINSt7__cxx1112basic_stringIcSt11char_traitsIcESaIcEEESt4pairIKS5_St5tupleIJS5_N6BICYCL6_Utils17CL_HSM_CipherTextINS9_8CL_HSMqkEEE11curve_pointS5_EEESt10_Select1stISG_ESt4lessIS5_ESaISG_EE11_M_get_nodeEv
FNDA:1,_ZNSt8_Rb_treeINSt7__cxx1112basic_stringIcSt11char_traitsIcESaIcEEESt4pairIKS5_St5tupleIJS5_N6BICYCL6_Utils17CL_HSM_CipherTextINS9_8CL_HSMqkEEESD_SD_SD_EEESt10_Select1stISF_ESt4lessIS5_ESaISF_EE11_M_get_nodeEv
FNDA:1,_ZNSt8_Rb_treeINSt7__cxx1112basic_stringIcSt11char_traitsIcESaIcEEESt4pairIKS5_St5tupleIJP14PolicyContractN6BICYCL6_Utils16CL_HSM_PublicKeyINSB_8CL_HSMqkEEENSC_17CL_HSM_CipherTextISE_EES5_EEESt10_Select1stISJ_ESt4lessIS5_ESaISJ_EE11_M_put_nodeEPSt13_Rb_tree_nodeISJ_E
FNDA:1,_ZNSt8_Rb_treeINSt7__cxx1112basic_stringIcSt11char_traitsIcESaIcEEESt4pairIKS5_St5tupleIJS5_N6BICYCL6_Utils16CL_HSM_ClearTextINS9_8CL_HSMqkEEEEEESt10_Select1stISF_ESt4lessIS5_ESaISF_EE11_M_put_nodeEPSt13_Rb_tree_nodeISF_E
FNDA:1,_ZNSt8_Rb_treeINSt7__cxx1112basic_stringIcSt11char_traitsIcESaIcEEESt4pairIKS5_St5tupleIJS5_N6BICYCL6_Utils17CL_HSM_CipherTextINS9_8CL_HSMqkEEE11curve_pointS5_EEESt10_Select1stISG_ESt4lessIS5_ESaISG_EE11_M_put_nodeEPSt13_Rb_tree_nodeISG_E
FNDA:1,_ZNSt8_Rb_treeINSt7__cxx1112basic_stringIcSt11char_traitsIcESaIcEEESt4pairIKS5_St5tupleIJS5_N6BICYCL6_Utils17CL_HSM_CipherTextINS9_8CL_HSMqkEEESD_SD_SD_EEESt10_Select1stISF_ESt4lessIS5_ESaISF_EE11_M_put_nodeEPSt13_Rb_tree_nodeISF_E
FNDA:1,_ZNSt8_Rb_treeINSt7__cxx1112basic_stringIcSt11char_traitsIcESaIcEEESt4pairIKS5_St5tupleIJP14PolicyContractN6BICYCL6_Utils16CL_HSM_PublicKeyINSB_8CL_HSMqkEEENSC_17CL_HSM_CipherTextISE_EES5_EEESt10_Select1stISJ_ESt4lessIS5_ESaISJ_EE17_M_construct_nodeIJS6_IS5_SI_EEEEvPSt13_Rb_tree_nodeISJ_EDpOT_
FNDA:1,_ZNSt8_Rb_treeINSt7__cxx1112basic_stringIcSt11char_traitsIcESaIcEEESt4pairIKS5_St5tupleIJS5_N6BICYCL6_Utils16CL_HSM_ClearTextINS9_8CL_HSMqkEEEEEESt10_Select1stISF_ESt4lessIS5_ESaISF_EE17_M_construct_nodeIJS6_IS5_SE_EEEEvPSt13_Rb_tree_nodeISF_EDpOT_
FNDA:1,_ZNSt8_Rb_treeINSt7__cxx1112basic_stringIcSt11char_traitsIcESaIcEEESt4pairIKS5_St5tupleIJS5_N6BICYCL6_Utils17CL_HSM_CipherTextINS9_8CL_HSMqkEEE11curve_pointS5_EEESt10_Select1stISG_ESt4lessIS5_ESaISG_EE17_M_construct_nodeIJS6_IS5_SF_EEEEvPSt13_Rb_tree_nodeISG_EDpOT_
FNDA:1,_ZNSt8_Rb_treeINSt7__cxx1112basic_stringIcSt11char_traitsIcESaIcEEESt4pairIKS5_St5tupleIJS5_N6BICYCL6_Utils17CL_HSM_CipherTextINS9_8CL_HSMqkEEESD_SD_SD_EEESt10_Select1stISF_ESt4lessIS5_ESaISF_EE17_M_construct_nodeIJS6_IS5_SE_EEEEvPSt13_Rb_tree_nodeISF_EDpOT_
FNDA:1,_ZNSt8_Rb_treeINSt7__cxx1112basic_stringIcSt11char_traitsIcESaIcEEESt4pairIKS5_St5tupleIJP14PolicyContractN6BICYCL6_Utils16CL_HSM_PublicKeyINSB_8CL_HSMqkEEENSC_17CL_HSM_CipherTextISE_EES5_EEESt10_Select1stISJ_ESt4lessIS5_ESaISJ_EE14_M_create_nodeIJS6_IS5_SI_EEEEPSt13_Rb_tree_nodeISJ_EDpOT_
FNDA:1,_ZNSt8_Rb_treeINSt7__cxx1112basic_stringIcSt11char_traitsIcESaIcEEESt4pairIKS5_St5tupleIJS5_N6BICYCL6_Utils16CL_HSM_ClearTextINS9_8CL_HSMqkEEEEEESt10_Select1stISF_ESt4lessIS5_ESaISF_EE14_M_create_nodeIJS6_IS5_SE_EEEEPSt13_Rb_tree_nodeISF_EDpOT_
FNDA:1,_ZNSt8_Rb_treeINSt7__cxx1112basic_stringIcSt11char_traitsIcESaIcEEESt4pairIKS5_St5tupleIJS5_N6BICYCL6_Utils17CL_HSM_CipherTextINS9_8CL_HSMqkEEE11curve_pointS5_EEESt10_Select1stISG_ESt4lessIS5_ESaISG_EE14_M_create_nodeIJS6_IS5_SF_EEEEPSt13_Rb_tree_nodeISG_EDpOT_
FNDA:1,_ZNSt8_Rb_treeINSt7__cxx1112basic_stringIcSt11char_traitsIcESaIcEEESt4pairIKS5_St5tupleIJS5_N6BICYCL6_Utils17CL_HSM_CipherTextINS9_8CL_HSMqkEEESD_SD_SD_EEESt10_Select1stISF_ESt4lessIS5_ESaISF_EE14_M_create_nodeIJS6_IS5_SE_EEEEPSt13_Rb_tree_nodeISF_EDpOT_
FNDA:1,_ZNSt8_Rb_treeINSt7__cxx1112basic_stringIcSt11char_traitsIcESaIcEEESt4pairIKS5_St5tupleIJP14PolicyContractN6BICYCL6_Utils16CL_HSM_PublicKeyINSB_8CL_HSMqkEEENSC_17CL_HSM_CipherTextISE_EES5_EEESt10_Select1stISJ_ESt4lessIS5_ESaISJ_EE15_M_destroy_nodeEPSt13_Rb_tree_nodeISJ_E
FNDA:1,_ZNSt8_Rb_treeINSt7__cxx1112basic_stringIcSt11char_traitsIcESaIcEEESt4pairIKS5_St5tupleIJS5_N6BICYCL6_Utils16CL_HSM_ClearTextINS9_8CL_HSMqkEEEEEESt10_Select1stISF_ESt4lessIS5_ESaISF_EE15_M_destroy_nodeEPSt13_Rb_tree_nodeISF_E
FNDA:1,_ZNSt8_Rb_treeINSt7__cxx1112basic_stringIcSt11char_traitsIcESaIcEEESt4pairIKS5_St5tupleIJS5_N6BICYCL6_Utils17CL_HSM_CipherTextINS9_8CL_HSMqkEEE11curve_pointS5_EEESt10_Select1stISG_ESt4lessIS5_ESaISG_EE15_M_destroy_nodeEPSt13_Rb_tree_nodeISG_E
FNDA:1,_ZNSt8_Rb_treeINSt7__cxx1112basic_stringIcSt11char_traitsIcESaIcEEESt4pairIKS5_St5tupleIJS5_N6BICYCL6_Utils17CL_HSM_CipherTextINS9_8CL_HSMqkEEESD_SD_SD_EEESt10_Select1stISF_ESt4lessIS5_ESaISF_EE15_M_destroy_nodeEPSt13_Rb_tree_nodeISF_E
FNDA:1,_ZNSt8_Rb_treeINSt7__cxx1112basic_stringIcSt11char_traitsIcESaIcEEESt4pairIKS5_St5tupleIJP14PolicyContractN6BICYCL6_Utils16CL_HSM_PublicKeyINSB_8CL_HSMqkEEENSC_17CL_HSM_CipherTextISE_EES5_EEESt10_Select1stISJ_ESt4lessIS5_ESaISJ_EE12_M_drop_nodeEPSt13_Rb_tree_nodeISJ_E
FNDA:1,_ZNSt8_Rb_treeINSt7__cxx1112basic_stringIcSt11char_traitsIcESaIcEEESt4pairIKS5_St5tupleIJS5_N6BICYCL6_Utils16CL_HSM_ClearTextINS9_8CL_HSMqkEEEEEESt10_Select1stISF_ESt4lessIS5_ESaISF_EE12_M_drop_nodeEPSt13_Rb_tree_nodeISF_E
FNDA:1,_ZNSt8_Rb_treeINSt7__cxx1112basic_stringIcSt11char_traitsIcESaIcEEESt4pairIKS5_St5tupleIJS5_N6BICYCL6_Utils17CL_HSM_CipherTextINS9_8CL_HSMqkEEE11curve_pointS5_EEESt10_Select1stISG_ESt4lessIS5_ESaISG_EE12_M_drop_nodeEPSt13_Rb_tree_nodeISG_E
FNDA:1,_ZNSt8_Rb_treeINSt7__cxx1112basic_stringIcSt11char_traitsIcESaIcEEESt4pairIKS5_St5tupleIJS5_N6BICYCL6_Utils17CL_HSM_CipherTextINS9_8CL_HSMqkEEESD_SD_SD_EEESt10_Select1stISF_ESt4lessIS5_ESaISF_EE12_M_drop_nodeEPSt13_Rb_tree_nodeISF_E
FNDA:1,_ZNSt8_Rb_treeINSt7__cxx1112basic_stringIcSt11char_traitsIcESaIcEEESt4pairIKS5_St5tupleIJP14PolicyContractN6BICYCL6_Utils16CL_HSM_PublicKeyINSB_8CL_HSMqkEEENSC_17CL_HSM_CipherTextISE_EES5_EEESt10_Select1stISJ_ESt4lessIS5_ESaISJ_EE13_Rb_tree_implISN_Lb1EEC2Ev
FNDA:1,_ZNSt8_Rb_treeINSt7__cxx1112basic_stringIcSt11char_traitsIcESaIcEEESt4pairIKS5_St5tupleIJS5_N6BICYCL6_Utils16CL_HSM_ClearTextINS9_8CL_HSMqkEEEEEESt10_Select1stISF_ESt4lessIS5_ESaISF_EE13_Rb_tree_implISJ_Lb1EEC2Ev
FNDA:1,_ZNSt8_Rb_treeINSt7__cxx1112basic_stringIcSt11char_traitsIcESaIcEEESt4pairIKS5_St5tupleIJS5_N6BICYCL6_Utils17CL_HSM_CipherTextINS9_8CL_HSMqkEEE11curve_pointS5_EEESt10_Select1stISG_ESt4lessIS5_ESaISG_EE13_Rb_tree_implISK_Lb1EEC2Ev
FNDA:1,_ZNSt8_Rb_treeINSt7__cxx1112basic_stringIcSt11char_traitsIcESaIcEEESt4pairIKS5_St5tupleIJS5_N6BICYCL6_Utils17CL_HSM_CipherTextINS9_8CL_HSMqkEEESD_SD_SD_EEESt10_Select1stISF_ESt4lessIS5_ESaISF_EE13_Rb_tree_implISJ_Lb1EEC2Ev
FNDA:0,_ZNSt8_Rb_treeINSt7__cxx1112basic_stringIcSt11char_traitsIcESaIcEEESt4pairIKS5_St5tupleIJP14PolicyContractN6BICYCL6_Utils16CL_HSM_PublicKeyINSB_8CL_HSMqkEEENSC_17CL_HSM_CipherTextISE_EES5_EEESt10_Select1stISJ_ESt4lessIS5_ESaISJ_EE11_M_leftmostEv
FNDA:0,_ZNSt8_Rb_treeINSt7__cxx1112basic_stringIcSt11char_traitsIcESaIcEEESt4pairIKS5_St5tupleIJS5_N6BICYCL6_Utils16CL_HSM_ClearTextINS9_8CL_HSMqkEEEEEESt10_Select1stISF_ESt4lessIS5_ESaISF_EE11_M_leftmostEv
FNDA:0,_ZNSt8_Rb_treeINSt7__cxx1112basic_stringIcSt11char_traitsIcESaIcEEESt4pairIKS5_St5tupleIJS5_N6BICYCL6_Utils17CL_HSM_CipherTextINS9_8CL_HSMqkEEE11curve_pointS5_EEESt10_Select1stISG_ESt4lessIS5_ESaISG_EE11_M_leftmostEv
FNDA:0,_ZNSt8_Rb_treeINSt7__cxx1112basic_stringIcSt11char_traitsIcESaIcEEESt4pairIKS5_St5tupleIJS5_N6BICYCL6_Utils17CL_HSM_CipherTextINS9_8CL_HSMqkEEESD_SD_SD_EEESt10_Select1stISF_ESt4lessIS5_ESaISF_EE11_M_leftmostEv
FNDA:0,_ZNSt8_Rb_treeINSt7__cxx1112basic_stringIcSt11char_traitsIcESaIcEEESt4pairIKS5_St5tupleIJP14PolicyContractN6BICYCL6_Utils16CL_HSM_PublicKeyINSB_8CL_HSMqkEEENSC_17CL_HSM_CipherTextISE_EES5_EEESt10_Select1stISJ_ESt4lessIS5_ESaISJ_EE12_M_rightmostEv
FNDA:0,_ZNSt8_Rb_treeINSt7__cxx1112basic_stringIcSt11char_traitsIcESaIcEEESt4pairIKS5_St5tupleIJS5_N6BICYCL6_Utils16CL_HSM_ClearTextINS9_8CL_HSMqkEEEEEESt10_Select1stISF_ESt4lessIS5_ESaISF_EE12_M_rightmostEv
FNDA:0,_ZNSt8_Rb_treeINSt7__cxx1112basic_stringIcSt11char_traitsIcESaIcEEESt4pairIKS5_St5tupleIJS5_N6BICYCL6_Utils17CL_HSM_CipherTextINS9_8CL_HSMqkEEE11curve_pointS5_EEESt10_Select1stISG_ESt4lessIS5_ESaISG_EE12_M_rightmostEv
FNDA:0,_ZNSt8_Rb_treeINSt7__cxx1112basic_stringIcSt11char_traitsIcESaIcEEESt4pairIKS5_St5tupleIJS5_N6BICYCL6_Utils17CL_HSM_CipherTextINS9_8CL_HSMqkEEESD_SD_SD_EEESt10_Select1stISF_ESt4lessIS5_ESaISF_EE12_M_rightmostEv
FNDA:23,_ZNKSt8_Rb_treeINSt7__cxx1112basic_stringIcSt11char_traitsIcESaIcEEESt4pairIKS5_St5tupleIJP14PolicyContractN6BICYCL6_Utils16CL_HSM_PublicKeyINSB_8CL_HSMqkEEENSC_17CL_HSM_CipherTextISE_EES5_EEESt10_Select1stISJ_ESt4lessIS5_ESaISJ_EE9_M_mbeginEv
FNDA:5,_ZNKSt8_Rb_treeINSt7__cxx1112basic_stringIcSt11char_traitsIcESaIcEEESt4pairIKS5_St5tupleIJS5_N6BICYCL6_Utils16CL_HSM_ClearTextINS9_8CL_HSMqkEEEEEESt10_Select1stISF_ESt4lessIS5_ESaISF_EE9_M_mbeginEv
FNDA:18,_ZNKSt8_Rb_treeINSt7__cxx1112basic_stringIcSt11char_traitsIcESaIcEEESt4pairIKS5_St5tupleIJS5_N6BICYCL6_Utils17CL_HSM_CipherTextINS9_8CL_HSMqkEEE11curve_pointS5_EEESt10_Select1stISG_ESt4lessIS5_ESaISG_EE9_M_mbeginEv
FNDA:9,_ZNKSt8_Rb_treeINSt7__cxx1112basic_stringIcSt11char_traitsIcESaIcEEESt4pairIKS5_St5tupleIJS5_N6BICYCL6_Utils17CL_HSM_CipherTextINS9_8CL_HSMqkEEESD_SD_SD_EEESt10_Select1stISF_ESt4lessIS5_ESaISF_EE9_M_mbeginEv
FNDA:23,_ZNSt8_Rb_treeINSt7__cxx1112basic_stringIcSt11char_traitsIcESaIcEEESt4pairIKS5_St5tupleIJP14PolicyContractN6BICYCL6_Utils16CL_HSM_PublicKeyINSB_8CL_HSMqkEEENSC_17CL_HSM_CipherTextISE_EES5_EEESt10_Select1stISJ_ESt4lessIS5_ESaISJ_EE8_M_beginEv
FNDA:5,_ZNSt8_Rb_treeINSt7__cxx1112basic_stringIcSt11char_traitsIcESaIcEEESt4pairIKS5_St5tupleIJS5_N6BICYCL6_Utils16CL_HSM_ClearTextINS9_8CL_HSMqkEEEEEESt10_Select1stISF_ESt4lessIS5_ESaISF_EE8_M_beginEv
FNDA:18,_ZNSt8_Rb_treeINSt7__cxx1112basic_stringIcSt11char_traitsIcESaIcEEESt4pairIKS5_St5tupleIJS5_N6BICYCL6_Utils17CL_HSM_CipherTextINS9_8CL_HSMqkEEE11curve_pointS5_EEESt10_Select1stISG_ESt4lessIS5_ESaISG_EE8_M_beginEv
FNDA:9,_ZNSt8_Rb_treeINSt7__cxx1112basic_stringIcSt11char_traitsIcESaIcEEESt4pairIKS5_St5tupleIJS5_N6BICYCL6_Utils17CL_HSM_CipherTextINS9_8CL_HSMqkEEESD_SD_SD_EEESt10_Select1stISF_ESt4lessIS5_ESaISF_EE8_M_beginEv
FNDA:24,_ZNSt8_Rb_treeINSt7__cxx1112basic_stringIcSt11char_traitsIcESaIcEEESt4pairIKS5_St5tupleIJP14PolicyContractN6BICYCL6_Utils16CL_HSM_PublicKeyINSB_8CL_HSMqkEEENSC_17CL_HSM_CipherTextISE_EES5_EEESt10_Select1stISJ_ESt4lessIS5_ESaISJ_EE6_M_endEv
FNDA:6,_ZNSt8_Rb_treeINSt7__cxx1112basic_stringIcSt11char_traitsIcESaIcEEESt4pairIKS5_St5tupleIJS5_N6BICYCL6_Utils16CL_HSM_ClearTextINS9_8CL_HSMqkEEEEEESt10_Select1stISF_ESt4lessIS5_ESaISF_EE6_M_endEv
FNDA:19,_ZNSt8_Rb_treeINSt7__cxx1112basic_stringIcSt11char_traitsIcESaIcEEESt4pairIKS5_St5tupleIJS5_N6BICYCL6_Utils17CL_HSM_CipherTextINS9_8CL_HSMqkEEE11curve_pointS5_EEESt10_Select1stISG_ESt4lessIS5_ESaISG_EE6_M_endEv
FNDA:10,_ZNSt8_Rb_treeINSt7__cxx1112basic_stringIcSt11char_traitsIcESaIcEEESt4pairIKS5_St5tupleIJS5_N6BICYCL6_Utils17CL_HSM_CipherTextINS9_8CL_HSMqkEEESD_SD_SD_EEESt10_Select1stISF_ESt4lessIS5_ESaISF_EE6_M_endEv
FNDA:31,_ZNSt8_Rb_treeINSt7__cxx1112basic_stringIcSt11char_traitsIcESaIcEEESt4pairIKS5_St5tupleIJP14PolicyContractN6BICYCL6_Utils16CL_HSM_PublicKeyINSB_8CL_HSMqkEEENSC_17CL_HSM_CipherTextISE_EES5_EEESt10_Select1stISJ_ESt4lessIS5_ESaISJ_EE6_S_keyEPKSt13_Rb_tree_nodeISJ_E
FNDA:4,_ZNSt8_Rb_treeINSt7__cxx1112basic_stringIcSt11char_traitsIcESaIcEEESt4pairIKS5_St5tupleIJS5_N6BICYCL6_Utils16CL_HSM_ClearTextINS9_8CL_HSMqkEEEEEESt10_Select1stISF_ESt4lessIS5_ESaISF_EE6_S_keyEPKSt13_Rb_tree_nodeISF_E
FNDA:22,_ZNSt8_Rb_treeINSt7__cxx1112basic_stringIcSt11char_traitsIcESaIcEEESt4pairIKS5_St5tupleIJS5_N6BICYCL6_Utils17CL_HSM_CipherTextINS9_8CL_HSMqkEEE11curve_pointS5_EEESt10_Select1stISG_ESt4lessIS5_ESaISG_EE6_S_keyEPKSt13_Rb_tree_nodeISG_E
FNDA:10,_ZNSt8_Rb_treeINSt7__cxx1112basic_stringIcSt11char_traitsIcESaIcEEESt4pairIKS5_St5tupleIJS5_N6BICYCL6_Utils17CL_HSM_CipherTextINS9_8CL_HSMqkEEESD_SD_SD_EEESt10_Select1stISF_ESt4lessIS5_ESaISF_EE6_S_keyEPKSt13_Rb_tree_nodeISF_E
FNDA:21,_ZNSt8_Rb_treeINSt7__cxx1112basic_stringIcSt11char_traitsIcESaIcEEESt4pairIKS5_St5tupleIJP14PolicyContractN6BICYCL6_Utils16CL_HSM_PublicKeyINSB_8CL_HSMqkEEENSC_17CL_HSM_CipherTextISE_EES5_EEESt10_Select1stISJ_ESt4lessIS5_ESaISJ_EE7_S_leftEPSt18_Rb_tree_node_base
FNDA:3,_ZNSt8_Rb_treeINSt7__cxx1112basic_stringIcSt11char_traitsIcESaIcEEESt4pairIKS5_St5tupleIJS5_N6BICYCL6_Utils16CL_HSM_ClearTextINS9_8CL_HSMqkEEEEEESt10_Select1stISF_ESt4lessIS5_ESaISF_EE7_S_leftEPSt18_Rb_tree_node_base
FNDA:16,_ZNSt8_Rb_treeINSt7__cxx1112basic_stringIcSt11char_traitsIcESaIcEEESt4pairIKS5_St5tupleIJS5_N6BICYCL6_Utils17CL_HSM_CipherTextINS9_8CL_HSMqkEEE11curve_pointS5_EEESt10_Select1stISG_ESt4lessIS5_ESaISG_EE7_S_leftEPSt18_Rb_tree_node_base
FNDA:7,_ZNSt8_Rb_treeINSt7__cxx1112basic_stringIcSt11char_traitsIcESaIcEEESt4pairIKS5_St5tupleIJS5_N6BICYCL6_Utils17CL_HSM_CipherTextINS9_8CL_HSMqkEEESD_SD_SD_EEESt10_Select1stISF_ESt4lessIS5_ESaISF_EE7_S_leftEPSt18_Rb_tree_node_base
FNDA:1,_ZNSt8_Rb_treeINSt7__cxx1112basic_stringIcSt11char_traitsIcESaIcEEESt4pairIKS5_St5tupleIJP14PolicyContractN6BICYCL6_Utils16CL_HSM_PublicKeyINSB_8CL_HSMqkEEENSC_17CL_HSM_CipherTextISE_EES5_EEESt10_Select1stISJ_ESt4lessIS5_ESaISJ_EE8_S_rightEPSt18_Rb_tree_node_base
FNDA:1,_ZNSt8_Rb_treeINSt7__cxx1112basic_stringIcSt11char_traitsIcESaIcEEESt4pairIKS5_St5tupleIJS5_N6BICYCL6_Utils16CL_HSM_ClearTextINS9_8CL_HSMqkEEEEEESt10_Select1stISF_ESt4lessIS5_ESaISF_EE8_S_rightEPSt18_Rb_tree_node_base
FNDA:1,_ZNSt8_Rb_treeINSt7__cxx1112basic_stringIcSt11char_traitsIcESaIcEEESt4pairIKS5_St5tupleIJS5_N6BICYCL6_Utils17CL_HSM_CipherTextINS9_8CL_HSMqkEEE11curve_pointS5_EEESt10_Select1stISG_ESt4lessIS5_ESaISG_EE8_S_rightEPSt18_Rb_tree_node_base
FNDA:1,_ZNSt8_Rb_treeINSt7__cxx1112basic_stringIcSt11char_traitsIcESaIcEEESt4pairIKS5_St5tupleIJS5_N6BICYCL6_Utils17CL_HSM_CipherTextINS9_8CL_HSMqkEEESD_SD_SD_EEESt10_Select1stISF_ESt4lessIS5_ESaISF_EE8_S_rightEPSt18_Rb_tree_node_base
FNDA:10,_ZNSt8_Rb_treeINSt7__cxx1112basic_stringIcSt11char_traitsIcESaIcEEESt4pairIKS5_St5tupleIJP14PolicyContractN6BICYCL6_Utils16CL_HSM_PublicKeyINSB_8CL_HSMqkEEENSC_17CL_HSM_CipherTextISE_EES5_EEESt10_Select1stISJ_ESt4lessIS5_ESaISJ_EE6_S_keyEPKSt18_Rb_tree_node_base
FNDA:1,_ZNSt8_Rb_treeINSt7__cxx1112basic_stringIcSt11char_traitsIcESaIcEEESt4pairIKS5_St5tupleIJS5_N6BICYCL6_Utils16CL_HSM_ClearTextINS9_8CL_HSMqkEEEEEESt10_Select1stISF_ESt4lessIS5_ESaISF_EE6_S_keyEPKSt18_Rb_tree_node_base
FNDA:6,_ZNSt8_Rb_treeINSt7__cxx1112basic_stringIcSt11char_traitsIcESaIcEEESt4pairIKS5_St5tupleIJS5_N6BICYCL6_Utils17CL_HSM_CipherTextINS9_8CL_HSMqkEEE11curve_pointS5_EEESt10_Select1stISG_ESt4lessIS5_ESaISG_EE6_S_keyEPKSt18_Rb_tree_node_base
FNDA:3,_ZNSt8_Rb_treeINSt7__cxx1112basic_stringIcSt11char_traitsIcESaIcEEESt4pairIKS5_St5tupleIJS5_N6BICYCL6_Utils17CL_HSM_CipherTextINS9_8CL_HSMqkEEESD_SD_SD_EEESt10_Select1stISF_ESt4lessIS5_ESaISF_EE6_S_keyEPKSt18_Rb_tree_node_base
FNDA:1,_ZNSt8_Rb_treeINSt7__cxx1112basic_stringIcSt11char_traitsIcESaIcEEESt4pairIKS5_St5tupleIJP14PolicyContractN6BICYCL6_Utils16CL_HSM_PublicKeyINSB_8CL_HSMqkEEENSC_17CL_HSM_CipherTextISE_EES5_EEESt10_Select1stISJ_ESt4lessIS5_ESaISJ_EEC2Ev
FNDA:1,_ZNSt8_Rb_treeINSt7__cxx1112basic_stringIcSt11char_traitsIcESaIcEEESt4pairIKS5_St5tupleIJS5_N6BICYCL6_Utils16CL_HSM_ClearTextINS9_8CL_HSMqkEEEEEESt10_Select1stISF_ESt4lessIS5_ESaISF_EEC2Ev
FNDA:1,_ZNSt8_Rb_treeINSt7__cxx1112basic_stringIcSt11char_traitsIcESaIcEEESt4pairIKS5_St5tupleIJS5_N6BICYCL6_Utils17CL_HSM_CipherTextINS9_8CL_HSMqkEEE11curve_pointS5_EEESt10_Select1stISG_ESt4lessIS5_ESaISG_EEC2Ev
FNDA:1,_ZNSt8_Rb_treeINSt7__cxx1112basic_stringIcSt11char_traitsIcESaIcEEESt4pairIKS5_St5tupleIJS5_N6BICYCL6_Utils17CL_HSM_CipherTextINS9_8CL_HSMqkEEESD_SD_SD_EEESt10_Select1stISF_ESt4lessIS5_ESaISF_EEC2Ev
FNDA:1,_ZNSt8_Rb_treeINSt7__cxx1112basic_stringIcSt11char_traitsIcESaIcEEESt4pairIKS5_St5tupleIJP14PolicyContractN6BICYCL6_Utils16CL_HSM_PublicKeyINSB_8CL_HSMqkEEENSC_17CL_HSM_CipherTextISE_EES5_EEESt10_Select1stISJ_ESt4lessIS5_ESaISJ_EED2Ev
FNDA:1,_ZNSt8_Rb_treeINSt7__cxx1112basic_stringIcSt11char_traitsIcESaIcEEESt4pairIKS5_St5tupleIJS5_N6BICYCL6_Utils16CL_HSM_ClearTextINS9_8CL_HSMqkEEEEEESt10_Select1stISF_ESt4lessIS5_ESaISF_EED2Ev
FNDA:1,_ZNSt8_Rb_treeINSt7__cxx1112basic_stringIcSt11char_traitsIcESaIcEEESt4pairIKS5_St5tupleIJS5_N6BICYCL6_Utils17CL_HSM_CipherTextINS9_8CL_HSMqkEEE11curve_pointS5_EEESt10_Select1stISG_ESt4lessIS5_ESaISG_EED2Ev
FNDA:1,_ZNSt8_Rb_treeINSt7__cxx1112basic_stringIcSt11char_traitsIcESaIcEEESt4pairIKS5_St5tupleIJS5_N6BICYCL6_Utils17CL_HSM_CipherTextINS9_8CL_HSMqkEEESD_SD_SD_EEESt10_Select1stISF_ESt4lessIS5_ESaISF_EED2Ev
FNDA:10,_ZNKSt8_Rb_treeINSt7__cxx1112basic_stringIcSt11char_traitsIcESaIcEEESt4pairIKS5_St5tupleIJP14PolicyContractN6BICYCL6_Utils16CL_HSM_PublicKeyINSB_8CL_HSMqkEEENSC_17CL_HSM_CipherTextISE_EES5_EEESt10_Select1stISJ_ESt4lessIS5_ESaISJ_EE8key_compEv
FNDA:1,_ZNKSt8_Rb_treeINSt7__cxx1112basic_stringIcSt11char_traitsIcESaIcEEESt4pairIKS5_St5tupleIJS5_N6BICYCL6_Utils16CL_HSM_ClearTextINS9_8CL_HSMqkEEEEEESt10_Select1stISF_ESt4lessIS5_ESaISF_EE8key_compEv
FNDA:9,_ZNKSt8_Rb_treeINSt7__cxx1112basic_stringIcSt11char_traitsIcESaIcEEESt4pairIKS5_St5tupleIJS5_N6BICYCL6_Utils17CL_HSM_CipherTextINS9_8CL_HSMqkEEE11curve_pointS5_EEESt10_Select1stISG_ESt4lessIS5_ESaISG_EE8key_compEv
FNDA:3,_ZNKSt8_Rb_treeINSt7__cxx1112basic_stringIcSt11char_traitsIcESaIcEEESt4pairIKS5_St5tupleIJS5_N6BICYCL6_Utils17CL_HSM_CipherTextINS9_8CL_HSMqkEEESD_SD_SD_EEESt10_Select1stISF_ESt4lessIS5_ESaISF_EE8key_compEv
FNDA:1,_ZNSt8_Rb_treeINSt7__cxx1112basic_stringIcSt11char_traitsIcESaIcEEESt4pairIKS5_St5tupleIJP14PolicyContractN6BICYCL6_Utils16CL_HSM_PublicKeyINSB_8CL_HSMqkEEENSC_17CL_HSM_CipherTextISE_EES5_EEESt10_Select1stISJ_ESt4lessIS5_ESaISJ_EE5beginEv
FNDA:1,_ZNSt8_Rb_treeINSt7__cxx1112basic_stringIcSt11char_traitsIcESaIcEEESt4pairIKS5_St5tupleIJS5_N6BICYCL6_Utils16CL_HSM_ClearTextINS9_8CL_HSMqkEEEEEESt10_Select1stISF_ESt4lessIS5_ESaISF_EE5beginEv
FNDA:2,_ZNSt8_Rb_treeINSt7__cxx1112basic_stringIcSt11char_traitsIcESaIcEEESt4pairIKS5_St5tupleIJS5_N6BICYCL6_Utils17CL_HSM_CipherTextINS9_8CL_HSMqkEEE11curve_pointS5_EEESt10_Select1stISG_ESt4lessIS5_ESaISG_EE5beginEv
FNDA:1,_ZNSt8_Rb_treeINSt7__cxx1112basic_stringIcSt11char_traitsIcESaIcEEESt4pairIKS5_St5tupleIJS5_N6BICYCL6_Utils17CL_HSM_CipherTextINS9_8CL_HSMqkEEESD_SD_SD_EEESt10_Select1stISF_ESt4lessIS5_ESaISF_EE5beginEv
FNF:183
FNH:168
DA:142,4
DA:146,4
DA:169,4
DA:170,4
DA:171,4
DA:172,4
DA:173,4
DA:202,4
DA:204,4
DA:205,4
DA:206,4
DA:207,4
DA:208,4
DA:230,55
DA:231,55
DA:234,67
DA:235,67
DA:269,132
DA:270,132
DA:273,47
DA:274,47
DA:281,1
DA:283,1
DA:284,1
DA:296,0
DA:298,0
DA:299,0
DA:311,51
DA:312,51
DA:316,22
DA:317,22
DA:346,4
DA:347,4
DA:350,4
DA:351,4
DA:545,16
DA:546,16
DA:558,4
DA:559,8
DA:562,4
DA:563,4
DA:588,4
DA:592,4
DA:593,4
DA:597,0
DA:599,0
DA:600,0
DA:601,0
DA:603,4
DA:607,4
DA:609,4
DA:610,4
DA:611,4
DA:616,4
DA:621,4
DA:622,4
DA:624,4
DA:627,4
DA:629,4
DA:630,4
DA:631,4
DA:665,4
DA:669,4
DA:670,4
DA:716,0
DA:717,0
DA:724,0
DA:725,0
DA:732,55
DA:733,55
DA:736,55
DA:737,55
DA:747,59
DA:748,59
DA:755,67
DA:773,67
DA:777,47
DA:778,47
DA:785,4
DA:786,4
DA:793,20
DA:794,20
DA:926,4
DA:981,4
DA:982,4
DA:989,23
DA:990,23
DA:993,5
DA:994,5
DA:1001,68
DA:1002,68
DA:1029,4
DA:1030,4
DA:1266,27
DA:1267,27
DA:1631,4
DA:1632,4
DA:1633,4
DA:1634,4
DA:1636,4
DA:1638,4
DA:1639,0
DA:1640,4
DA:1647,4
DA:1648,4
DA:1651,4
DA:1653,4
DA:1654,4
DA:1655,4
DA:1926,8
DA:1930,12
DA:1932,4
DA:1933,4
DA:1934,4
DA:1935,4
DA:1937,8
DA:1943,47
DA:1947,90
DA:1948,43
DA:1949,43
DA:1951,0
DA:1952,47
DA:2104,4
DA:2108,4
DA:2109,4
DA:2110,4
DA:2111,4
DA:2113,0
DA:2114,0
DA:2115,0
DA:2117,4
DA:2118,4
DA:2120,4
DA:2121,4
DA:2123,0
DA:2125,0
DA:2126,0
DA:2127,0
DA:2206,4
DA:2210,4
DA:2214,4
DA:2216,4
DA:2217,4
DA:2218,0
DA:2220,4
DA:2222,0
DA:2225,0
DA:2226,0
DA:2227,0
DA:2228,0
DA:2230,0
DA:2231,0
DA:2233,0
DA:2236,0
DA:2238,0
DA:2241,0
DA:2242,0
DA:2243,0
DA:2244,0
DA:2246,0
DA:2247,0
DA:2249,0
DA:2252,0
DA:2256,0
DA:2373,4
DA:2377,4
DA:2378,8
DA:2381,4
DA:2382,4
DA:2383,4
DA:2384,4
DA:2454,4
DA:2458,4
DA:2459,4
DA:2460,4
DA:2461,4
DA:2462,0
DA:2463,4
DA:2525,20
DA:2528,20
DA:2529,40
DA:2530,20
DA:2531,60
LF:183
LH:142
end_of_record
TN:
SF:/usr/include/c++/14.2.1/bits/stl_uninitialized.h
FN:1067,1077,_ZSt19__relocate_object_aINSt7__cxx1112basic_stringIcSt11char_traitsIcESaIcEEES5_SaIS5_EEvPT_PT0_RT1_
FN:1067,1077,_ZSt19__relocate_object_aISt6threadS0_SaIS0_EEvPT_PT0_RT1_
FN:1089,1106,_ZSt14__relocate_a_1IPNSt7__cxx1112basic_stringIcSt11char_traitsIcESaIcEEES6_SaIS5_EET0_T_S9_S8_RT1_
FN:1089,1106,_ZSt14__relocate_a_1IPSt6threadS1_SaIS0_EET0_T_S4_S3_RT1_
FN:1112,1132,_ZSt14__relocate_a_1IhhENSt9enable_ifIXsrSt24__is_bitwise_relocatableIT_vE5valueEPS2_E4typeES4_S4_S4_RSaIT0_E
FN:113,128,_ZSt16__do_uninit_copyIN9__gnu_cxx17__normal_iteratorIPKSt5tupleIJN6BICYCL6_Utils17CL_HSM_CipherTextINS3_8CL_HSMqkEEE11curve_pointEESt6vectorIS9_SaIS9_EEEEPS9_ET0_T_SI_SH_
FN:113,128,_ZSt16__do_uninit_copyIPKSt5tupleIJN6BICYCL6_Utils17CL_HSM_CipherTextINS1_8CL_HSMqkEEE11curve_pointEEPS7_ET0_T_SC_SB_
FN:113,128,_ZSt16__do_uninit_copyIPKSt5tupleIJN6BICYCL6_Utils17CL_HSM_CipherTextINS1_8CL_HSMqkEEES5_S5_EEPS6_ET0_T_SB_SA_
FN:1139,1148,_ZSt12__relocate_aIPNSt7__cxx1112basic_stringIcSt11char_traitsIcESaIcEEES6_SaIS5_EET0_T_S9_S8_RT1_
FN:1139,1148,_ZSt12__relocate_aIPSt6threadS1_SaIS0_EET0_T_S4_S3_RT1_
FN:1139,1148,_ZSt12__relocate_aIPhS0_SaIhEET0_T_S3_S2_RT1_
FN:135,137,_ZNSt20__uninitialized_copyILb0EE13__uninit_copyIN9__gnu_cxx17__normal_iteratorIPKSt5tupleIJN6BICYCL6_Utils17CL_HSM_CipherTextINS5_8CL_HSMqkEEE11curve_pointEESt6vectorISB_SaISB_EEEEPSB_EET0_T_SK_SJ_
FN:135,137,_ZNSt20__uninitialized_copyILb0EE13__uninit_copyIPKSt5tupleIJN6BICYCL6_Utils17CL_HSM_CipherTextINS3_8CL_HSMqkEEE11curve_pointEEPS9_EET0_T_SE_SD_
FN:135,137,_ZNSt20__uninitialized_copyILb0EE13__uninit_copyIPKSt5tupleIJN6BICYCL6_Utils17CL_HSM_CipherTextINS3_8CL_HSMqkEEES7_S7_EEPS8_EET0_T_SD_SC_
FN:163,186,_ZSt18uninitialized_copyIN9__gnu_cxx17__normal_iteratorIPKSt5tupleIJN6BICYCL6_Utils17CL_HSM_CipherTextINS3_8CL_HSMqkEEE11curve_pointEESt6vectorIS9_SaIS9_EEEEPS9_ET0_T_SI_SH_
FN:163,186,_ZSt18uninitialized_copyIPKSt5tupleIJN6BICYCL6_Utils17CL_HSM_CipherTextINS1_8CL_HSMqkEEE11curve_pointEEPS7_ET0_T_SC_SB_
FN:163,186,_ZSt18uninitialized_copyIPKSt5tupleIJN6BICYCL6_Utils17CL_HSM_CipherTextINS1_8CL_HSMqkEEES5_S5_EEPS6_ET0_T_SB_SA_
FN:366,374,_ZSt22__uninitialized_copy_aIN9__gnu_cxx17__normal_iteratorIPKSt5tupleIJN6BICYCL6_Utils17CL_HSM_CipherTextINS3_8CL_HSMqkEEE11curve_pointEESt6vectorIS9_SaIS9_EEEEPS9_S9_ET0_T_SI_SH_RSaIT1_E
FN:366,374,_ZSt22__uninitialized_copy_aIPKSt5tupleIJN6BICYCL6_Utils17CL_HSM_CipherTextINS1_8CL_HSMqkEEE11curve_pointEEPS7_S7_ET0_T_SC_SB_RSaIT1_E
FN:366,374,_ZSt22__uninitialized_copy_aIPKSt5tupleIJN6BICYCL6_Utils17CL_HSM_CipherTextINS1_8CL_HSMqkEEES5_S5_EEPS6_S6_ET0_T_SB_SA_RSaIT1_E
FN:393,401,_ZSt34__uninitialized_move_if_noexcept_aIPSt5tupleIJN6BICYCL6_Utils17CL_HSM_CipherTextINS1_8CL_HSMqkEEE11curve_pointEES8_SaIS7_EET0_T_SB_SA_RT1_
FN:393,401,_ZSt34__uninitialized_move_if_noexcept_aIPSt5tupleIJN6BICYCL6_Utils17CL_HSM_CipherTextINS1_8CL_HSMqkEEES5_S5_EES7_SaIS6_EET0_T_SA_S9_RT1_
FN:637,651,_ZNSt27__uninitialized_default_n_1ILb0EE18__uninit_default_nIP4UsermEET_S4_T0_
FN:637,651,_ZNSt27__uninitialized_default_n_1ILb0EE18__uninit_default_nIP9ValidatormEET_S4_T0_
FN:660,671,_ZNSt27__uninitialized_default_n_1ILb1EE18__uninit_default_nIPhmEET_S3_T0_
FN:696,713,_ZSt25__uninitialized_default_nIP4UsermET_S2_T0_
FN:696,713,_ZSt25__uninitialized_default_nIP9ValidatormET_S2_T0_
FN:696,713,_ZSt25__uninitialized_default_nIPhmET_S1_T0_
FN:777,779,_ZSt27__uninitialized_default_n_aIP4UsermS0_ET_S2_T0_RSaIT1_E
FN:777,779,_ZSt27__uninitialized_default_n_aIP9ValidatormS0_ET_S2_T0_RSaIT1_E
FN:777,779,_ZSt27__uninitialized_default_n_aIPhmhET_S1_T0_RSaIT1_E
FNDA:0,_ZSt19__relocate_object_aINSt7__cxx1112basic_stringIcSt11char_traitsIcESaIcEEES5_SaIS5_EEvPT_PT0_RT1_
FNDA:15,_ZSt19__relocate_object_aISt6threadS0_SaIS0_EEvPT_PT0_RT1_
FNDA:1,_ZSt14__relocate_a_1IPNSt7__cxx1112basic_stringIcSt11char_traitsIcESaIcEEES6_SaIS5_EET0_T_S9_S8_RT1_
FNDA:5,_ZSt14__relocate_a_1IPSt6threadS1_SaIS0_EET0_T_S4_S3_RT1_
FNDA:0,_ZSt14__relocate_a_1IhhENSt9enable_ifIXsrSt24__is_bitwise_relocatableIT_vE5valueEPS2_E4typeES4_S4_S4_RSaIT0_E
FNDA:2,_ZSt16__do_uninit_copyIN9__gnu_cxx17__normal_iteratorIPKSt5tupleIJN6BICYCL6_Utils17CL_HSM_CipherTextINS3_8CL_HSMqkEEE11curve_pointEESt6vectorIS9_SaIS9_EEEEPS9_ET0_T_SI_SH_
FNDA:14,_ZSt16__do_uninit_copyIPKSt5tupleIJN6BICYCL6_Utils17CL_HSM_CipherTextINS1_8CL_HSMqkEEE11curve_pointEEPS7_ET0_T_SC_SB_
FNDA:14,_ZSt16__do_uninit_copyIPKSt5tupleIJN6BICYCL6_Utils17CL_HSM_CipherTextINS1_8CL_HSMqkEEES5_S5_EEPS6_ET0_T_SB_SA_
FNDA:1,_ZSt12__relocate_aIPNSt7__cxx1112basic_stringIcSt11char_traitsIcESaIcEEES6_SaIS5_EET0_T_S9_S8_RT1_
FNDA:5,_ZSt12__relocate_aIPSt6threadS1_SaIS0_EET0_T_S4_S3_RT1_
FNDA:0,_ZSt12__relocate_aIPhS0_SaIhEET0_T_S3_S2_RT1_
FNDA:2,_ZNSt20__uninitialized_copyILb0EE13__uninit_copyIN9__gnu_cxx17__normal_iteratorIPKSt5tupleIJN6BICYCL6_Utils17CL_HSM_CipherTextINS5_8CL_HSMqkEEE11curve_pointEESt6vectorISB_SaISB_EEEEPSB_EET0_T_SK_SJ_
FNDA:14,_ZNSt20__uninitialized_copyILb0EE13__uninit_copyIPKSt5tupleIJN6BICYCL6_Utils17CL_HSM_CipherTextINS3_8CL_HSMqkEEE11curve_pointEEPS9_EET0_T_SE_SD_
FNDA:14,_ZNSt20__uninitialized_copyILb0EE13__uninit_copyIPKSt5tupleIJN6BICYCL6_Utils17CL_HSM_CipherTextINS3_8CL_HSMqkEEES7_S7_EEPS8_EET0_T_SD_SC_
FNDA:2,_ZSt18uninitialized_copyIN9__gnu_cxx17__normal_iteratorIPKSt5tupleIJN6BICYCL6_Utils17CL_HSM_CipherTextINS3_8CL_HSMqkEEE11curve_pointEESt6vectorIS9_SaIS9_EEEEPS9_ET0_T_SI_SH_
FNDA:14,_ZSt18uninitialized_copyIPKSt5tupleIJN6BICYCL6_Utils17CL_HSM_CipherTextINS1_8CL_HSMqkEEE11curve_pointEEPS7_ET0_T_SC_SB_
FNDA:14,_ZSt18uninitialized_copyIPKSt5tupleIJN6BICYCL6_Utils17CL_HSM_CipherTextINS1_8CL_HSMqkEEES5_S5_EEPS6_ET0_T_SB_SA_
FNDA:2,_ZSt22__uninitialized_copy_aIN9__gnu_cxx17__normal_iteratorIPKSt5tupleIJN6BICYCL6_Utils17CL_HSM_CipherTextINS3_8CL_HSMqkEEE11curve_pointEESt6vectorIS9_SaIS9_EEEEPS9_S9_ET0_T_SI_SH_RSaIT1_E
FNDA:14,_ZSt22__uninitialized_copy_aIPKSt5tupleIJN6BICYCL6_Utils17CL_HSM_CipherTextINS1_8CL_HSMqkEEE11curve_pointEEPS7_S7_ET0_T_SC_SB_RSaIT1_E
FNDA:14,_ZSt22__uninitialized_copy_aIPKSt5tupleIJN6BICYCL6_Utils17CL_HSM_CipherTextINS1_8CL_HSMqkEEES5_S5_EEPS6_S6_ET0_T_SB_SA_RSaIT1_E
FNDA:12,_ZSt34__uninitialized_move_if_noexcept_aIPSt5tupleIJN6BICYCL6_Utils17CL_HSM_CipherTextINS1_8CL_HSMqkEEE11curve_pointEES8_SaIS7_EET0_T_SB_SA_RT1_
FNDA:13,_ZSt34__uninitialized_move_if_noexcept_aIPSt5tupleIJN6BICYCL6_Utils17CL_HSM_CipherTextINS1_8CL_HSMqkEEES5_S5_EES7_SaIS6_EET0_T_SA_S9_RT1_
FNDA:1,_ZNSt27__uninitialized_default_n_1ILb0EE18__uninit_default_nIP4UsermEET_S4_T0_
FNDA:1,_ZNSt27__uninitialized_default_n_1ILb0EE18__uninit_default_nIP9ValidatormEET_S4_T0_
FNDA:33616,_ZNSt27__uninitialized_default_n_1ILb1EE18__uninit_default_nIPhmEET_S3_T0_
FNDA:1,_ZSt25__uninitialized_default_nIP4UsermET_S2_T0_
FNDA:1,_ZSt25__uninitialized_default_nIP9ValidatormET_S2_T0_
FNDA:33616,_ZSt25__uninitialized_default_nIPhmET_S1_T0_
FNDA:1,_ZSt27__uninitialized_default_n_aIP4UsermS0_ET_S2_T0_RSaIT1_E
FNDA:1,_ZSt27__uninitialized_default_n_aIP9ValidatormS0_ET_S2_T0_RSaIT1_E
FNDA:33616,_ZSt27__uninitialized_default_n_aIPhmhET_S1_T0_RSaIT1_E
FNF:31
FNH:28
DA:113,30
DA:116,30
DA:119,8272
DA:120,8242
DA:121,30
DA:123,0
DA:125,0
DA:126,0
DA:135,30
DA:137,30
DA:163,30
DA:174,30
DA:181,30
DA:185,30
DA:366,30
DA:373,30
DA:393,25
DA:399,25
DA:400,25
DA:637,2
DA:639,2
DA:642,2102
DA:643,2100
DA:644,2
DA:660,33616
DA:662,33616
DA:665,33616
DA:666,33616
DA:667,33616
DA:668,33616
DA:670,33616
DA:696,33618
DA:707,33618
DA:712,33618
DA:777,33618
DA:779,33618
DA:1067,15
DA:1075,15
DA:1076,15
DA:1077,15
DA:1089,6
DA:1101,6
DA:1102,21
DA:1103,15
DA:1105,6
DA:1112,0
DA:1116,0
DA:1117,0
DA:1129,0
DA:1131,0
DA:1139,6
DA:1145,6
DA:1147,6
LF:53
LH:45
end_of_record
TN:
SF:/usr/include/c++/14.2.1/bits/stl_vector.h
FN:1013,1019,_ZNSt6vectorIhSaIhEE6resizeEm
FN:1078,1082,_ZNKSt6vectorISt5tupleIJN6BICYCL6_Utils17CL_HSM_CipherTextINS1_8CL_HSMqkEEE11curve_pointEESaIS7_EE8capacityEv
FN:1078,1082,_ZNKSt6vectorISt5tupleIJN6BICYCL6_Utils17CL_HSM_CipherTextINS1_8CL_HSMqkEEES5_S5_EESaIS6_EE8capacityEv
FN:1128,1132,_ZNSt6vectorINSt7__cxx1112basic_stringIcSt11char_traitsIcESaIcEEESaIS5_EEixEm
FN:1128,1132,_ZNSt6vectorISt5tupleIJN6BICYCL6_Utils17CL_HSM_CipherTextINS1_8CL_HSMqkEEE11curve_pointEESaIS7_EEixEm
FN:1128,1132,_ZNSt6vectorISt5tupleIJN6BICYCL6_Utils17CL_HSM_CipherTextINS1_8CL_HSMqkEEES5_S5_EESaIS6_EEixEm
FN:1128,1132,_ZNSt6vectorIhSaIhEEixEm
FN:1147,1151,_ZNKSt6vectorIhSaIhEEixEm
FN:1157,1164,_ZNKSt6vectorINSt7__cxx1112basic_stringIcSt11char_traitsIcESaIcEEESaIS5_EE14_M_range_checkEm
FN:1157,1164,_ZNKSt6vectorISt5tupleIJN6BICYCL6_Utils17CL_HSM_CipherTextINS1_8CL_HSMqkEEE11curve_pointEESaIS7_EE14_M_range_checkEm
FN:1157,1164,_ZNKSt6vectorISt5tupleIJN6BICYCL6_Utils17CL_HSM_CipherTextINS1_8CL_HSMqkEEES5_S5_EESaIS6_EE14_M_range_checkEm
FN:1180,1184,_ZNSt6vectorINSt7__cxx1112basic_stringIcSt11char_traitsIcESaIcEEESaIS5_EE2atEm
FN:1180,1184,_ZNSt6vectorISt5tupleIJN6BICYCL6_Utils17CL_HSM_CipherTextINS1_8CL_HSMqkEEE11curve_pointEESaIS7_EE2atEm
FN:1180,1184,_ZNSt6vectorISt5tupleIJN6BICYCL6_Utils17CL_HSM_CipherTextINS1_8CL_HSMqkEEES5_S5_EESaIS6_EE2atEm
FN:1235,1239,_ZNSt6vectorISt5tupleIJN6BICYCL6_Utils17CL_HSM_CipherTextINS1_8CL_HSMqkEEE11curve_pointEESaIS7_EE4backEv
FN:1235,1239,_ZNSt6vectorISt5tupleIJN6BICYCL6_Utils17CL_HSM_CipherTextINS1_8CL_HSMqkEEES5_S5_EESaIS6_EE4backEv
FN:1235,1239,_ZNSt6vectorISt6threadSaIS0_EE4backEv
FN:1283,1295,_ZNSt6vectorINSt7__cxx1112basic_stringIcSt11char_traitsIcESaIcEEESaIS5_EE9push_backERKS5_
FN:1300,1301,_ZNSt6vectorISt5tupleIJN6BICYCL6_Utils17CL_HSM_CipherTextINS1_8CL_HSMqkEEE11curve_pointEESaIS7_EE9push_backEOS7_
FN:1300,1301,_ZNSt6vectorISt5tupleIJN6BICYCL6_Utils17CL_HSM_CipherTextINS1_8CL_HSMqkEEES5_S5_EESaIS6_EE9push_backEOS6_
FN:136,142,_ZNSt12_Vector_baseINSt7__cxx1112basic_stringIcSt11char_traitsIcESaIcEEESaIS5_EE12_Vector_implC2Ev
FN:136,142,_ZNSt12_Vector_baseISt5tupleIJN6BICYCL6_Utils17CL_HSM_CipherTextINS1_8CL_HSMqkEEE11curve_pointEESaIS7_EE12_Vector_implC2Ev
FN:136,142,_ZNSt12_Vector_baseISt5tupleIJN6BICYCL6_Utils17CL_HSM_CipherTextINS1_8CL_HSMqkEEES5_S5_EESaIS6_EE12_Vector_implC2Ev
FN:136,142,_ZNSt12_Vector_baseISt6threadSaIS0_EE12_Vector_implC2Ev
FN:145,147,_ZNSt12_Vector_baseI4UserSaIS0_EE12_Vector_implC2ERKS1_
FN:145,147,_ZNSt12_Vector_baseI9ValidatorSaIS0_EE12_Vector_implC2ERKS1_
FN:145,147,_ZNSt12_Vector_baseISt5tupleIJN6BICYCL6_Utils17CL_HSM_CipherTextINS1_8CL_HSMqkEEE11curve_pointEESaIS7_EE12_Vector_implC2ERKS8_
FN:145,147,_ZNSt12_Vector_baseIhSaIhEE12_Vector_implC2ERKS0_
FN:1618,1633,_ZNSt6vectorISt5tupleIJN6BICYCL6_Utils17CL_HSM_CipherTextINS1_8CL_HSMqkEEE11curve_pointEESaIS7_EE20_M_allocate_and_copyIPKS7_EEPS7_mT_SE_
FN:1618,1633,_ZNSt6vectorISt5tupleIJN6BICYCL6_Utils17CL_HSM_CipherTextINS1_8CL_HSMqkEEES5_S5_EESaIS6_EE20_M_allocate_and_copyIPKS6_EEPS6_mT_SD_
FN:1717,1722,_ZNSt6vectorI4UserSaIS0_EE21_M_default_initializeEm
FN:1717,1722,_ZNSt6vectorI9ValidatorSaIS0_EE21_M_default_initializeEm
FN:1717,1722,_ZNSt6vectorIhSaIhEE21_M_default_initializeEm
FN:1906,1913,_ZNKSt6vectorINSt7__cxx1112basic_stringIcSt11char_traitsIcESaIcEEESaIS5_EE12_M_check_lenEmPKc
FN:1906,1913,_ZNKSt6vectorISt5tupleIJN6BICYCL6_Utils17CL_HSM_CipherTextINS1_8CL_HSMqkEEE11curve_pointEESaIS7_EE12_M_check_lenEmPKc
FN:1906,1913,_ZNKSt6vectorISt5tupleIJN6BICYCL6_Utils17CL_HSM_CipherTextINS1_8CL_HSMqkEEES5_S5_EESaIS6_EE12_M_check_lenEmPKc
FN:1906,1913,_ZNKSt6vectorISt6threadSaIS0_EE12_M_check_lenEmPKc
FN:1906,1913,_ZNKSt6vectorIhSaIhEE12_M_check_lenEmPKc
FN:1917,1923,_ZNSt6vectorI4UserSaIS0_EE17_S_check_init_lenEmRKS1_
FN:1917,1923,_ZNSt6vectorI9ValidatorSaIS0_EE17_S_check_init_lenEmRKS1_
FN:1917,1923,_ZNSt6vectorIhSaIhEE17_S_check_init_lenEmRKS0_
FN:1926,1935,_ZNSt6vectorI4UserSaIS0_EE11_S_max_sizeERKS1_
FN:1926,1935,_ZNSt6vectorI9ValidatorSaIS0_EE11_S_max_sizeERKS1_
FN:1926,1935,_ZNSt6vectorINSt7__cxx1112basic_stringIcSt11char_traitsIcESaIcEEESaIS5_EE11_S_max_sizeERKS6_
FN:1926,1935,_ZNSt6vectorISt5tupleIJN6BICYCL6_Utils17CL_HSM_CipherTextINS1_8CL_HSMqkEEE11curve_pointEESaIS7_EE11_S_max_sizeERKS8_
FN:1926,1935,_ZNSt6vectorISt5tupleIJN6BICYCL6_Utils17CL_HSM_CipherTextINS1_8CL_HSMqkEEES5_S5_EESaIS6_EE11_S_max_sizeERKS7_
FN:1926,1935,_ZNSt6vectorISt6threadSaIS0_EE11_S_max_sizeERKS1_
FN:1926,1935,_ZNSt6vectorIhSaIhEE11_S_max_sizeERKS0_
FN:1943,1952,_ZNSt6vectorIhSaIhEE15_M_erase_at_endEPh
FN:300,301,_ZNSt12_Vector_baseI4UserSaIS0_EE19_M_get_Tp_allocatorEv
FN:300,301,_ZNSt12_Vector_baseI9ValidatorSaIS0_EE19_M_get_Tp_allocatorEv
FN:300,301,_ZNSt12_Vector_baseINSt7__cxx1112basic_stringIcSt11char_traitsIcESaIcEEESaIS5_EE19_M_get_Tp_allocatorEv
FN:300,301,_ZNSt12_Vector_baseISt5tupleIJN6BICYCL6_Utils17CL_HSM_CipherTextINS1_8CL_HSMqkEEE11curve_pointEESaIS7_EE19_M_get_Tp_allocatorEv
FN:300,301,_ZNSt12_Vector_baseISt5tupleIJN6BICYCL6_Utils17CL_HSM_CipherTextINS1_8CL_HSMqkEEES5_S5_EESaIS6_EE19_M_get_Tp_allocatorEv
FN:300,301,_ZNSt12_Vector_baseISt6threadSaIS0_EE19_M_get_Tp_allocatorEv
FN:300,301,_ZNSt12_Vector_baseIhSaIhEE19_M_get_Tp_allocatorEv
FN:305,306,_ZNKSt12_Vector_baseINSt7__cxx1112basic_stringIcSt11char_traitsIcESaIcEEESaIS5_EE19_M_get_Tp_allocatorEv
FN:305,306,_ZNKSt12_Vector_baseISt5tupleIJN6BICYCL6_Utils17CL_HSM_CipherTextINS1_8CL_HSMqkEEE11curve_pointEESaIS7_EE19_M_get_Tp_allocatorEv
FN:305,306,_ZNKSt12_Vector_baseISt5tupleIJN6BICYCL6_Utils17CL_HSM_CipherTextINS1_8CL_HSMqkEEES5_S5_EESaIS6_EE19_M_get_Tp_allocatorEv
FN:305,306,_ZNKSt12_Vector_baseISt6threadSaIS0_EE19_M_get_Tp_allocatorEv
FN:305,306,_ZNKSt12_Vector_baseIhSaIhEE19_M_get_Tp_allocatorEv
FN:314,314,_ZNSt12_Vector_baseINSt7__cxx1112basic_stringIcSt11char_traitsIcESaIcEEESaIS5_EEC2Ev
FN:314,314,_ZNSt12_Vector_baseISt5tupleIJN6BICYCL6_Utils17CL_HSM_CipherTextINS1_8CL_HSMqkEEE11curve_pointEESaIS7_EEC2Ev
FN:314,314,_ZNSt12_Vector_baseISt5tupleIJN6BICYCL6_Utils17CL_HSM_CipherTextINS1_8CL_HSMqkEEES5_S5_EESaIS6_EEC2Ev
FN:314,314,_ZNSt12_Vector_baseISt6threadSaIS0_EEC2Ev
FN:332,334,_ZNSt12_Vector_baseI4UserSaIS0_EEC2EmRKS1_
FN:332,334,_ZNSt12_Vector_baseI9ValidatorSaIS0_EEC2EmRKS1_
FN:332,334,_ZNSt12_Vector_baseISt5tupleIJN6BICYCL6_Utils17CL_HSM_CipherTextINS1_8CL_HSMqkEEE11curve_pointEESaIS7_EEC2EmRKS8_
FN:332,334,_ZNSt12_Vector_baseIhSaIhEEC2EmRKS0_
FN:366,370,_ZNSt12_Vector_baseI4UserSaIS0_EED2Ev
FN:366,370,_ZNSt12_Vector_baseI9ValidatorSaIS0_EED2Ev
FN:366,370,_ZNSt12_Vector_baseINSt7__cxx1112basic_stringIcSt11char_traitsIcESaIcEEESaIS5_EED2Ev
FN:366,370,_ZNSt12_Vector_baseISt5tupleIJN6BICYCL6_Utils17CL_HSM_CipherTextINS1_8CL_HSMqkEEE11curve_pointEESaIS7_EED2Ev
FN:366,370,_ZNSt12_Vector_baseISt5tupleIJN6BICYCL6_Utils17CL_HSM_CipherTextINS1_8CL_HSMqkEEES5_S5_EESaIS6_EED2Ev
FN:366,370,_ZNSt12_Vector_baseISt6threadSaIS0_EED2Ev
FN:366,370,_ZNSt12_Vector_baseIhSaIhEED2Ev
FN:377,381,_ZNSt12_Vector_baseI4UserSaIS0_EE11_M_allocateEm
FN:377,381,_ZNSt12_Vector_baseI9ValidatorSaIS0_EE11_M_allocateEm
FN:377,381,_ZNSt12_Vector_baseINSt7__cxx1112basic_stringIcSt11char_traitsIcESaIcEEESaIS5_EE11_M_allocateEm
FN:377,381,_ZNSt12_Vector_baseISt5tupleIJN6BICYCL6_Utils17CL_HSM_CipherTextINS1_8CL_HSMqkEEE11curve_pointEESaIS7_EE11_M_allocateEm
FN:377,381,_ZNSt12_Vector_baseISt5tupleIJN6BICYCL6_Utils17CL_HSM_CipherTextINS1_8CL_HSMqkEEES5_S5_EESaIS6_EE11_M_allocateEm
FN:377,381,_ZNSt12_Vector_baseISt6threadSaIS0_EE11_M_allocateEm
FN:377,381,_ZNSt12_Vector_baseIhSaIhEE11_M_allocateEm
FN:385,390,_ZNSt12_Vector_baseI4UserSaIS0_EE13_M_deallocateEPS0_m
FN:385,390,_ZNSt12_Vector_baseI9ValidatorSaIS0_EE13_M_deallocateEPS0_m
FN:385,390,_ZNSt12_Vector_baseINSt7__cxx1112basic_stringIcSt11char_traitsIcESaIcEEESaIS5_EE13_M_deallocateEPS5_m
FN:385,390,_ZNSt12_Vector_baseISt5tupleIJN6BICYCL6_Utils17CL_HSM_CipherTextINS1_8CL_HSMqkEEE11curve_pointEESaIS7_EE13_M_deallocateEPS7_m
FN:385,390,_ZNSt12_Vector_baseISt5tupleIJN6BICYCL6_Utils17CL_HSM_CipherTextINS1_8CL_HSMqkEEES5_S5_EESaIS6_EE13_M_deallocateEPS6_m
FN:385,390,_ZNSt12_Vector_baseISt6threadSaIS0_EE13_M_deallocateEPS0_m
FN:385,390,_ZNSt12_Vector_baseIhSaIhEE13_M_deallocateEPhm
FN:396,401,_ZNSt12_Vector_baseI4UserSaIS0_EE17_M_create_storageEm
FN:396,401,_ZNSt12_Vector_baseI9ValidatorSaIS0_EE17_M_create_storageEm
FN:396,401,_ZNSt12_Vector_baseISt5tupleIJN6BICYCL6_Utils17CL_HSM_CipherTextINS1_8CL_HSMqkEEE11curve_pointEESaIS7_EE17_M_create_storageEm
FN:396,401,_ZNSt12_Vector_baseIhSaIhEE17_M_create_storageEm
FN:504,514,_ZNSt6vectorINSt7__cxx1112basic_stringIcSt11char_traitsIcESaIcEEESaIS5_EE11_S_relocateEPS5_S8_S8_RS6_
FN:504,514,_ZNSt6vectorISt6threadSaIS0_EE11_S_relocateEPS0_S3_S3_RS1_
FN:504,514,_ZNSt6vectorIhSaIhEE11_S_relocateEPhS2_S2_RS0_
FN:531,531,_ZNSt6vectorINSt7__cxx1112basic_stringIcSt11char_traitsIcESaIcEEESaIS5_EEC2Ev
FN:531,531,_ZNSt6vectorISt5tupleIJN6BICYCL6_Utils17CL_HSM_CipherTextINS1_8CL_HSMqkEEE11curve_pointEESaIS7_EEC2Ev
FN:531,531,_ZNSt6vectorISt5tupleIJN6BICYCL6_Utils17CL_HSM_CipherTextINS1_8CL_HSMqkEEES5_S5_EESaIS6_EEC2Ev
FN:531,531,_ZNSt6vectorISt6threadSaIS0_EEC2Ev
FN:556,558,_ZNSt6vectorI4UserSaIS0_EEC2EmRKS1_
FN:556,558,_ZNSt6vectorI9ValidatorSaIS0_EEC2EmRKS1_
FN:556,558,_ZNSt6vectorIhSaIhEEC2EmRKS0_
FN:601,609,_ZNSt6vectorISt5tupleIJN6BICYCL6_Utils17CL_HSM_CipherTextINS1_8CL_HSMqkEEE11curve_pointEESaIS7_EEC2ERKS9_
FN:733,738,_ZNSt6vectorI4UserSaIS0_EED2Ev
FN:733,738,_ZNSt6vectorI9ValidatorSaIS0_EED2Ev
FN:733,738,_ZNSt6vectorINSt7__cxx1112basic_stringIcSt11char_traitsIcESaIcEEESaIS5_EED2Ev
FN:733,738,_ZNSt6vectorISt5tupleIJN6BICYCL6_Utils17CL_HSM_CipherTextINS1_8CL_HSMqkEEE11curve_pointEESaIS7_EED2Ev
FN:733,738,_ZNSt6vectorISt5tupleIJN6BICYCL6_Utils17CL_HSM_CipherTextINS1_8CL_HSMqkEEES5_S5_EESaIS6_EED2Ev
FN:733,738,_ZNSt6vectorISt6threadSaIS0_EED2Ev
FN:733,738,_ZNSt6vectorIhSaIhEED2Ev
FN:873,874,_ZNSt6vectorI4UserSaIS0_EE5beginEv
FN:873,874,_ZNSt6vectorI9ValidatorSaIS0_EE5beginEv
FN:873,874,_ZNSt6vectorINSt7__cxx1112basic_stringIcSt11char_traitsIcESaIcEEESaIS5_EE5beginEv
FN:873,874,_ZNSt6vectorISt5tupleIJN6BICYCL6_Utils17CL_HSM_CipherTextINS1_8CL_HSMqkEEE11curve_pointEESaIS7_EE5beginEv
FN:873,874,_ZNSt6vectorISt5tupleIJN6BICYCL6_Utils17CL_HSM_CipherTextINS1_8CL_HSMqkEEES5_S5_EESaIS6_EE5beginEv
FN:873,874,_ZNSt6vectorISt6threadSaIS0_EE5beginEv
FN:883,884,_ZNKSt6vectorISt5tupleIJN6BICYCL6_Utils17CL_HSM_CipherTextINS1_8CL_HSMqkEEE11curve_pointEESaIS7_EE5beginEv
FN:893,894,_ZNSt6vectorI4UserSaIS0_EE3endEv
FN:893,894,_ZNSt6vectorI9ValidatorSaIS0_EE3endEv
FN:893,894,_ZNSt6vectorINSt7__cxx1112basic_stringIcSt11char_traitsIcESaIcEEESaIS5_EE3endEv
FN:893,894,_ZNSt6vectorISt5tupleIJN6BICYCL6_Utils17CL_HSM_CipherTextINS1_8CL_HSMqkEEE11curve_pointEESaIS7_EE3endEv
FN:893,894,_ZNSt6vectorISt5tupleIJN6BICYCL6_Utils17CL_HSM_CipherTextINS1_8CL_HSMqkEEES5_S5_EESaIS6_EE3endEv
FN:893,894,_ZNSt6vectorISt6threadSaIS0_EE3endEv
FN:903,904,_ZNKSt6vectorISt5tupleIJN6BICYCL6_Utils17CL_HSM_CipherTextINS1_8CL_HSMqkEEE11curve_pointEESaIS7_EE3endEv
FN:98,100,_ZNSt12_Vector_baseI4UserSaIS0_EE17_Vector_impl_dataC2Ev
FN:98,100,_ZNSt12_Vector_baseI9ValidatorSaIS0_EE17_Vector_impl_dataC2Ev
FN:98,100,_ZNSt12_Vector_baseINSt7__cxx1112basic_stringIcSt11char_traitsIcESaIcEEESaIS5_EE17_Vector_impl_dataC2Ev
FN:98,100,_ZNSt12_Vector_baseISt5tupleIJN6BICYCL6_Utils17CL_HSM_CipherTextINS1_8CL_HSMqkEEE11curve_pointEESaIS7_EE17_Vector_impl_dataC2Ev
FN:98,100,_ZNSt12_Vector_baseISt5tupleIJN6BICYCL6_Utils17CL_HSM_CipherTextINS1_8CL_HSMqkEEES5_S5_EESaIS6_EE17_Vector_impl_dataC2Ev
FN:98,100,_ZNSt12_Vector_baseISt6threadSaIS0_EE17_Vector_impl_dataC2Ev
FN:98,100,_ZNSt12_Vector_baseIhSaIhEE17_Vector_impl_dataC2Ev
FN:992,993,_ZNKSt6vectorI4UserSaIS0_EE4sizeEv
FN:992,993,_ZNKSt6vectorI9ValidatorSaIS0_EE4sizeEv
FN:992,993,_ZNKSt6vectorINSt7__cxx1112basic_stringIcSt11char_traitsIcESaIcEEESaIS5_EE4sizeEv
FN:992,993,_ZNKSt6vectorISt5tupleIJN6BICYCL6_Utils17CL_HSM_CipherTextINS1_8CL_HSMqkEEE11curve_pointEESaIS7_EE4sizeEv
FN:992,993,_ZNKSt6vectorISt5tupleIJN6BICYCL6_Utils17CL_HSM_CipherTextINS1_8CL_HSMqkEEES5_S5_EESaIS6_EE4sizeEv
FN:992,993,_ZNKSt6vectorISt6threadSaIS0_EE4sizeEv
FN:992,993,_ZNKSt6vectorIhSaIhEE4sizeEv
FN:998,999,_ZNKSt6vectorINSt7__cxx1112basic_stringIcSt11char_traitsIcESaIcEEESaIS5_EE8max_sizeEv
FN:998,999,_ZNKSt6vectorISt5tupleIJN6BICYCL6_Utils17CL_HSM_CipherTextINS1_8CL_HSMqkEEE11curve_pointEESaIS7_EE8max_sizeEv
FN:998,999,_ZNKSt6vectorISt5tupleIJN6BICYCL6_Utils17CL_HSM_CipherTextINS1_8CL_HSMqkEEES5_S5_EESaIS6_EE8max_sizeEv
FN:998,999,_ZNKSt6vectorISt6threadSaIS0_EE8max_sizeEv
FN:998,999,_ZNKSt6vectorIhSaIhEE8max_sizeEv
FNDA:22883,_ZNSt6vectorIhSaIhEE6resizeEm
FNDA:2,_ZNKSt6vectorISt5tupleIJN6BICYCL6_Utils17CL_HSM_CipherTextINS1_8CL_HSMqkEEE11curve_pointEESaIS7_EE8capacityEv
FNDA:1,_ZNKSt6vectorISt5tupleIJN6BICYCL6_Utils17CL_HSM_CipherTextINS1_8CL_HSMqkEEES5_S5_EESaIS6_EE8capacityEv
FNDA:4,_ZNSt6vectorINSt7__cxx1112basic_stringIcSt11char_traitsIcESaIcEEESaIS5_EEixEm
FNDA:6236,_ZNSt6vectorISt5tupleIJN6BICYCL6_Utils17CL_HSM_CipherTextINS1_8CL_HSMqkEEE11curve_pointEESaIS7_EEixEm
FNDA:8448,_ZNSt6vectorISt5tupleIJN6BICYCL6_Utils17CL_HSM_CipherTextINS1_8CL_HSMqkEEES5_S5_EESaIS6_EEixEm
FNDA:16028981,_ZNSt6vectorIhSaIhEEixEm
FNDA:16039714,_ZNKSt6vectorIhSaIhEEixEm
FNDA:4,_ZNKSt6vectorINSt7__cxx1112basic_stringIcSt11char_traitsIcESaIcEEESaIS5_EE14_M_range_checkEm
FNDA:4224,_ZNKSt6vectorISt5tupleIJN6BICYCL6_Utils17CL_HSM_CipherTextINS1_8CL_HSMqkEEE11curve_pointEESaIS7_EE14_M_range_checkEm
FNDA:6303,_ZNKSt6vectorISt5tupleIJN6BICYCL6_Utils17CL_HSM_CipherTextINS1_8CL_HSMqkEEES5_S5_EESaIS6_EE14_M_range_checkEm
FNDA:4,_ZNSt6vectorINSt7__cxx1112basic_stringIcSt11char_traitsIcESaIcEEESaIS5_EE2atEm
FNDA:4224,_ZNSt6vectorISt5tupleIJN6BICYCL6_Utils17CL_HSM_CipherTextINS1_8CL_HSMqkEEE11curve_pointEESaIS7_EE2atEm
FNDA:6303,_ZNSt6vectorISt5tupleIJN6BICYCL6_Utils17CL_HSM_CipherTextINS1_8CL_HSMqkEEES5_S5_EESaIS6_EE2atEm
FNDA:2112,_ZNSt6vectorISt5tupleIJN6BICYCL6_Utils17CL_HSM_CipherTextINS1_8CL_HSMqkEEE11curve_pointEESaIS7_EE4backEv
FNDA:2112,_ZNSt6vectorISt5tupleIJN6BICYCL6_Utils17CL_HSM_CipherTextINS1_8CL_HSMqkEEES5_S5_EESaIS6_EE4backEv
FNDA:12,_ZNSt6vectorISt6threadSaIS0_EE4backEv
FNDA:1,_ZNSt6vectorINSt7__cxx1112basic_stringIcSt11char_traitsIcESaIcEEESaIS5_EE9push_backERKS5_
FNDA:2112,_ZNSt6vectorISt5tupleIJN6BICYCL6_Utils17CL_HSM_CipherTextINS1_8CL_HSMqkEEE11curve_pointEESaIS7_EE9push_backEOS7_
FNDA:2112,_ZNSt6vectorISt5tupleIJN6BICYCL6_Utils17CL_HSM_CipherTextINS1_8CL_HSMqkEEES5_S5_EESaIS6_EE9push_backEOS6_
FNDA:1,_ZNSt12_Vector_baseINSt7__cxx1112basic_stringIcSt11char_traitsIcESaIcEEESaIS5_EE12_Vector_implC2Ev
FNDA:3,_ZNSt12_Vector_baseISt5tupleIJN6BICYCL6_Utils17CL_HSM_CipherTextINS1_8CL_HSMqkEEE11curve_pointEESaIS7_EE12_Vector_implC2Ev
FNDA:2,_ZNSt12_Vector_baseISt5tupleIJN6BICYCL6_Utils17CL_HSM_CipherTextINS1_8CL_HSMqkEEES5_S5_EESaIS6_EE12_Vector_implC2Ev
FNDA:1,_ZNSt12_Vector_baseISt6threadSaIS0_EE12_Vector_implC2Ev
FNDA:1,_ZNSt12_Vector_baseI4UserSaIS0_EE12_Vector_implC2ERKS1_
FNDA:1,_ZNSt12_Vector_baseI9ValidatorSaIS0_EE12_Vector_implC2ERKS1_
FNDA:2,_ZNSt12_Vector_baseISt5tupleIJN6BICYCL6_Utils17CL_HSM_CipherTextINS1_8CL_HSMqkEEE11curve_pointEESaIS7_EE12_Vector_implC2ERKS8_
FNDA:33616,_ZNSt12_Vector_baseIhSaIhEE12_Vector_implC2ERKS0_
FNDA:2,_ZNSt6vectorISt5tupleIJN6BICYCL6_Utils17CL_HSM_CipherTextINS1_8CL_HSMqkEEE11curve_pointEESaIS7_EE20_M_allocate_and_copyIPKS7_EEPS7_mT_SE_
FNDA:1,_ZNSt6vectorISt5tupleIJN6BICYCL6_Utils17CL_HSM_CipherTextINS1_8CL_HSMqkEEES5_S5_EESaIS6_EE20_M_allocate_and_copyIPKS6_EEPS6_mT_SD_
FNDA:1,_ZNSt6vectorI4UserSaIS0_EE21_M_default_initializeEm
FNDA:1,_ZNSt6vectorI9ValidatorSaIS0_EE21_M_default_initializeEm
FNDA:33616,_ZNSt6vectorIhSaIhEE21_M_default_initializeEm
FNDA:1,_ZNKSt6vectorINSt7__cxx1112basic_stringIcSt11char_traitsIcESaIcEEESaIS5_EE12_M_check_lenEmPKc
FNDA:12,_ZNKSt6vectorISt5tupleIJN6BICYCL6_Utils17CL_HSM_CipherTextINS1_8CL_HSMqkEEE11curve_pointEESaIS7_EE12_M_check_lenEmPKc
FNDA:13,_ZNKSt6vectorISt5tupleIJN6BICYCL6_Utils17CL_HSM_CipherTextINS1_8CL_HSMqkEEES5_S5_EESaIS6_EE12_M_check_lenEmPKc
FNDA:5,_ZNKSt6vectorISt6threadSaIS0_EE12_M_check_lenEmPKc
FNDA:0,_ZNKSt6vectorIhSaIhEE12_M_check_lenEmPKc
FNDA:1,_ZNSt6vectorI4UserSaIS0_EE17_S_check_init_lenEmRKS1_
FNDA:1,_ZNSt6vectorI9ValidatorSaIS0_EE17_S_check_init_lenEmRKS1_
FNDA:33616,_ZNSt6vectorIhSaIhEE17_S_check_init_lenEmRKS0_
FNDA:1,_ZNSt6vectorI4UserSaIS0_EE11_S_max_sizeERKS1_
FNDA:1,_ZNSt6vectorI9ValidatorSaIS0_EE11_S_max_sizeERKS1_
FNDA:2,_ZNSt6vectorINSt7__cxx1112basic_stringIcSt11char_traitsIcESaIcEEESaIS5_EE11_S_max_sizeERKS6_
FNDA:26,_ZNSt6vectorISt5tupleIJN6BICYCL6_Utils17CL_HSM_CipherTextINS1_8CL_HSMqkEEE11curve_pointEESaIS7_EE11_S_max_sizeERKS8_
FNDA:27,_ZNSt6vectorISt5tupleIJN6BICYCL6_Utils17CL_HSM_CipherTextINS1_8CL_HSMqkEEES5_S5_EESaIS6_EE11_S_max_sizeERKS7_
FNDA:10,_ZNSt6vectorISt6threadSaIS0_EE11_S_max_sizeERKS1_
FNDA:33616,_ZNSt6vectorIhSaIhEE11_S_max_sizeERKS0_
FNDA:22883,_ZNSt6vectorIhSaIhEE15_M_erase_at_endEPh
FNDA:2,_ZNSt12_Vector_baseI4UserSaIS0_EE19_M_get_Tp_allocatorEv
FNDA:2,_ZNSt12_Vector_baseI9ValidatorSaIS0_EE19_M_get_Tp_allocatorEv
FNDA:2,_ZNSt12_Vector_baseINSt7__cxx1112basic_stringIcSt11char_traitsIcESaIcEEESaIS5_EE19_M_get_Tp_allocatorEv
FNDA:23,_ZNSt12_Vector_baseISt5tupleIJN6BICYCL6_Utils17CL_HSM_CipherTextINS1_8CL_HSMqkEEE11curve_pointEESaIS7_EE19_M_get_Tp_allocatorEv
FNDA:17,_ZNSt12_Vector_baseISt5tupleIJN6BICYCL6_Utils17CL_HSM_CipherTextINS1_8CL_HSMqkEEES5_S5_EESaIS6_EE19_M_get_Tp_allocatorEv
FNDA:6,_ZNSt12_Vector_baseISt6threadSaIS0_EE19_M_get_Tp_allocatorEv
FNDA:90115,_ZNSt12_Vector_baseIhSaIhEE19_M_get_Tp_allocatorEv
FNDA:2,_ZNKSt12_Vector_baseINSt7__cxx1112basic_stringIcSt11char_traitsIcESaIcEEESaIS5_EE19_M_get_Tp_allocatorEv
FNDA:28,_ZNKSt12_Vector_baseISt5tupleIJN6BICYCL6_Utils17CL_HSM_CipherTextINS1_8CL_HSMqkEEE11curve_pointEESaIS7_EE19_M_get_Tp_allocatorEv
FNDA:27,_ZNKSt12_Vector_baseISt5tupleIJN6BICYCL6_Utils17CL_HSM_CipherTextINS1_8CL_HSMqkEEES5_S5_EESaIS6_EE19_M_get_Tp_allocatorEv
FNDA:10,_ZNKSt12_Vector_baseISt6threadSaIS0_EE19_M_get_Tp_allocatorEv
FNDA:0,_ZNKSt12_Vector_baseIhSaIhEE19_M_get_Tp_allocatorEv
FNDA:1,_ZNSt12_Vector_baseINSt7__cxx1112basic_stringIcSt11char_traitsIcESaIcEEESaIS5_EEC2Ev
FNDA:3,_ZNSt12_Vector_baseISt5tupleIJN6BICYCL6_Utils17CL_HSM_CipherTextINS1_8CL_HSMqkEEE11curve_pointEESaIS7_EEC2Ev
FNDA:2,_ZNSt12_Vector_baseISt5tupleIJN6BICYCL6_Utils17CL_HSM_CipherTextINS1_8CL_HSMqkEEES5_S5_EESaIS6_EEC2Ev
FNDA:1,_ZNSt12_Vector_baseISt6threadSaIS0_EEC2Ev
FNDA:1,_ZNSt12_Vector_baseI4UserSaIS0_EEC2EmRKS1_
FNDA:1,_ZNSt12_Vector_baseI9ValidatorSaIS0_EEC2EmRKS1_
FNDA:2,_ZNSt12_Vector_baseISt5tupleIJN6BICYCL6_Utils17CL_HSM_CipherTextINS1_8CL_HSMqkEEE11curve_pointEESaIS7_EEC2EmRKS8_
FNDA:33616,_ZNSt12_Vector_baseIhSaIhEEC2EmRKS0_
FNDA:1,_ZNSt12_Vector_baseI4UserSaIS0_EED2Ev
FNDA:1,_ZNSt12_Vector_baseI9ValidatorSaIS0_EED2Ev
FNDA:1,_ZNSt12_Vector_baseINSt7__cxx1112basic_stringIcSt11char_traitsIcESaIcEEESaIS5_EED2Ev
FNDA:5,_ZNSt12_Vector_baseISt5tupleIJN6BICYCL6_Utils17CL_HSM_CipherTextINS1_8CL_HSMqkEEE11curve_pointEESaIS7_EED2Ev
FNDA:2,_ZNSt12_Vector_baseISt5tupleIJN6BICYCL6_Utils17CL_HSM_CipherTextINS1_8CL_HSMqkEEES5_S5_EESaIS6_EED2Ev
FNDA:1,_ZNSt12_Vector_baseISt6threadSaIS0_EED2Ev
FNDA:33616,_ZNSt12_Vector_baseIhSaIhEED2Ev
FNDA:1,_ZNSt12_Vector_baseI4UserSaIS0_EE11_M_allocateEm
FNDA:1,_ZNSt12_Vector_baseI9ValidatorSaIS0_EE11_M_allocateEm
FNDA:1,_ZNSt12_Vector_baseINSt7__cxx1112basic_stringIcSt11char_traitsIcESaIcEEESaIS5_EE11_M_allocateEm
FNDA:16,_ZNSt12_Vector_baseISt5tupleIJN6BICYCL6_Utils17CL_HSM_CipherTextINS1_8CL_HSMqkEEE11curve_pointEESaIS7_EE11_M_allocateEm
FNDA:14,_ZNSt12_Vector_baseISt5tupleIJN6BICYCL6_Utils17CL_HSM_CipherTextINS1_8CL_HSMqkEEES5_S5_EESaIS6_EE11_M_allocateEm
FNDA:5,_ZNSt12_Vector_baseISt6threadSaIS0_EE11_M_allocateEm
FNDA:33616,_ZNSt12_Vector_baseIhSaIhEE11_M_allocateEm
FNDA:1,_ZNSt12_Vector_baseI4UserSaIS0_EE13_M_deallocateEPS0_m
FNDA:1,_ZNSt12_Vector_baseI9ValidatorSaIS0_EE13_M_deallocateEPS0_m
FNDA:1,_ZNSt12_Vector_baseINSt7__cxx1112basic_stringIcSt11char_traitsIcESaIcEEESaIS5_EE13_M_deallocateEPS5_m
FNDA:7,_ZNSt12_Vector_baseISt5tupleIJN6BICYCL6_Utils17CL_HSM_CipherTextINS1_8CL_HSMqkEEE11curve_pointEESaIS7_EE13_M_deallocateEPS7_m
FNDA:3,_ZNSt12_Vector_baseISt5tupleIJN6BICYCL6_Utils17CL_HSM_CipherTextINS1_8CL_HSMqkEEES5_S5_EESaIS6_EE13_M_deallocateEPS6_m
FNDA:1,_ZNSt12_Vector_baseISt6threadSaIS0_EE13_M_deallocateEPS0_m
FNDA:33616,_ZNSt12_Vector_baseIhSaIhEE13_M_deallocateEPhm
FNDA:1,_ZNSt12_Vector_baseI4UserSaIS0_EE17_M_create_storageEm
FNDA:1,_ZNSt12_Vector_baseI9ValidatorSaIS0_EE17_M_create_storageEm
FNDA:2,_ZNSt12_Vector_baseISt5tupleIJN6BICYCL6_Utils17CL_HSM_CipherTextINS1_8CL_HSMqkEEE11curve_pointEESaIS7_EE17_M_create_storageEm
FNDA:33616,_ZNSt12_Vector_baseIhSaIhEE17_M_create_storageEm
FNDA:1,_ZNSt6vectorINSt7__cxx1112basic_stringIcSt11char_traitsIcESaIcEEESaIS5_EE11_S_relocateEPS5_S8_S8_RS6_
FNDA:5,_ZNSt6vectorISt6threadSaIS0_EE11_S_relocateEPS0_S3_S3_RS1_
FNDA:0,_ZNSt6vectorIhSaIhEE11_S_relocateEPhS2_S2_RS0_
FNDA:1,_ZNSt6vectorINSt7__cxx1112basic_stringIcSt11char_traitsIcESaIcEEESaIS5_EEC2Ev
FNDA:3,_ZNSt6vectorISt5tupleIJN6BICYCL6_Utils17CL_HSM_CipherTextINS1_8CL_HSMqkEEE11curve_pointEESaIS7_EEC2Ev
FNDA:2,_ZNSt6vectorISt5tupleIJN6BICYCL6_Utils17CL_HSM_CipherTextINS1_8CL_HSMqkEEES5_S5_EESaIS6_EEC2Ev
FNDA:1,_ZNSt6vectorISt6threadSaIS0_EEC2Ev
FNDA:1,_ZNSt6vectorI4UserSaIS0_EEC2EmRKS1_
FNDA:1,_ZNSt6vectorI9ValidatorSaIS0_EEC2EmRKS1_
FNDA:33616,_ZNSt6vectorIhSaIhEEC2EmRKS0_
FNDA:2,_ZNSt6vectorISt5tupleIJN6BICYCL6_Utils17CL_HSM_CipherTextINS1_8CL_HSMqkEEE11curve_pointEESaIS7_EEC2ERKS9_
FNDA:1,_ZNSt6vectorI4UserSaIS0_EED2Ev
FNDA:1,_ZNSt6vectorI9ValidatorSaIS0_EED2Ev
FNDA:1,_ZNSt6vectorINSt7__cxx1112basic_stringIcSt11char_traitsIcESaIcEEESaIS5_EED2Ev
FNDA:5,_ZNSt6vectorISt5tupleIJN6BICYCL6_Utils17CL_HSM_CipherTextINS1_8CL_HSMqkEEE11curve_pointEESaIS7_EED2Ev
FNDA:2,_ZNSt6vectorISt5tupleIJN6BICYCL6_Utils17CL_HSM_CipherTextINS1_8CL_HSMqkEEES5_S5_EESaIS6_EED2Ev
FNDA:1,_ZNSt6vectorISt6threadSaIS0_EED2Ev
FNDA:33616,_ZNSt6vectorIhSaIhEED2Ev
FNDA:4,_ZNSt6vectorI4UserSaIS0_EE5beginEv
FNDA:4,_ZNSt6vectorI9ValidatorSaIS0_EE5beginEv
FNDA:2,_ZNSt6vectorINSt7__cxx1112basic_stringIcSt11char_traitsIcESaIcEEESaIS5_EE5beginEv
FNDA:12,_ZNSt6vectorISt5tupleIJN6BICYCL6_Utils17CL_HSM_CipherTextINS1_8CL_HSMqkEEE11curve_pointEESaIS7_EE5beginEv
FNDA:13,_ZNSt6vectorISt5tupleIJN6BICYCL6_Utils17CL_HSM_CipherTextINS1_8CL_HSMqkEEES5_S5_EESaIS6_EE5beginEv
FNDA:6,_ZNSt6vectorISt6threadSaIS0_EE5beginEv
FNDA:2,_ZNKSt6vectorISt5tupleIJN6BICYCL6_Utils17CL_HSM_CipherTextINS1_8CL_HSMqkEEE11curve_pointEESaIS7_EE5beginEv
FNDA:4,_ZNSt6vectorI4UserSaIS0_EE3endEv
FNDA:4,_ZNSt6vectorI9ValidatorSaIS0_EE3endEv
FNDA:2,_ZNSt6vectorINSt7__cxx1112basic_stringIcSt11char_traitsIcESaIcEEESaIS5_EE3endEv
FNDA:2124,_ZNSt6vectorISt5tupleIJN6BICYCL6_Utils17CL_HSM_CipherTextINS1_8CL_HSMqkEEE11curve_pointEESaIS7_EE3endEv
FNDA:2125,_ZNSt6vectorISt5tupleIJN6BICYCL6_Utils17CL_HSM_CipherTextINS1_8CL_HSMqkEEES5_S5_EESaIS6_EE3endEv
FNDA:18,_ZNSt6vectorISt6threadSaIS0_EE3endEv
FNDA:2,_ZNKSt6vectorISt5tupleIJN6BICYCL6_Utils17CL_HSM_CipherTextINS1_8CL_HSMqkEEE11curve_pointEESaIS7_EE3endEv
FNDA:1,_ZNSt12_Vector_baseI4UserSaIS0_EE17_Vector_impl_dataC2Ev
FNDA:1,_ZNSt12_Vector_baseI9ValidatorSaIS0_EE17_Vector_impl_dataC2Ev
FNDA:1,_ZNSt12_Vector_baseINSt7__cxx1112basic_stringIcSt11char_traitsIcESaIcEEESaIS5_EE17_Vector_impl_dataC2Ev
FNDA:5,_ZNSt12_Vector_baseISt5tupleIJN6BICYCL6_Utils17CL_HSM_CipherTextINS1_8CL_HSMqkEEE11curve_pointEESaIS7_EE17_Vector_impl_dataC2Ev
FNDA:2,_ZNSt12_Vector_baseISt5tupleIJN6BICYCL6_Utils17CL_HSM_CipherTextINS1_8CL_HSMqkEEES5_S5_EESaIS6_EE17_Vector_impl_dataC2Ev
FNDA:1,_ZNSt12_Vector_baseISt6threadSaIS0_EE17_Vector_impl_dataC2Ev
FNDA:33616,_ZNSt12_Vector_baseIhSaIhEE17_Vector_impl_dataC2Ev
FNDA:2109,_ZNKSt6vectorI4UserSaIS0_EE4sizeEv
FNDA:4106,_ZNKSt6vectorI9ValidatorSaIS0_EE4sizeEv
FNDA:8,_ZNKSt6vectorINSt7__cxx1112basic_stringIcSt11char_traitsIcESaIcEEESaIS5_EE4sizeEv
FNDA:4403,_ZNKSt6vectorISt5tupleIJN6BICYCL6_Utils17CL_HSM_CipherTextINS1_8CL_HSMqkEEE11curve_pointEESaIS7_EE4sizeEv
FNDA:6381,_ZNKSt6vectorISt5tupleIJN6BICYCL6_Utils17CL_HSM_CipherTextINS1_8CL_HSMqkEEES5_S5_EESaIS6_EE4sizeEv
FNDA:20,_ZNKSt6vectorISt6threadSaIS0_EE4sizeEv
FNDA:32300542,_ZNKSt6vectorIhSaIhEE4sizeEv
FNDA:2,_ZNKSt6vectorINSt7__cxx1112basic_stringIcSt11char_traitsIcESaIcEEESaIS5_EE8max_sizeEv
FNDA:26,_ZNKSt6vectorISt5tupleIJN6BICYCL6_Utils17CL_HSM_CipherTextINS1_8CL_HSMqkEEE11curve_pointEESaIS7_EE8max_sizeEv
FNDA:27,_ZNKSt6vectorISt5tupleIJN6BICYCL6_Utils17CL_HSM_CipherTextINS1_8CL_HSMqkEEES5_S5_EESaIS6_EE8max_sizeEv
FNDA:10,_ZNKSt6vectorISt6threadSaIS0_EE8max_sizeEv
FNDA:0,_ZNKSt6vectorIhSaIhEE8max_sizeEv
FNF:145
FNH:141
DA:98,33627
DA:99,33627
DA:100,33627
DA:136,7
DA:141,7
DA:142,7
DA:145,33620
DA:146,33620
DA:147,33620
DA:300,90167
DA:301,90167
DA:305,67
DA:306,67
DA:314,7
DA:332,33620
DA:333,33620
DA:334,33620
DA:366,33627
DA:368,33627
DA:369,33627
DA:370,33627
DA:377,33654
DA:380,67308
DA:385,33630
DA:388,33630
DA:389,33627
DA:390,33630
DA:396,33620
DA:398,33620
DA:399,33620
DA:400,33620
DA:401,33620
DA:504,6
DA:509,6
DA:531,7
DA:556,33618
DA:557,33618
DA:558,33618
DA:601,2
DA:603,4
DA:605,2
DA:606,2
DA:608,2
DA:609,2
DA:733,33627
DA:735,33627
DA:736,33627
DA:738,33627
DA:873,41
DA:874,41
DA:883,2
DA:884,2
DA:893,4277
DA:894,4277
DA:903,2
DA:904,2
DA:992,32317569
DA:993,32317569
DA:998,65
DA:999,65
DA:1013,22883
DA:1015,22883
DA:1016,0
DA:1017,22883
DA:1018,22883
DA:1019,22883
DA:1078,3
DA:1080,3
DA:1081,3
DA:1128,16043669
DA:1131,16043669
DA:1147,16039714
DA:1150,16039714
DA:1157,10531
DA:1159,10531
DA:1160,0
DA:1164,10531
DA:1180,10531
DA:1182,10531
DA:1183,10531
DA:1235,4236
DA:1238,4236
DA:1283,1
DA:1285,1
DA:1288,0
DA:1290,0
DA:1294,1
DA:1295,1
DA:1300,4224
DA:1301,4224
DA:1618,3
DA:1621,3
DA:1624,3
DA:1625,3
DA:1626,3
DA:1628,0
DA:1630,0
DA:1631,0
DA:1717,33618
DA:1719,33618
DA:1720,33618
DA:1721,33618
DA:1722,33618
DA:1906,31
DA:1908,31
DA:1909,0
DA:1911,31
DA:1912,31
DA:1917,33618
DA:1919,33618
DA:1920,0
DA:1922,33618
DA:1926,33683
DA:1931,33683
DA:1933,33683
DA:1934,33683
DA:1943,22883
DA:1945,22883
DA:1947,22883
DA:1948,22883
DA:1949,22883
DA:1952,22883
LF:122
LH:113
end_of_record
TN:
SF:/usr/include/c++/14.2.1/bits/uniform_int_dist.h
FN:104,109,_ZNSt24uniform_int_distributionIiE10param_typeC2Eii
FN:112,113,_ZNKSt24uniform_int_distributionIiE10param_type1aEv
FN:116,117,_ZNKSt24uniform_int_distributionIiE10param_type1bEv
FN:142,146,_ZNSt24uniform_int_distributionIiEC2Eii
FN:203,204,_ZNSt24uniform_int_distributionIiEclISt23mersenne_twister_engineImLm32ELm624ELm397ELm31ELm2567483615ELm11ELm4294967295ELm7ELm2636928640ELm15ELm4022730752ELm18ELm1812433253EEEEiRT_
FN:257,281,_ZNSt24uniform_int_distributionIiE5_S_ndImSt23mersenne_twister_engineImLm32ELm624ELm397ELm31ELm2567483615ELm11ELm4294967295ELm7ELm2636928640ELm15ELm4022730752ELm18ELm1812433253EEjEET1_RT0_S4_
FN:287,373,_ZNSt24uniform_int_distributionIiEclISt23mersenne_twister_engineImLm32ELm624ELm397ELm31ELm2567483615ELm11ELm4294967295ELm7ELm2636928640ELm15ELm4022730752ELm18ELm1812433253EEEEiRT_RKNS0_10param_typeE
FNDA:2,_ZNSt24uniform_int_distributionIiE10param_typeC2Eii
FNDA:4,_ZNKSt24uniform_int_distributionIiE10param_type1aEv
FNDA:2,_ZNKSt24uniform_int_distributionIiE10param_type1bEv
FNDA:2,_ZNSt24uniform_int_distributionIiEC2Eii
FNDA:2,_ZNSt24uniform_int_distributionIiEclISt23mersenne_twister_engineImLm32ELm624ELm397ELm31ELm2567483615ELm11ELm4294967295ELm7ELm2636928640ELm15ELm4022730752ELm18ELm1812433253EEEEiRT_
FNDA:2,_ZNSt24uniform_int_distributionIiE5_S_ndImSt23mersenne_twister_engineImLm32ELm624ELm397ELm31ELm2567483615ELm11ELm4294967295ELm7ELm2636928640ELm15ELm4022730752ELm18ELm1812433253EEjEET1_RT0_S4_
FNDA:2,_ZNSt24uniform_int_distributionIiEclISt23mersenne_twister_engineImLm32ELm624ELm397ELm31ELm2567483615ELm11ELm4294967295ELm7ELm2636928640ELm15ELm4022730752ELm18ELm1812433253EEEEiRT_RKNS0_10param_typeE
FNF:7
FNH:7
DA:104,2
DA:106,2
DA:108,2
DA:109,2
DA:112,4
DA:113,4
DA:116,2
DA:117,2
DA:142,2
DA:145,2
DA:146,2
DA:203,2
DA:204,2
DA:257,2
DA:269,2
DA:270,2
DA:271,2
DA:273,0
DA:274,0
DA:276,0
DA:277,0
DA:280,2
DA:287,2
DA:295,2
DA:296,2
DA:299,2
DA:301,2
DA:302,2
DA:305,2
DA:309,2
DA:327,2
DA:328,2
DA:342,0
DA:362,0
DA:363,0
DA:364,0
DA:365,0
DA:367,0
DA:370,0
DA:372,2
LF:40
LH:29
end_of_record
TN:
SF:/usr/include/c++/14.2.1/bits/unique_lock.h
FN:109,113,_ZNSt11unique_lockISt5mutexED2Ev
FN:139,150,_ZNSt11unique_lockISt5mutexE4lockEv
FN:200,209,_ZNSt11unique_lockISt5mutexE6unlockEv
FN:70,75,_ZNSt11unique_lockISt5mutexEC2ERS0_
FNDA:16917,_ZNSt11unique_lockISt5mutexED2Ev
FNDA:16917,_ZNSt11unique_lockISt5mutexE4lockEv
FNDA:16917,_ZNSt11unique_lockISt5mutexE6unlockEv
FNDA:16917,_ZNSt11unique_lockISt5mutexEC2ERS0_
FNF:4
FNH:4
DA:70,16917
DA:71,16917
DA:73,16917
DA:74,16917
DA:75,16917
DA:109,16917
DA:111,16917
DA:112,16917
DA:113,16917
DA:139,16917
DA:141,16917
DA:142,0
DA:143,16917
DA:144,0
DA:147,16917
DA:148,16917
DA:150,16917
DA:200,16917
DA:202,16917
DA:203,0
DA:204,16917
DA:206,16917
DA:207,16917
DA:209,16917
LF:24
LH:21
end_of_record
TN:
SF:/usr/include/c++/14.2.1/bits/unique_ptr.h
FN:170,170,_ZNSt15__uniq_ptr_implINSt6thread6_StateESt14default_deleteIS1_EEC2EPS1_
FN:191,191,_ZNSt15__uniq_ptr_implINSt6thread6_StateESt14default_deleteIS1_EE6_M_ptrEv
FN:195,195,_ZNSt15__uniq_ptr_implINSt6thread6_StateESt14default_deleteIS1_EE10_M_deleterEv
FN:311,313,_ZNSt10unique_ptrINSt6thread6_StateESt14default_deleteIS1_EEC2IS3_vEEPS1_
FN:392,400,_ZNSt10unique_ptrINSt6thread6_StateESt14default_deleteIS1_EED2Ev
FN:469,470,_ZNSt10unique_ptrINSt6thread6_StateESt14default_deleteIS1_EE11get_deleterEv
FN:87,94,_ZNKSt14default_deleteINSt6thread6_StateEEclEPS1_
FNDA:16816,_ZNSt15__uniq_ptr_implINSt6thread6_StateESt14default_deleteIS1_EEC2EPS1_
FNDA:33632,_ZNSt15__uniq_ptr_implINSt6thread6_StateESt14default_deleteIS1_EE6_M_ptrEv
FNDA:0,_ZNSt15__uniq_ptr_implINSt6thread6_StateESt14default_deleteIS1_EE10_M_deleterEv
FNDA:16816,_ZNSt10unique_ptrINSt6thread6_StateESt14default_deleteIS1_EEC2IS3_vEEPS1_
FNDA:16816,_ZNSt10unique_ptrINSt6thread6_StateESt14default_deleteIS1_EED2Ev
FNDA:0,_ZNSt10unique_ptrINSt6thread6_StateESt14default_deleteIS1_EE11get_deleterEv
FNDA:0,_ZNKSt14default_deleteINSt6thread6_StateEEclEPS1_
FNF:7
FNH:4
DA:87,0
DA:93,0
DA:94,0
DA:170,16816
DA:191,33632
DA:195,0
DA:311,16816
DA:312,16816
DA:313,16816
DA:392,16816
DA:396,16816
DA:397,16816
DA:398,0
DA:399,16816
DA:400,16816
DA:469,0
DA:470,0
LF:17
LH:10
end_of_record
TN:
SF:/usr/include/c++/14.2.1/bits/vector.tcc
FN:111,127,_ZNSt6vectorISt5tupleIJN6BICYCL6_Utils17CL_HSM_CipherTextINS1_8CL_HSMqkEEE11curve_pointEESaIS7_EE12emplace_backIJS7_EEERS7_DpOT_
FN:111,127,_ZNSt6vectorISt5tupleIJN6BICYCL6_Utils17CL_HSM_CipherTextINS1_8CL_HSMqkEEES5_S5_EESaIS6_EE12emplace_backIJS6_EEERS6_DpOT_
FN:111,127,_ZNSt6vectorISt6threadSaIS0_EE12emplace_backIJZN10ThreadPoolC4EmEUlvE_EEERS0_DpOT_
FN:581,695,_ZNSt6vectorINSt7__cxx1112basic_stringIcSt11char_traitsIcESaIcEEESaIS5_EE17_M_realloc_appendIJRKS5_EEEvDpOT_
FN:581,695,_ZNSt6vectorISt5tupleIJN6BICYCL6_Utils17CL_HSM_CipherTextINS1_8CL_HSMqkEEE11curve_pointEESaIS7_EE17_M_realloc_appendIJS7_EEEvDpOT_
FN:581,695,_ZNSt6vectorISt5tupleIJN6BICYCL6_Utils17CL_HSM_CipherTextINS1_8CL_HSMqkEEES5_S5_EESaIS6_EE17_M_realloc_appendIJS6_EEEvDpOT_
FN:581,695,_ZNSt6vectorISt6threadSaIS0_EE17_M_realloc_appendIJZN10ThreadPoolC4EmEUlvE_EEEvDpOT_
FN:607,609,_ZZNSt6vectorINSt7__cxx1112basic_stringIcSt11char_traitsIcESaIcEEESaIS5_EE17_M_realloc_appendIJRKS5_EEEvDpOT_EN6_GuardC2EPS5_mRS6_
FN:607,609,_ZZNSt6vectorISt5tupleIJN6BICYCL6_Utils17CL_HSM_CipherTextINS1_8CL_HSMqkEEE11curve_pointEESaIS7_EE17_M_realloc_appendIJS7_EEEvDpOT_EN6_GuardC2EPS7_mRS8_
FN:607,609,_ZZNSt6vectorISt5tupleIJN6BICYCL6_Utils17CL_HSM_CipherTextINS1_8CL_HSMqkEEES5_S5_EESaIS6_EE17_M_realloc_appendIJS6_EEEvDpOT_EN6_GuardC2EPS6_mRS7_
FN:607,609,_ZZNSt6vectorISt6threadSaIS0_EE17_M_realloc_appendIJZN10ThreadPoolC4EmEUlvE_EEEvDpOT_EN6_GuardC2EPS0_mRS1_
FN:612,617,_ZZNSt6vectorINSt7__cxx1112basic_stringIcSt11char_traitsIcESaIcEEESaIS5_EE17_M_realloc_appendIJRKS5_EEEvDpOT_EN6_GuardD2Ev
FN:612,617,_ZZNSt6vectorISt5tupleIJN6BICYCL6_Utils17CL_HSM_CipherTextINS1_8CL_HSMqkEEE11curve_pointEESaIS7_EE17_M_realloc_appendIJS7_EEEvDpOT_EN6_GuardD2Ev
FN:612,617,_ZZNSt6vectorISt5tupleIJN6BICYCL6_Utils17CL_HSM_CipherTextINS1_8CL_HSMqkEEES5_S5_EESaIS6_EE17_M_realloc_appendIJS6_EEEvDpOT_EN6_GuardD2Ev
FN:612,617,_ZZNSt6vectorISt6threadSaIS0_EE17_M_realloc_appendIJZN10ThreadPoolC4EmEUlvE_EEEvDpOT_EN6_GuardD2Ev
FN:661,663,_ZZNSt6vectorISt5tupleIJN6BICYCL6_Utils17CL_HSM_CipherTextINS1_8CL_HSMqkEEE11curve_pointEESaIS7_EE17_M_realloc_appendIJS7_EEEvDpOT_EN11_Guard_eltsC2EPS7_RS8_
FN:661,663,_ZZNSt6vectorISt5tupleIJN6BICYCL6_Utils17CL_HSM_CipherTextINS1_8CL_HSMqkEEES5_S5_EESaIS6_EE17_M_realloc_appendIJS6_EEEvDpOT_EN11_Guard_eltsC2EPS6_RS7_
FN:666,667,_ZZNSt6vectorISt5tupleIJN6BICYCL6_Utils17CL_HSM_CipherTextINS1_8CL_HSMqkEEE11curve_pointEESaIS7_EE17_M_realloc_appendIJS7_EEEvDpOT_EN11_Guard_eltsD2Ev
FN:666,667,_ZZNSt6vectorISt5tupleIJN6BICYCL6_Utils17CL_HSM_CipherTextINS1_8CL_HSMqkEEES5_S5_EESaIS6_EE17_M_realloc_appendIJS6_EEEvDpOT_EN11_Guard_eltsD2Ev
FN:67,100,_ZNSt6vectorISt5tupleIJN6BICYCL6_Utils17CL_HSM_CipherTextINS1_8CL_HSMqkEEE11curve_pointEESaIS7_EE7reserveEm
FN:67,100,_ZNSt6vectorISt5tupleIJN6BICYCL6_Utils17CL_HSM_CipherTextINS1_8CL_HSMqkEEES5_S5_EESaIS6_EE7reserveEm
FN:805,913,_ZNSt6vectorIhSaIhEE17_M_default_appendEm
FN:844,846,_ZZNSt6vectorIhSaIhEE17_M_default_appendEmEN6_GuardC2EPhmRS0_
FN:849,854,_ZZNSt6vectorIhSaIhEE17_M_default_appendEmEN6_GuardD2Ev
FNDA:2112,_ZNSt6vectorISt5tupleIJN6BICYCL6_Utils17CL_HSM_CipherTextINS1_8CL_HSMqkEEE11curve_pointEESaIS7_EE12emplace_backIJS7_EEERS7_DpOT_
FNDA:2112,_ZNSt6vectorISt5tupleIJN6BICYCL6_Utils17CL_HSM_CipherTextINS1_8CL_HSMqkEEES5_S5_EESaIS6_EE12emplace_backIJS6_EEERS6_DpOT_
FNDA:12,_ZNSt6vectorISt6threadSaIS0_EE12emplace_backIJZN10ThreadPoolC4EmEUlvE_EEERS0_DpOT_
FNDA:1,_ZNSt6vectorINSt7__cxx1112basic_stringIcSt11char_traitsIcESaIcEEESaIS5_EE17_M_realloc_appendIJRKS5_EEEvDpOT_
FNDA:12,_ZNSt6vectorISt5tupleIJN6BICYCL6_Utils17CL_HSM_CipherTextINS1_8CL_HSMqkEEE11curve_pointEESaIS7_EE17_M_realloc_appendIJS7_EEEvDpOT_
FNDA:13,_ZNSt6vectorISt5tupleIJN6BICYCL6_Utils17CL_HSM_CipherTextINS1_8CL_HSMqkEEES5_S5_EESaIS6_EE17_M_realloc_appendIJS6_EEEvDpOT_
FNDA:5,_ZNSt6vectorISt6threadSaIS0_EE17_M_realloc_appendIJZN10ThreadPoolC4EmEUlvE_EEEvDpOT_
FNDA:1,_ZZNSt6vectorINSt7__cxx1112basic_stringIcSt11char_traitsIcESaIcEEESaIS5_EE17_M_realloc_appendIJRKS5_EEEvDpOT_EN6_GuardC2EPS5_mRS6_
FNDA:12,_ZZNSt6vectorISt5tupleIJN6BICYCL6_Utils17CL_HSM_CipherTextINS1_8CL_HSMqkEEE11curve_pointEESaIS7_EE17_M_realloc_appendIJS7_EEEvDpOT_EN6_GuardC2EPS7_mRS8_
FNDA:13,_ZZNSt6vectorISt5tupleIJN6BICYCL6_Utils17CL_HSM_CipherTextINS1_8CL_HSMqkEEES5_S5_EESaIS6_EE17_M_realloc_appendIJS6_EEEvDpOT_EN6_GuardC2EPS6_mRS7_
FNDA:5,_ZZNSt6vectorISt6threadSaIS0_EE17_M_realloc_appendIJZN10ThreadPoolC4EmEUlvE_EEEvDpOT_EN6_GuardC2EPS0_mRS1_
FNDA:1,_ZZNSt6vectorINSt7__cxx1112basic_stringIcSt11char_traitsIcESaIcEEESaIS5_EE17_M_realloc_appendIJRKS5_EEEvDpOT_EN6_GuardD2Ev
FNDA:12,_ZZNSt6vectorISt5tupleIJN6BICYCL6_Utils17CL_HSM_CipherTextINS1_8CL_HSMqkEEE11curve_pointEESaIS7_EE17_M_realloc_appendIJS7_EEEvDpOT_EN6_GuardD2Ev
FNDA:13,_ZZNSt6vectorISt5tupleIJN6BICYCL6_Utils17CL_HSM_CipherTextINS1_8CL_HSMqkEEES5_S5_EESaIS6_EE17_M_realloc_appendIJS6_EEEvDpOT_EN6_GuardD2Ev
FNDA:5,_ZZNSt6vectorISt6threadSaIS0_EE17_M_realloc_appendIJZN10ThreadPoolC4EmEUlvE_EEEvDpOT_EN6_GuardD2Ev
FNDA:12,_ZZNSt6vectorISt5tupleIJN6BICYCL6_Utils17CL_HSM_CipherTextINS1_8CL_HSMqkEEE11curve_pointEESaIS7_EE17_M_realloc_appendIJS7_EEEvDpOT_EN11_Guard_eltsC2EPS7_RS8_
FNDA:13,_ZZNSt6vectorISt5tupleIJN6BICYCL6_Utils17CL_HSM_CipherTextINS1_8CL_HSMqkEEES5_S5_EESaIS6_EE17_M_realloc_appendIJS6_EEEvDpOT_EN11_Guard_eltsC2EPS6_RS7_
FNDA:12,_ZZNSt6vectorISt5tupleIJN6BICYCL6_Utils17CL_HSM_CipherTextINS1_8CL_HSMqkEEE11curve_pointEESaIS7_EE17_M_realloc_appendIJS7_EEEvDpOT_EN11_Guard_eltsD2Ev
FNDA:13,_ZZNSt6vectorISt5tupleIJN6BICYCL6_Utils17CL_HSM_CipherTextINS1_8CL_HSMqkEEES5_S5_EESaIS6_EE17_M_realloc_appendIJS6_EEEvDpOT_EN11_Guard_eltsD2Ev
FNDA:2,_ZNSt6vectorISt5tupleIJN6BICYCL6_Utils17CL_HSM_CipherTextINS1_8CL_HSMqkEEE11curve_pointEESaIS7_EE7reserveEm
FNDA:1,_ZNSt6vectorISt5tupleIJN6BICYCL6_Utils17CL_HSM_CipherTextINS1_8CL_HSMqkEEES5_S5_EESaIS6_EE7reserveEm
FNDA:0,_ZNSt6vectorIhSaIhEE17_M_default_appendEm
FNDA:0,_ZZNSt6vectorIhSaIhEE17_M_default_appendEmEN6_GuardC2EPhmRS0_
FNDA:0,_ZZNSt6vectorIhSaIhEE17_M_default_appendEmEN6_GuardD2Ev
FNF:24
FNH:21
DA:67,3
DA:70,3
DA:71,0
DA:72,3
DA:74,3
DA:86,3
DA:89,3
DA:90,3
DA:93,3
DA:94,3
DA:95,3
DA:96,3
DA:97,3
DA:98,3
DA:100,3
DA:111,4236
DA:114,4236
DA:117,4206
DA:119,4206
DA:123,30
DA:125,4236
DA:581,31
DA:590,31
DA:591,31
DA:592,0
DA:593,31
DA:594,31
DA:595,31
DA:596,31
DA:597,31
DA:607,31
DA:608,31
DA:609,31
DA:612,31
DA:614,31
DA:616,27
DA:617,31
DA:624,31
DA:634,62
DA:635,31
DA:647,6
DA:648,6
DA:649,6
DA:661,25
DA:662,25
DA:663,25
DA:666,25
DA:667,25
DA:674,25
DA:676,25
DA:678,25
DA:680,25
DA:683,25
DA:684,25
DA:685,25
DA:686,31
DA:687,31
DA:688,31
DA:692,31
DA:693,31
DA:694,31
DA:695,31
DA:805,0
DA:808,0
DA:810,0
DA:811,0
DA:812,0
DA:814,0
DA:815,0
DA:817,0
DA:820,0
DA:821,0
DA:822,0
DA:829,0
DA:830,0
DA:833,0
DA:834,0
DA:844,0
DA:845,0
DA:846,0
DA:849,0
DA:851,0
DA:853,0
DA:854,0
DA:861,0
DA:863,0
DA:864,0
DA:868,0
DA:869,0
DA:902,0
DA:903,0
DA:904,0
DA:908,0
DA:909,0
DA:910,0
DA:913,0
LF:96
LH:60
end_of_record
TN:
SF:/usr/include/c++/14.2.1/cmath
FN:2543,2544,_ZSt4log2ImEN9__gnu_cxx11__enable_ifIXsrSt12__is_integerIT_E7__valueEdE6__typeES3_
FNDA:2,_ZSt4log2ImEN9__gnu_cxx11__enable_ifIXsrSt12__is_integerIT_E7__valueEdE6__typeES3_
FNF:1
FNH:1
DA:2543,2
DA:2544,2
LF:2
LH:2
end_of_record
TN:
SF:/usr/include/c++/14.2.1/condition_variable
FN:102,106,_ZNSt18condition_variable4waitIZN10ThreadPool4waitEvEUlvE_EEvRSt11unique_lockISt5mutexET_
FN:102,106,_ZNSt18condition_variable4waitIZZN10ThreadPoolC4EmENKUlvE_clEvEUlvE_EEvRSt11unique_lockISt5mutexET_
FNDA:8,_ZNSt18condition_variable4waitIZN10ThreadPool4waitEvEUlvE_EEvRSt11unique_lockISt5mutexET_
FNDA:8460,_ZNSt18condition_variable4waitIZZN10ThreadPoolC4EmENKUlvE_clEvEUlvE_EEvRSt11unique_lockISt5mutexET_
FNF:2
FNH:2
DA:102,8468
DA:104,16994
DA:105,8526
DA:106,8468
LF:4
LH:4
end_of_record
TN:
SF:/usr/include/c++/14.2.1/ext/aligned_buffer.h
FN:64,65,_ZN9__gnu_cxx16__aligned_membufISt4pairIKNSt7__cxx1112basic_stringIcSt11char_traitsIcESaIcEEESt5tupleIJP14PolicyContractN6BICYCL6_Utils16CL_HSM_PublicKeyINSC_8CL_HSMqkEEENSD_17CL_HSM_CipherTextISF_EES7_EEEE7_M_addrEv
FN:64,65,_ZN9__gnu_cxx16__aligned_membufISt4pairIKNSt7__cxx1112basic_stringIcSt11char_traitsIcESaIcEEESt5tupleIJS7_N6BICYCL6_Utils16CL_HSM_ClearTextINSA_8CL_HSMqkEEEEEEE7_M_addrEv
FN:64,65,_ZN9__gnu_cxx16__aligned_membufISt4pairIKNSt7__cxx1112basic_stringIcSt11char_traitsIcESaIcEEESt5tupleIJS7_N6BICYCL6_Utils17CL_HSM_CipherTextINSA_8CL_HSMqkEEE11curve_pointS7_EEEE7_M_addrEv
FN:64,65,_ZN9__gnu_cxx16__aligned_membufISt4pairIKNSt7__cxx1112basic_stringIcSt11char_traitsIcESaIcEEESt5tupleIJS7_N6BICYCL6_Utils17CL_HSM_CipherTextINSA_8CL_HSMqkEEESE_SE_SE_EEEE7_M_addrEv
FN:68,69,_ZNK9__gnu_cxx16__aligned_membufISt4pairIKNSt7__cxx1112basic_stringIcSt11char_traitsIcESaIcEEESt5tupleIJP14PolicyContractN6BICYCL6_Utils16CL_HSM_PublicKeyINSC_8CL_HSMqkEEENSD_17CL_HSM_CipherTextISF_EES7_EEEE7_M_addrEv
FN:68,69,_ZNK9__gnu_cxx16__aligned_membufISt4pairIKNSt7__cxx1112basic_stringIcSt11char_traitsIcESaIcEEESt5tupleIJS7_N6BICYCL6_Utils16CL_HSM_ClearTextINSA_8CL_HSMqkEEEEEEE7_M_addrEv
FN:68,69,_ZNK9__gnu_cxx16__aligned_membufISt4pairIKNSt7__cxx1112basic_stringIcSt11char_traitsIcESaIcEEESt5tupleIJS7_N6BICYCL6_Utils17CL_HSM_CipherTextINSA_8CL_HSMqkEEE11curve_pointS7_EEEE7_M_addrEv
FN:68,69,_ZNK9__gnu_cxx16__aligned_membufISt4pairIKNSt7__cxx1112basic_stringIcSt11char_traitsIcESaIcEEESt5tupleIJS7_N6BICYCL6_Utils17CL_HSM_CipherTextINSA_8CL_HSMqkEEESE_SE_SE_EEEE7_M_addrEv
FN:72,73,_ZN9__gnu_cxx16__aligned_membufISt4pairIKNSt7__cxx1112basic_stringIcSt11char_traitsIcESaIcEEESt5tupleIJP14PolicyContractN6BICYCL6_Utils16CL_HSM_PublicKeyINSC_8CL_HSMqkEEENSD_17CL_HSM_CipherTextISF_EES7_EEEE6_M_ptrEv
FN:72,73,_ZN9__gnu_cxx16__aligned_membufISt4pairIKNSt7__cxx1112basic_stringIcSt11char_traitsIcESaIcEEESt5tupleIJS7_N6BICYCL6_Utils16CL_HSM_ClearTextINSA_8CL_HSMqkEEEEEEE6_M_ptrEv
FN:72,73,_ZN9__gnu_cxx16__aligned_membufISt4pairIKNSt7__cxx1112basic_stringIcSt11char_traitsIcESaIcEEESt5tupleIJS7_N6BICYCL6_Utils17CL_HSM_CipherTextINSA_8CL_HSMqkEEE11curve_pointS7_EEEE6_M_ptrEv
FN:72,73,_ZN9__gnu_cxx16__aligned_membufISt4pairIKNSt7__cxx1112basic_stringIcSt11char_traitsIcESaIcEEESt5tupleIJS7_N6BICYCL6_Utils17CL_HSM_CipherTextINSA_8CL_HSMqkEEESE_SE_SE_EEEE6_M_ptrEv
FN:76,77,_ZNK9__gnu_cxx16__aligned_membufISt4pairIKNSt7__cxx1112basic_stringIcSt11char_traitsIcESaIcEEESt5tupleIJP14PolicyContractN6BICYCL6_Utils16CL_HSM_PublicKeyINSC_8CL_HSMqkEEENSD_17CL_HSM_CipherTextISF_EES7_EEEE6_M_ptrEv
FN:76,77,_ZNK9__gnu_cxx16__aligned_membufISt4pairIKNSt7__cxx1112basic_stringIcSt11char_traitsIcESaIcEEESt5tupleIJS7_N6BICYCL6_Utils16CL_HSM_ClearTextINSA_8CL_HSMqkEEEEEEE6_M_ptrEv
FN:76,77,_ZNK9__gnu_cxx16__aligned_membufISt4pairIKNSt7__cxx1112basic_stringIcSt11char_traitsIcESaIcEEESt5tupleIJS7_N6BICYCL6_Utils17CL_HSM_CipherTextINSA_8CL_HSMqkEEE11curve_pointS7_EEEE6_M_ptrEv
FN:76,77,_ZNK9__gnu_cxx16__aligned_membufISt4pairIKNSt7__cxx1112basic_stringIcSt11char_traitsIcESaIcEEESt5tupleIJS7_N6BICYCL6_Utils17CL_HSM_CipherTextINSA_8CL_HSMqkEEESE_SE_SE_EEEE6_M_ptrEv
FNDA:22,_ZN9__gnu_cxx16__aligned_membufISt4pairIKNSt7__cxx1112basic_stringIcSt11char_traitsIcESaIcEEESt5tupleIJP14PolicyContractN6BICYCL6_Utils16CL_HSM_PublicKeyINSC_8CL_HSMqkEEENSD_17CL_HSM_CipherTextISF_EES7_EEEE7_M_addrEv
FNDA:4,_ZN9__gnu_cxx16__aligned_membufISt4pairIKNSt7__cxx1112basic_stringIcSt11char_traitsIcESaIcEEESt5tupleIJS7_N6BICYCL6_Utils16CL_HSM_ClearTextINSA_8CL_HSMqkEEEEEEE7_M_addrEv
FNDA:21,_ZN9__gnu_cxx16__aligned_membufISt4pairIKNSt7__cxx1112basic_stringIcSt11char_traitsIcESaIcEEESt5tupleIJS7_N6BICYCL6_Utils17CL_HSM_CipherTextINSA_8CL_HSMqkEEE11curve_pointS7_EEEE7_M_addrEv
FNDA:8,_ZN9__gnu_cxx16__aligned_membufISt4pairIKNSt7__cxx1112basic_stringIcSt11char_traitsIcESaIcEEESt5tupleIJS7_N6BICYCL6_Utils17CL_HSM_CipherTextINSA_8CL_HSMqkEEESE_SE_SE_EEEE7_M_addrEv
FNDA:31,_ZNK9__gnu_cxx16__aligned_membufISt4pairIKNSt7__cxx1112basic_stringIcSt11char_traitsIcESaIcEEESt5tupleIJP14PolicyContractN6BICYCL6_Utils16CL_HSM_PublicKeyINSC_8CL_HSMqkEEENSD_17CL_HSM_CipherTextISF_EES7_EEEE7_M_addrEv
FNDA:4,_ZNK9__gnu_cxx16__aligned_membufISt4pairIKNSt7__cxx1112basic_stringIcSt11char_traitsIcESaIcEEESt5tupleIJS7_N6BICYCL6_Utils16CL_HSM_ClearTextINSA_8CL_HSMqkEEEEEEE7_M_addrEv
FNDA:22,_ZNK9__gnu_cxx16__aligned_membufISt4pairIKNSt7__cxx1112basic_stringIcSt11char_traitsIcESaIcEEESt5tupleIJS7_N6BICYCL6_Utils17CL_HSM_CipherTextINSA_8CL_HSMqkEEE11curve_pointS7_EEEE7_M_addrEv
FNDA:10,_ZNK9__gnu_cxx16__aligned_membufISt4pairIKNSt7__cxx1112basic_stringIcSt11char_traitsIcESaIcEEESt5tupleIJS7_N6BICYCL6_Utils17CL_HSM_CipherTextINSA_8CL_HSMqkEEESE_SE_SE_EEEE7_M_addrEv
FNDA:22,_ZN9__gnu_cxx16__aligned_membufISt4pairIKNSt7__cxx1112basic_stringIcSt11char_traitsIcESaIcEEESt5tupleIJP14PolicyContractN6BICYCL6_Utils16CL_HSM_PublicKeyINSC_8CL_HSMqkEEENSD_17CL_HSM_CipherTextISF_EES7_EEEE6_M_ptrEv
FNDA:4,_ZN9__gnu_cxx16__aligned_membufISt4pairIKNSt7__cxx1112basic_stringIcSt11char_traitsIcESaIcEEESt5tupleIJS7_N6BICYCL6_Utils16CL_HSM_ClearTextINSA_8CL_HSMqkEEEEEEE6_M_ptrEv
FNDA:21,_ZN9__gnu_cxx16__aligned_membufISt4pairIKNSt7__cxx1112basic_stringIcSt11char_traitsIcESaIcEEESt5tupleIJS7_N6BICYCL6_Utils17CL_HSM_CipherTextINSA_8CL_HSMqkEEE11curve_pointS7_EEEE6_M_ptrEv
FNDA:8,_ZN9__gnu_cxx16__aligned_membufISt4pairIKNSt7__cxx1112basic_stringIcSt11char_traitsIcESaIcEEESt5tupleIJS7_N6BICYCL6_Utils17CL_HSM_CipherTextINSA_8CL_HSMqkEEESE_SE_SE_EEEE6_M_ptrEv
FNDA:31,_ZNK9__gnu_cxx16__aligned_membufISt4pairIKNSt7__cxx1112basic_stringIcSt11char_traitsIcESaIcEEESt5tupleIJP14PolicyContractN6BICYCL6_Utils16CL_HSM_PublicKeyINSC_8CL_HSMqkEEENSD_17CL_HSM_CipherTextISF_EES7_EEEE6_M_ptrEv
FNDA:4,_ZNK9__gnu_cxx16__aligned_membufISt4pairIKNSt7__cxx1112basic_stringIcSt11char_traitsIcESaIcEEESt5tupleIJS7_N6BICYCL6_Utils16CL_HSM_ClearTextINSA_8CL_HSMqkEEEEEEE6_M_ptrEv
FNDA:22,_ZNK9__gnu_cxx16__aligned_membufISt4pairIKNSt7__cxx1112basic_stringIcSt11char_traitsIcESaIcEEESt5tupleIJS7_N6BICYCL6_Utils17CL_HSM_CipherTextINSA_8CL_HSMqkEEE11curve_pointS7_EEEE6_M_ptrEv
FNDA:10,_ZNK9__gnu_cxx16__aligned_membufISt4pairIKNSt7__cxx1112basic_stringIcSt11char_traitsIcESaIcEEESt5tupleIJS7_N6BICYCL6_Utils17CL_HSM_CipherTextINSA_8CL_HSMqkEEESE_SE_SE_EEEE6_M_ptrEv
FNF:16
FNH:16
DA:64,55
DA:65,55
DA:68,67
DA:69,67
DA:72,55
DA:73,55
DA:76,67
DA:77,67
LF:8
LH:8
end_of_record
TN:
SF:/usr/include/c++/14.2.1/ext/alloc_traits.h
FNF:0
FNH:0
DA:98,2
LF:1
LH:1
end_of_record
TN:
SF:/usr/include/c++/14.2.1/functional
FN:390,391,_ZNVKSt3_MuISt17reference_wrapperIN6BICYCL3QFIEELb0ELb0EEclIS3_St5tupleIJEEEERS2_RT_RT0_
FN:390,391,_ZNVKSt3_MuISt17reference_wrapperISt5tupleIJN6BICYCL6_Utils17CL_HSM_CipherTextINS2_8CL_HSMqkEEE11curve_pointEEELb0ELb0EEclIS9_S1_IJEEEERS8_RT_RT0_
FN:390,391,_ZNVKSt3_MuISt17reference_wrapperISt5tupleIJN6BICYCL6_Utils17CL_HSM_CipherTextINS2_8CL_HSMqkEEES6_S6_EEELb0ELb0EEclIS8_S1_IJEEEERS7_RT_RT0_
FN:390,391,_ZNVKSt3_MuISt17reference_wrapperISt6vectorISt5tupleIJN6BICYCL6_Utils17CL_HSM_CipherTextINS3_8CL_HSMqkEEE11curve_pointEESaIS9_EEELb0ELb0EEclISC_S2_IJEEEERSB_RT_RT0_
FN:390,391,_ZNVKSt3_MuISt17reference_wrapperISt6vectorISt5tupleIJN6BICYCL6_Utils17CL_HSM_CipherTextINS3_8CL_HSMqkEEES7_S7_EESaIS8_EEELb0ELb0EEclISB_S2_IJEEEERSA_RT_RT0_
FN:462,463,_ZNVKSt3_MuIN6BICYCL6_Utils16CL_HSM_PublicKeyINS0_8CL_HSMqkEEELb0ELb0EEclIRS4_St5tupleIJEEEEOT_SB_RT0_
FN:462,463,_ZNVKSt3_MuIN6BICYCL6_Utils17CL_HSM_CipherTextINS0_8CL_HSMqkEEELb0ELb0EEclIRS4_St5tupleIJEEEEOT_SB_RT0_
FN:462,463,_ZNVKSt3_MuIN6BICYCL8CL_HSMqkELb0ELb0EEclIRS1_St5tupleIJEEEEOT_S8_RT0_
FN:462,463,_ZNVKSt3_MuIP21AccessControlContractLb0ELb0EEclIRS1_St5tupleIJEEEEOT_S8_RT0_
FN:462,463,_ZNVKSt3_MuIP4UserLb0ELb0EEclIRS1_St5tupleIJEEEEOT_S8_RT0_
FN:462,463,_ZNVKSt3_MuIP9ValidatorLb0ELb0EEclIRS1_St5tupleIJEEEEOT_S8_RT0_
FN:462,463,_ZNVKSt3_MuIPKN6BICYCL3QFIELb0ELb0EEclIRS3_St5tupleIJEEEEOT_SA_RT0_
FN:462,463,_ZNVKSt3_MuIPSt5mutexLb0ELb0EEclIRS1_St5tupleIJEEEEOT_S8_RT0_
FN:462,463,_ZNVKSt3_MuImLb0ELb0EEclIRmSt5tupleIJEEEEOT_S6_RT0_
FN:511,516,_ZNSt5_BindIFM21AccessControlContractFvPKN6BICYCL3QFIEmmRS2_EPS0_S4_mmSt17reference_wrapperIS2_EEE6__callIvJEJLm0ELm1ELm2ELm3ELm4EEEET_OSt5tupleIJDpT0_EESt12_Index_tupleIJXspT1_EEE
FN:511,516,_ZNSt5_BindIFM21AccessControlContractFvRSt6vectorISt5tupleIJN6BICYCL6_Utils17CL_HSM_CipherTextINS3_8CL_HSMqkEEE11curve_pointEESaIS9_EEmmNS4_16CL_HSM_PublicKeyIS6_EERS9_EPS0_St17reference_wrapperISB_EmmSE_SJ_IS9_EEE6__callIvJEJLm0ELm1ELm2ELm3ELm4ELm5EEEET_OS2_IJDpT0_EESt12_Index_tupleIJXspT1_EEE
FN:511,516,_ZNSt5_BindIFM21AccessControlContractFvRSt6vectorISt5tupleIJN6BICYCL6_Utils17CL_HSM_CipherTextINS3_8CL_HSMqkEEES7_S7_EESaIS8_EEmmNS4_16CL_HSM_PublicKeyIS6_EERS8_EPS0_St17reference_wrapperISA_EmmSD_SI_IS8_EEE6__callIvJEJLm0ELm1ELm2ELm3ELm4ELm5EEEET_OS2_IJDpT0_EESt12_Index_tupleIJXspT1_EEE
FN:511,516,_ZNSt5_BindIFM4UserFvN6BICYCL8CL_HSMqkENS1_6_Utils16CL_HSM_PublicKeyIS2_EENS3_17CL_HSM_CipherTextIS2_EES7_RSt5tupleIJS7_S7_S7_EEEPS0_S2_S5_S7_S7_St17reference_wrapperIS9_EEE6__callIvJEJLm0ELm1ELm2ELm3ELm4ELm5EEEET_OS8_IJDpT0_EESt12_Index_tupleIJXspT1_EEE
FN:511,516,_ZNSt5_BindIFM4UserFvN6BICYCL8CL_HSMqkENS1_6_Utils17CL_HSM_CipherTextIS2_EERNS1_3QFIEEPS0_S2_S5_St17reference_wrapperIS6_EEE6__callIvJEJLm0ELm1ELm2ELm3EEEET_OSt5tupleIJDpT0_EESt12_Index_tupleIJXspT1_EEE
FN:511,516,_ZNSt5_BindIFM4UserFvRN6BICYCL8CL_HSMqkERKNS1_6_Utils16CL_HSM_PublicKeyIS2_EERSt6vectorISt5tupleIJNS4_17CL_HSM_CipherTextIS2_EE11curve_pointEESaISE_EEPSt5mutexEPS0_S2_S6_St17reference_wrapperISG_ESJ_EE6__callIvJEJLm0ELm1ELm2ELm3ELm4EEEET_OSA_IJDpT0_EESt12_Index_tupleIJXspT1_EEE
FN:511,516,_ZNSt5_BindIFM9ValidatorFvN6BICYCL8CL_HSMqkENS1_6_Utils16CL_HSM_PublicKeyIS2_EENS3_17CL_HSM_CipherTextIS2_EES7_RSt5tupleIJS7_S7_S7_EEEPS0_S2_S5_S7_S7_St17reference_wrapperIS9_EEE6__callIvJEJLm0ELm1ELm2ELm3ELm4ELm5EEEET_OS8_IJDpT0_EESt12_Index_tupleIJXspT1_EEE
FN:511,516,_ZNSt5_BindIFM9ValidatorFvN6BICYCL8CL_HSMqkENS1_6_Utils16CL_HSM_PublicKeyIS2_EERSt5tupleIJNS3_17CL_HSM_CipherTextIS2_EE11curve_pointEEPSt5mutexEPS0_S2_S5_St17reference_wrapperISA_ESD_EE6__callIvJEJLm0ELm1ELm2ELm3ELm4EEEET_OS6_IJDpT0_EESt12_Index_tupleIJXspT1_EEE
FN:511,516,_ZNSt5_BindIFM9ValidatorFvN6BICYCL8CL_HSMqkENS1_6_Utils17CL_HSM_CipherTextIS2_EERNS1_3QFIEEPS0_S2_S5_St17reference_wrapperIS6_EEE6__callIvJEJLm0ELm1ELm2ELm3EEEET_OSt5tupleIJDpT0_EESt12_Index_tupleIJXspT1_EEE
FN:584,586,_ZNSt5_BindIFM21AccessControlContractFvPKN6BICYCL3QFIEmmRS2_EPS0_S4_mmSt17reference_wrapperIS2_EEEC2IJS8_RS4_RmSF_SA_EEEOS7_DpOT_
FN:584,586,_ZNSt5_BindIFM21AccessControlContractFvRSt6vectorISt5tupleIJN6BICYCL6_Utils17CL_HSM_CipherTextINS3_8CL_HSMqkEEE11curve_pointEESaIS9_EEmmNS4_16CL_HSM_PublicKeyIS6_EERS9_EPS0_St17reference_wrapperISB_EmmSE_SJ_IS9_EEEC2IJSI_SK_RmSP_RSE_SL_EEEOSH_DpOT_
FN:584,586,_ZNSt5_BindIFM21AccessControlContractFvRSt6vectorISt5tupleIJN6BICYCL6_Utils17CL_HSM_CipherTextINS3_8CL_HSMqkEEES7_S7_EESaIS8_EEmmNS4_16CL_HSM_PublicKeyIS6_EERS8_EPS0_St17reference_wrapperISA_EmmSD_SI_IS8_EEEC2IJSH_SJ_RmSO_RSD_SK_EEEOSG_DpOT_
FN:584,586,_ZNSt5_BindIFM4UserFvN6BICYCL8CL_HSMqkENS1_6_Utils16CL_HSM_PublicKeyIS2_EENS3_17CL_HSM_CipherTextIS2_EES7_RSt5tupleIJS7_S7_S7_EEEPS0_S2_S5_S7_S7_St17reference_wrapperIS9_EEEC2IJSD_RS2_RS5_RS7_SL_SF_EEEOSC_DpOT_
FN:584,586,_ZNSt5_BindIFM4UserFvN6BICYCL8CL_HSMqkENS1_6_Utils17CL_HSM_CipherTextIS2_EERNS1_3QFIEEPS0_S2_S5_St17reference_wrapperIS6_EEEC2IJSA_RS2_RS5_SC_EEEOS9_DpOT_
FN:584,586,_ZNSt5_BindIFM4UserFvRN6BICYCL8CL_HSMqkERKNS1_6_Utils16CL_HSM_PublicKeyIS2_EERSt6vectorISt5tupleIJNS4_17CL_HSM_CipherTextIS2_EE11curve_pointEESaISE_EEPSt5mutexEPS0_S2_S6_St17reference_wrapperISG_ESJ_EEC2IJSM_S3_RS6_SO_SJ_EEEOSL_DpOT_
FN:584,586,_ZNSt5_BindIFM9ValidatorFvN6BICYCL8CL_HSMqkENS1_6_Utils16CL_HSM_PublicKeyIS2_EENS3_17CL_HSM_CipherTextIS2_EES7_RSt5tupleIJS7_S7_S7_EEEPS0_S2_S5_S7_S7_St17reference_wrapperIS9_EEEC2IJSD_RS2_RS5_RS7_SL_SF_EEEOSC_DpOT_
FN:584,586,_ZNSt5_BindIFM9ValidatorFvN6BICYCL8CL_HSMqkENS1_6_Utils16CL_HSM_PublicKeyIS2_EERSt5tupleIJNS3_17CL_HSM_CipherTextIS2_EE11curve_pointEEPSt5mutexEPS0_S2_S5_St17reference_wrapperISA_ESD_EEC2IJSG_RS2_RS5_SI_SD_EEEOSF_DpOT_
FN:584,586,_ZNSt5_BindIFM9ValidatorFvN6BICYCL8CL_HSMqkENS1_6_Utils17CL_HSM_CipherTextIS2_EERNS1_3QFIEEPS0_S2_S5_St17reference_wrapperIS6_EEEC2IJSA_RS2_RS5_SC_EEEOS9_DpOT_
FN:588,588,_ZNSt5_BindIFM21AccessControlContractFvRSt6vectorISt5tupleIJN6BICYCL6_Utils17CL_HSM_CipherTextINS3_8CL_HSMqkEEE11curve_pointEESaIS9_EEmmNS4_16CL_HSM_PublicKeyIS6_EERS9_EPS0_St17reference_wrapperISB_EmmSE_SJ_IS9_EEEC2ERKSN_
FN:588,588,_ZNSt5_BindIFM21AccessControlContractFvRSt6vectorISt5tupleIJN6BICYCL6_Utils17CL_HSM_CipherTextINS3_8CL_HSMqkEEES7_S7_EESaIS8_EEmmNS4_16CL_HSM_PublicKeyIS6_EERS8_EPS0_St17reference_wrapperISA_EmmSD_SI_IS8_EEEC2ERKSM_
FN:588,588,_ZNSt5_BindIFM4UserFvN6BICYCL8CL_HSMqkENS1_6_Utils16CL_HSM_PublicKeyIS2_EENS3_17CL_HSM_CipherTextIS2_EES7_RSt5tupleIJS7_S7_S7_EEEPS0_S2_S5_S7_S7_St17reference_wrapperIS9_EEEC2ERKSH_
FN:588,588,_ZNSt5_BindIFM4UserFvN6BICYCL8CL_HSMqkENS1_6_Utils17CL_HSM_CipherTextIS2_EERNS1_3QFIEEPS0_S2_S5_St17reference_wrapperIS6_EEEC2ERKSE_
FN:588,588,_ZNSt5_BindIFM4UserFvRN6BICYCL8CL_HSMqkERKNS1_6_Utils16CL_HSM_PublicKeyIS2_EERSt6vectorISt5tupleIJNS4_17CL_HSM_CipherTextIS2_EE11curve_pointEESaISE_EEPSt5mutexEPS0_S2_S6_St17reference_wrapperISG_ESJ_EEC2ERKSQ_
FN:588,588,_ZNSt5_BindIFM9ValidatorFvN6BICYCL8CL_HSMqkENS1_6_Utils16CL_HSM_PublicKeyIS2_EENS3_17CL_HSM_CipherTextIS2_EES7_RSt5tupleIJS7_S7_S7_EEEPS0_S2_S5_S7_S7_St17reference_wrapperIS9_EEEC2ERKSH_
FN:588,588,_ZNSt5_BindIFM9ValidatorFvN6BICYCL8CL_HSMqkENS1_6_Utils16CL_HSM_PublicKeyIS2_EERSt5tupleIJNS3_17CL_HSM_CipherTextIS2_EE11curve_pointEEPSt5mutexEPS0_S2_S5_St17reference_wrapperISA_ESD_EEC2ERKSK_
FN:588,588,_ZNSt5_BindIFM9ValidatorFvN6BICYCL8CL_HSMqkENS1_6_Utils17CL_HSM_CipherTextIS2_EERNS1_3QFIEEPS0_S2_S5_St17reference_wrapperIS6_EEEC2ERKSE_
FN:589,589,_ZNSt5_BindIFM21AccessControlContractFvPKN6BICYCL3QFIEmmRS2_EPS0_S4_mmSt17reference_wrapperIS2_EEEC2EOSC_
FN:589,589,_ZNSt5_BindIFM21AccessControlContractFvRSt6vectorISt5tupleIJN6BICYCL6_Utils17CL_HSM_CipherTextINS3_8CL_HSMqkEEE11curve_pointEESaIS9_EEmmNS4_16CL_HSM_PublicKeyIS6_EERS9_EPS0_St17reference_wrapperISB_EmmSE_SJ_IS9_EEEC2EOSN_
FN:589,589,_ZNSt5_BindIFM21AccessControlContractFvRSt6vectorISt5tupleIJN6BICYCL6_Utils17CL_HSM_CipherTextINS3_8CL_HSMqkEEES7_S7_EESaIS8_EEmmNS4_16CL_HSM_PublicKeyIS6_EERS8_EPS0_St17reference_wrapperISA_EmmSD_SI_IS8_EEEC2EOSM_
FN:589,589,_ZNSt5_BindIFM4UserFvN6BICYCL8CL_HSMqkENS1_6_Utils16CL_HSM_PublicKeyIS2_EENS3_17CL_HSM_CipherTextIS2_EES7_RSt5tupleIJS7_S7_S7_EEEPS0_S2_S5_S7_S7_St17reference_wrapperIS9_EEEC2EOSH_
FN:589,589,_ZNSt5_BindIFM4UserFvN6BICYCL8CL_HSMqkENS1_6_Utils17CL_HSM_CipherTextIS2_EERNS1_3QFIEEPS0_S2_S5_St17reference_wrapperIS6_EEEC2EOSE_
FN:589,589,_ZNSt5_BindIFM4UserFvRN6BICYCL8CL_HSMqkERKNS1_6_Utils16CL_HSM_PublicKeyIS2_EERSt6vectorISt5tupleIJNS4_17CL_HSM_CipherTextIS2_EE11curve_pointEESaISE_EEPSt5mutexEPS0_S2_S6_St17reference_wrapperISG_ESJ_EEC2EOSQ_
FN:589,589,_ZNSt5_BindIFM9ValidatorFvN6BICYCL8CL_HSMqkENS1_6_Utils16CL_HSM_PublicKeyIS2_EENS3_17CL_HSM_CipherTextIS2_EES7_RSt5tupleIJS7_S7_S7_EEEPS0_S2_S5_S7_S7_St17reference_wrapperIS9_EEEC2EOSH_
FN:589,589,_ZNSt5_BindIFM9ValidatorFvN6BICYCL8CL_HSMqkENS1_6_Utils16CL_HSM_PublicKeyIS2_EERSt5tupleIJNS3_17CL_HSM_CipherTextIS2_EE11curve_pointEEPSt5mutexEPS0_S2_S5_St17reference_wrapperISA_ESD_EEC2EOSK_
FN:589,589,_ZNSt5_BindIFM9ValidatorFvN6BICYCL8CL_HSMqkENS1_6_Utils17CL_HSM_CipherTextIS2_EERNS1_3QFIEEPS0_S2_S5_St17reference_wrapperIS6_EEEC2EOSE_
FN:596,601,_ZNSt5_BindIFM21AccessControlContractFvPKN6BICYCL3QFIEmmRS2_EPS0_S4_mmSt17reference_wrapperIS2_EEEclIJEvEET0_DpOT_
FN:596,601,_ZNSt5_BindIFM21AccessControlContractFvRSt6vectorISt5tupleIJN6BICYCL6_Utils17CL_HSM_CipherTextINS3_8CL_HSMqkEEE11curve_pointEESaIS9_EEmmNS4_16CL_HSM_PublicKeyIS6_EERS9_EPS0_St17reference_wrapperISB_EmmSE_SJ_IS9_EEEclIJEvEET0_DpOT_
FN:596,601,_ZNSt5_BindIFM21AccessControlContractFvRSt6vectorISt5tupleIJN6BICYCL6_Utils17CL_HSM_CipherTextINS3_8CL_HSMqkEEES7_S7_EESaIS8_EEmmNS4_16CL_HSM_PublicKeyIS6_EERS8_EPS0_St17reference_wrapperISA_EmmSD_SI_IS8_EEEclIJEvEET0_DpOT_
FN:596,601,_ZNSt5_BindIFM4UserFvN6BICYCL8CL_HSMqkENS1_6_Utils16CL_HSM_PublicKeyIS2_EENS3_17CL_HSM_CipherTextIS2_EES7_RSt5tupleIJS7_S7_S7_EEEPS0_S2_S5_S7_S7_St17reference_wrapperIS9_EEEclIJEvEET0_DpOT_
FN:596,601,_ZNSt5_BindIFM4UserFvN6BICYCL8CL_HSMqkENS1_6_Utils17CL_HSM_CipherTextIS2_EERNS1_3QFIEEPS0_S2_S5_St17reference_wrapperIS6_EEEclIJEvEET0_DpOT_
FN:596,601,_ZNSt5_BindIFM4UserFvRN6BICYCL8CL_HSMqkERKNS1_6_Utils16CL_HSM_PublicKeyIS2_EERSt6vectorISt5tupleIJNS4_17CL_HSM_CipherTextIS2_EE11curve_pointEESaISE_EEPSt5mutexEPS0_S2_S6_St17reference_wrapperISG_ESJ_EEclIJEvEET0_DpOT_
FN:596,601,_ZNSt5_BindIFM9ValidatorFvN6BICYCL8CL_HSMqkENS1_6_Utils16CL_HSM_PublicKeyIS2_EENS3_17CL_HSM_CipherTextIS2_EES7_RSt5tupleIJS7_S7_S7_EEEPS0_S2_S5_S7_S7_St17reference_wrapperIS9_EEEclIJEvEET0_DpOT_
FN:596,601,_ZNSt5_BindIFM9ValidatorFvN6BICYCL8CL_HSMqkENS1_6_Utils16CL_HSM_PublicKeyIS2_EERSt5tupleIJNS3_17CL_HSM_CipherTextIS2_EE11curve_pointEEPSt5mutexEPS0_S2_S5_St17reference_wrapperISA_ESD_EEclIJEvEET0_DpOT_
FN:596,601,_ZNSt5_BindIFM9ValidatorFvN6BICYCL8CL_HSMqkENS1_6_Utils17CL_HSM_CipherTextIS2_EERNS1_3QFIEEPS0_S2_S5_St17reference_wrapperIS6_EEEclIJEvEET0_DpOT_
FN:888,893,_ZSt4bindIM21AccessControlContractFvPKN6BICYCL3QFIEmmRS2_EJPS0_RS4_RmSA_St17reference_wrapperIS2_EEENSt12_Bind_helperIXsrSt5__or_IJSt11is_integralINSt5decayIT_E4typeEESt7is_enumISJ_EEE5valueESH_JDpT0_EE4typeEOSH_DpOSO_
FN:888,893,_ZSt4bindIM21AccessControlContractFvRSt6vectorISt5tupleIJN6BICYCL6_Utils17CL_HSM_CipherTextINS3_8CL_HSMqkEEE11curve_pointEESaIS9_EEmmNS4_16CL_HSM_PublicKeyIS6_EERS9_EJPS0_St17reference_wrapperISB_ERmSL_RSE_SJ_IS9_EEENSt12_Bind_helperIXsrSt5__or_IJSt11is_integralINSt5decayIT_E4typeEESt7is_enumISU_EEE5valueESS_JDpT0_EE4typeEOSS_DpOSZ_
FN:888,893,_ZSt4bindIM21AccessControlContractFvRSt6vectorISt5tupleIJN6BICYCL6_Utils17CL_HSM_CipherTextINS3_8CL_HSMqkEEES7_S7_EESaIS8_EEmmNS4_16CL_HSM_PublicKeyIS6_EERS8_EJPS0_St17reference_wrapperISA_ERmSK_RSD_SI_IS8_EEENSt12_Bind_helperIXsrSt5__or_IJSt11is_integralINSt5decayIT_E4typeEESt7is_enumIST_EEE5valueESR_JDpT0_EE4typeEOSR_DpOSY_
FN:888,893,_ZSt4bindIM4UserFvN6BICYCL8CL_HSMqkENS1_6_Utils16CL_HSM_PublicKeyIS2_EENS3_17CL_HSM_CipherTextIS2_EES7_RSt5tupleIJS7_S7_S7_EEEJPS0_RS2_RS5_RS7_SG_St17reference_wrapperIS9_EEENSt12_Bind_helperIXsrSt5__or_IJSt11is_integralINSt5decayIT_E4typeEESt7is_enumISP_EEE5valueESN_JDpT0_EE4typeEOSN_DpOSU_
FN:888,893,_ZSt4bindIM4UserFvN6BICYCL8CL_HSMqkENS1_6_Utils17CL_HSM_CipherTextIS2_EERNS1_3QFIEEJPS0_RS2_RS5_St17reference_wrapperIS6_EEENSt12_Bind_helperIXsrSt5__or_IJSt11is_integralINSt5decayIT_E4typeEESt7is_enumISL_EEE5valueESJ_JDpT0_EE4typeEOSJ_DpOSQ_
FN:888,893,_ZSt4bindIM4UserFvRN6BICYCL8CL_HSMqkERKNS1_6_Utils16CL_HSM_PublicKeyIS2_EERSt6vectorISt5tupleIJNS4_17CL_HSM_CipherTextIS2_EE11curve_pointEESaISE_EEPSt5mutexEJPS0_S3_RS6_St17reference_wrapperISG_ESJ_EENSt12_Bind_helperIXsrSt5__or_IJSt11is_integralINSt5decayIT_E4typeEESt7is_enumISW_EEE5valueESU_JDpT0_EE4typeEOSU_DpOS11_
FN:888,893,_ZSt4bindIM9ValidatorFvN6BICYCL8CL_HSMqkENS1_6_Utils16CL_HSM_PublicKeyIS2_EENS3_17CL_HSM_CipherTextIS2_EES7_RSt5tupleIJS7_S7_S7_EEEJPS0_RS2_RS5_RS7_SG_St17reference_wrapperIS9_EEENSt12_Bind_helperIXsrSt5__or_IJSt11is_integralINSt5decayIT_E4typeEESt7is_enumISP_EEE5valueESN_JDpT0_EE4typeEOSN_DpOSU_
FN:888,893,_ZSt4bindIM9ValidatorFvN6BICYCL8CL_HSMqkENS1_6_Utils16CL_HSM_PublicKeyIS2_EERSt5tupleIJNS3_17CL_HSM_CipherTextIS2_EE11curve_pointEEPSt5mutexEJPS0_RS2_RS5_St17reference_wrapperISA_ESD_EENSt12_Bind_helperIXsrSt5__or_IJSt11is_integralINSt5decayIT_E4typeEESt7is_enumISR_EEE5valueESP_JDpT0_EE4typeEOSP_DpOSW_
FN:888,893,_ZSt4bindIM9ValidatorFvN6BICYCL8CL_HSMqkENS1_6_Utils17CL_HSM_CipherTextIS2_EERNS1_3QFIEEJPS0_RS2_RS5_St17reference_wrapperIS6_EEENSt12_Bind_helperIXsrSt5__or_IJSt11is_integralINSt5decayIT_E4typeEESt7is_enumISL_EEE5valueESJ_JDpT0_EE4typeEOSJ_DpOSQ_
FNDA:4224,_ZNVKSt3_MuISt17reference_wrapperIN6BICYCL3QFIEELb0ELb0EEclIS3_St5tupleIJEEEERS2_RT_RT0_
FNDA:2012,_ZNVKSt3_MuISt17reference_wrapperISt5tupleIJN6BICYCL6_Utils17CL_HSM_CipherTextINS2_8CL_HSMqkEEE11curve_pointEEELb0ELb0EEclIS9_S1_IJEEEERS8_RT_RT0_
FNDA:2112,_ZNVKSt3_MuISt17reference_wrapperISt5tupleIJN6BICYCL6_Utils17CL_HSM_CipherTextINS2_8CL_HSMqkEEES6_S6_EEELb0ELb0EEclIS8_S1_IJEEEERS7_RT_RT0_
FNDA:112,_ZNVKSt3_MuISt17reference_wrapperISt6vectorISt5tupleIJN6BICYCL6_Utils17CL_HSM_CipherTextINS3_8CL_HSMqkEEE11curve_pointEESaIS9_EEELb0ELb0EEclISC_S2_IJEEEERSB_RT_RT0_
FNDA:12,_ZNVKSt3_MuISt17reference_wrapperISt6vectorISt5tupleIJN6BICYCL6_Utils17CL_HSM_CipherTextINS3_8CL_HSMqkEEES7_S7_EESaIS8_EEELb0ELb0EEclISB_S2_IJEEEERSA_RT_RT0_
FNDA:4224,_ZNVKSt3_MuIN6BICYCL6_Utils16CL_HSM_PublicKeyINS0_8CL_HSMqkEEELb0ELb0EEclIRS4_St5tupleIJEEEEOT_SB_RT0_
FNDA:8400,_ZNVKSt3_MuIN6BICYCL6_Utils17CL_HSM_CipherTextINS0_8CL_HSMqkEEELb0ELb0EEclIRS4_St5tupleIJEEEEOT_SB_RT0_
FNDA:8400,_ZNVKSt3_MuIN6BICYCL8CL_HSMqkELb0ELb0EEclIRS1_St5tupleIJEEEEOT_S8_RT0_
FNDA:48,_ZNVKSt3_MuIP21AccessControlContractLb0ELb0EEclIRS1_St5tupleIJEEEEOT_S8_RT0_
FNDA:400,_ZNVKSt3_MuIP4UserLb0ELb0EEclIRS1_St5tupleIJEEEEOT_S8_RT0_
FNDA:8000,_ZNVKSt3_MuIP9ValidatorLb0ELb0EEclIRS1_St5tupleIJEEEEOT_S8_RT0_
FNDA:24,_ZNVKSt3_MuIPKN6BICYCL3QFIELb0ELb0EEclIRS3_St5tupleIJEEEEOT_SA_RT0_
FNDA:2100,_ZNVKSt3_MuIPSt5mutexLb0ELb0EEclIRS1_St5tupleIJEEEEOT_S8_RT0_
FNDA:96,_ZNVKSt3_MuImLb0ELb0EEclIRmSt5tupleIJEEEEOT_S6_RT0_
FNDA:24,_ZNSt5_BindIFM21AccessControlContractFvPKN6BICYCL3QFIEmmRS2_EPS0_S4_mmSt17reference_wrapperIS2_EEE6__callIvJEJLm0ELm1ELm2ELm3ELm4EEEET_OSt5tupleIJDpT0_EESt12_Index_tupleIJXspT1_EEE
FNDA:12,_ZNSt5_BindIFM21AccessControlContractFvRSt6vectorISt5tupleIJN6BICYCL6_Utils17CL_HSM_CipherTextINS3_8CL_HSMqkEEE11curve_pointEESaIS9_EEmmNS4_16CL_HSM_PublicKeyIS6_EERS9_EPS0_St17reference_wrapperISB_EmmSE_SJ_IS9_EEE6__callIvJEJLm0ELm1ELm2ELm3ELm4ELm5EEEET_OS2_IJDpT0_EESt12_Index_tupleIJXspT1_EEE
FNDA:12,_ZNSt5_BindIFM21AccessControlContractFvRSt6vectorISt5tupleIJN6BICYCL6_Utils17CL_HSM_CipherTextINS3_8CL_HSMqkEEES7_S7_EESaIS8_EEmmNS4_16CL_HSM_PublicKeyIS6_EERS8_EPS0_St17reference_wrapperISA_EmmSD_SI_IS8_EEE6__callIvJEJLm0ELm1ELm2ELm3ELm4ELm5EEEET_OS2_IJDpT0_EESt12_Index_tupleIJXspT1_EEE
FNDA:100,_ZNSt5_BindIFM4UserFvN6BICYCL8CL_HSMqkENS1_6_Utils16CL_HSM_PublicKeyIS2_EENS3_17CL_HSM_CipherTextIS2_EES7_RSt5tupleIJS7_S7_S7_EEEPS0_S2_S5_S7_S7_St17reference_wrapperIS9_EEE6__callIvJEJLm0ELm1ELm2ELm3ELm4ELm5EEEET_OS8_IJDpT0_EESt12_Index_tupleIJXspT1_EEE
FNDA:200,_ZNSt5_BindIFM4UserFvN6BICYCL8CL_HSMqkENS1_6_Utils17CL_HSM_CipherTextIS2_EERNS1_3QFIEEPS0_S2_S5_St17reference_wrapperIS6_EEE6__callIvJEJLm0ELm1ELm2ELm3EEEET_OSt5tupleIJDpT0_EESt12_Index_tupleIJXspT1_EEE
FNDA:100,_ZNSt5_BindIFM4UserFvRN6BICYCL8CL_HSMqkERKNS1_6_Utils16CL_HSM_PublicKeyIS2_EERSt6vectorISt5tupleIJNS4_17CL_HSM_CipherTextIS2_EE11curve_pointEESaISE_EEPSt5mutexEPS0_S2_S6_St17reference_wrapperISG_ESJ_EE6__callIvJEJLm0ELm1ELm2ELm3ELm4EEEET_OSA_IJDpT0_EESt12_Index_tupleIJXspT1_EEE
FNDA:2000,_ZNSt5_BindIFM9ValidatorFvN6BICYCL8CL_HSMqkENS1_6_Utils16CL_HSM_PublicKeyIS2_EENS3_17CL_HSM_CipherTextIS2_EES7_RSt5tupleIJS7_S7_S7_EEEPS0_S2_S5_S7_S7_St17reference_wrapperIS9_EEE6__callIvJEJLm0ELm1ELm2ELm3ELm4ELm5EEEET_OS8_IJDpT0_EESt12_Index_tupleIJXspT1_EEE
FNDA:2000,_ZNSt5_BindIFM9ValidatorFvN6BICYCL8CL_HSMqkENS1_6_Utils16CL_HSM_PublicKeyIS2_EERSt5tupleIJNS3_17CL_HSM_CipherTextIS2_EE11curve_pointEEPSt5mutexEPS0_S2_S5_St17reference_wrapperISA_ESD_EE6__callIvJEJLm0ELm1ELm2ELm3ELm4EEEET_OS6_IJDpT0_EESt12_Index_tupleIJXspT1_EEE
FNDA:4000,_ZNSt5_BindIFM9ValidatorFvN6BICYCL8CL_HSMqkENS1_6_Utils17CL_HSM_CipherTextIS2_EERNS1_3QFIEEPS0_S2_S5_St17reference_wrapperIS6_EEE6__callIvJEJLm0ELm1ELm2ELm3EEEET_OSt5tupleIJDpT0_EESt12_Index_tupleIJXspT1_EEE
FNDA:24,_ZNSt5_BindIFM21AccessControlContractFvPKN6BICYCL3QFIEmmRS2_EPS0_S4_mmSt17reference_wrapperIS2_EEEC2IJS8_RS4_RmSF_SA_EEEOS7_DpOT_
FNDA:12,_ZNSt5_BindIFM21AccessControlContractFvRSt6vectorISt5tupleIJN6BICYCL6_Utils17CL_HSM_CipherTextINS3_8CL_HSMqkEEE11curve_pointEESaIS9_EEmmNS4_16CL_HSM_PublicKeyIS6_EERS9_EPS0_St17reference_wrapperISB_EmmSE_SJ_IS9_EEEC2IJSI_SK_RmSP_RSE_SL_EEEOSH_DpOT_
FNDA:12,_ZNSt5_BindIFM21AccessControlContractFvRSt6vectorISt5tupleIJN6BICYCL6_Utils17CL_HSM_CipherTextINS3_8CL_HSMqkEEES7_S7_EESaIS8_EEmmNS4_16CL_HSM_PublicKeyIS6_EERS8_EPS0_St17reference_wrapperISA_EmmSD_SI_IS8_EEEC2IJSH_SJ_RmSO_RSD_SK_EEEOSG_DpOT_
FNDA:100,_ZNSt5_BindIFM4UserFvN6BICYCL8CL_HSMqkENS1_6_Utils16CL_HSM_PublicKeyIS2_EENS3_17CL_HSM_CipherTextIS2_EES7_RSt5tupleIJS7_S7_S7_EEEPS0_S2_S5_S7_S7_St17reference_wrapperIS9_EEEC2IJSD_RS2_RS5_RS7_SL_SF_EEEOSC_DpOT_
FNDA:200,_ZNSt5_BindIFM4UserFvN6BICYCL8CL_HSMqkENS1_6_Utils17CL_HSM_CipherTextIS2_EERNS1_3QFIEEPS0_S2_S5_St17reference_wrapperIS6_EEEC2IJSA_RS2_RS5_SC_EEEOS9_DpOT_
FNDA:100,_ZNSt5_BindIFM4UserFvRN6BICYCL8CL_HSMqkERKNS1_6_Utils16CL_HSM_PublicKeyIS2_EERSt6vectorISt5tupleIJNS4_17CL_HSM_CipherTextIS2_EE11curve_pointEESaISE_EEPSt5mutexEPS0_S2_S6_St17reference_wrapperISG_ESJ_EEC2IJSM_S3_RS6_SO_SJ_EEEOSL_DpOT_
FNDA:2000,_ZNSt5_BindIFM9ValidatorFvN6BICYCL8CL_HSMqkENS1_6_Utils16CL_HSM_PublicKeyIS2_EENS3_17CL_HSM_CipherTextIS2_EES7_RSt5tupleIJS7_S7_S7_EEEPS0_S2_S5_S7_S7_St17reference_wrapperIS9_EEEC2IJSD_RS2_RS5_RS7_SL_SF_EEEOSC_DpOT_
FNDA:2000,_ZNSt5_BindIFM9ValidatorFvN6BICYCL8CL_HSMqkENS1_6_Utils16CL_HSM_PublicKeyIS2_EERSt5tupleIJNS3_17CL_HSM_CipherTextIS2_EE11curve_pointEEPSt5mutexEPS0_S2_S5_St17reference_wrapperISA_ESD_EEC2IJSG_RS2_RS5_SI_SD_EEEOSF_DpOT_
FNDA:4000,_ZNSt5_BindIFM9ValidatorFvN6BICYCL8CL_HSMqkENS1_6_Utils17CL_HSM_CipherTextIS2_EERNS1_3QFIEEPS0_S2_S5_St17reference_wrapperIS6_EEEC2IJSA_RS2_RS5_SC_EEEOS9_DpOT_
FNDA:0,_ZNSt5_BindIFM21AccessControlContractFvRSt6vectorISt5tupleIJN6BICYCL6_Utils17CL_HSM_CipherTextINS3_8CL_HSMqkEEE11curve_pointEESaIS9_EEmmNS4_16CL_HSM_PublicKeyIS6_EERS9_EPS0_St17reference_wrapperISB_EmmSE_SJ_IS9_EEEC2ERKSN_
FNDA:0,_ZNSt5_BindIFM21AccessControlContractFvRSt6vectorISt5tupleIJN6BICYCL6_Utils17CL_HSM_CipherTextINS3_8CL_HSMqkEEES7_S7_EESaIS8_EEmmNS4_16CL_HSM_PublicKeyIS6_EERS8_EPS0_St17reference_wrapperISA_EmmSD_SI_IS8_EEEC2ERKSM_
FNDA:0,_ZNSt5_BindIFM4UserFvN6BICYCL8CL_HSMqkENS1_6_Utils16CL_HSM_PublicKeyIS2_EENS3_17CL_HSM_CipherTextIS2_EES7_RSt5tupleIJS7_S7_S7_EEEPS0_S2_S5_S7_S7_St17reference_wrapperIS9_EEEC2ERKSH_
FNDA:0,_ZNSt5_BindIFM4UserFvN6BICYCL8CL_HSMqkENS1_6_Utils17CL_HSM_CipherTextIS2_EERNS1_3QFIEEPS0_S2_S5_St17reference_wrapperIS6_EEEC2ERKSE_
FNDA:0,_ZNSt5_BindIFM4UserFvRN6BICYCL8CL_HSMqkERKNS1_6_Utils16CL_HSM_PublicKeyIS2_EERSt6vectorISt5tupleIJNS4_17CL_HSM_CipherTextIS2_EE11curve_pointEESaISE_EEPSt5mutexEPS0_S2_S6_St17reference_wrapperISG_ESJ_EEC2ERKSQ_
FNDA:0,_ZNSt5_BindIFM9ValidatorFvN6BICYCL8CL_HSMqkENS1_6_Utils16CL_HSM_PublicKeyIS2_EENS3_17CL_HSM_CipherTextIS2_EES7_RSt5tupleIJS7_S7_S7_EEEPS0_S2_S5_S7_S7_St17reference_wrapperIS9_EEEC2ERKSH_
FNDA:0,_ZNSt5_BindIFM9ValidatorFvN6BICYCL8CL_HSMqkENS1_6_Utils16CL_HSM_PublicKeyIS2_EERSt5tupleIJNS3_17CL_HSM_CipherTextIS2_EE11curve_pointEEPSt5mutexEPS0_S2_S5_St17reference_wrapperISA_ESD_EEC2ERKSK_
FNDA:0,_ZNSt5_BindIFM9ValidatorFvN6BICYCL8CL_HSMqkENS1_6_Utils17CL_HSM_CipherTextIS2_EERNS1_3QFIEEPS0_S2_S5_St17reference_wrapperIS6_EEEC2ERKSE_
FNDA:24,_ZNSt5_BindIFM21AccessControlContractFvPKN6BICYCL3QFIEmmRS2_EPS0_S4_mmSt17reference_wrapperIS2_EEEC2EOSC_
FNDA:12,_ZNSt5_BindIFM21AccessControlContractFvRSt6vectorISt5tupleIJN6BICYCL6_Utils17CL_HSM_CipherTextINS3_8CL_HSMqkEEE11curve_pointEESaIS9_EEmmNS4_16CL_HSM_PublicKeyIS6_EERS9_EPS0_St17reference_wrapperISB_EmmSE_SJ_IS9_EEEC2EOSN_
FNDA:12,_ZNSt5_BindIFM21AccessControlContractFvRSt6vectorISt5tupleIJN6BICYCL6_Utils17CL_HSM_CipherTextINS3_8CL_HSMqkEEES7_S7_EESaIS8_EEmmNS4_16CL_HSM_PublicKeyIS6_EERS8_EPS0_St17reference_wrapperISA_EmmSD_SI_IS8_EEEC2EOSM_
FNDA:100,_ZNSt5_BindIFM4UserFvN6BICYCL8CL_HSMqkENS1_6_Utils16CL_HSM_PublicKeyIS2_EENS3_17CL_HSM_CipherTextIS2_EES7_RSt5tupleIJS7_S7_S7_EEEPS0_S2_S5_S7_S7_St17reference_wrapperIS9_EEEC2EOSH_
FNDA:200,_ZNSt5_BindIFM4UserFvN6BICYCL8CL_HSMqkENS1_6_Utils17CL_HSM_CipherTextIS2_EERNS1_3QFIEEPS0_S2_S5_St17reference_wrapperIS6_EEEC2EOSE_
FNDA:100,_ZNSt5_BindIFM4UserFvRN6BICYCL8CL_HSMqkERKNS1_6_Utils16CL_HSM_PublicKeyIS2_EERSt6vectorISt5tupleIJNS4_17CL_HSM_CipherTextIS2_EE11curve_pointEESaISE_EEPSt5mutexEPS0_S2_S6_St17reference_wrapperISG_ESJ_EEC2EOSQ_
FNDA:2000,_ZNSt5_BindIFM9ValidatorFvN6BICYCL8CL_HSMqkENS1_6_Utils16CL_HSM_PublicKeyIS2_EENS3_17CL_HSM_CipherTextIS2_EES7_RSt5tupleIJS7_S7_S7_EEEPS0_S2_S5_S7_S7_St17reference_wrapperIS9_EEEC2EOSH_
FNDA:2000,_ZNSt5_BindIFM9ValidatorFvN6BICYCL8CL_HSMqkENS1_6_Utils16CL_HSM_PublicKeyIS2_EERSt5tupleIJNS3_17CL_HSM_CipherTextIS2_EE11curve_pointEEPSt5mutexEPS0_S2_S5_St17reference_wrapperISA_ESD_EEC2EOSK_
FNDA:4000,_ZNSt5_BindIFM9ValidatorFvN6BICYCL8CL_HSMqkENS1_6_Utils17CL_HSM_CipherTextIS2_EERNS1_3QFIEEPS0_S2_S5_St17reference_wrapperIS6_EEEC2EOSE_
FNDA:24,_ZNSt5_BindIFM21AccessControlContractFvPKN6BICYCL3QFIEmmRS2_EPS0_S4_mmSt17reference_wrapperIS2_EEEclIJEvEET0_DpOT_
FNDA:12,_ZNSt5_BindIFM21AccessControlContractFvRSt6vectorISt5tupleIJN6BICYCL6_Utils17CL_HSM_CipherTextINS3_8CL_HSMqkEEE11curve_pointEESaIS9_EEmmNS4_16CL_HSM_PublicKeyIS6_EERS9_EPS0_St17reference_wrapperISB_EmmSE_SJ_IS9_EEEclIJEvEET0_DpOT_
FNDA:12,_ZNSt5_BindIFM21AccessControlContractFvRSt6vectorISt5tupleIJN6BICYCL6_Utils17CL_HSM_CipherTextINS3_8CL_HSMqkEEES7_S7_EESaIS8_EEmmNS4_16CL_HSM_PublicKeyIS6_EERS8_EPS0_St17reference_wrapperISA_EmmSD_SI_IS8_EEEclIJEvEET0_DpOT_
FNDA:100,_ZNSt5_BindIFM4UserFvN6BICYCL8CL_HSMqkENS1_6_Utils16CL_HSM_PublicKeyIS2_EENS3_17CL_HSM_CipherTextIS2_EES7_RSt5tupleIJS7_S7_S7_EEEPS0_S2_S5_S7_S7_St17reference_wrapperIS9_EEEclIJEvEET0_DpOT_
FNDA:200,_ZNSt5_BindIFM4UserFvN6BICYCL8CL_HSMqkENS1_6_Utils17CL_HSM_CipherTextIS2_EERNS1_3QFIEEPS0_S2_S5_St17reference_wrapperIS6_EEEclIJEvEET0_DpOT_
FNDA:100,_ZNSt5_BindIFM4UserFvRN6BICYCL8CL_HSMqkERKNS1_6_Utils16CL_HSM_PublicKeyIS2_EERSt6vectorISt5tupleIJNS4_17CL_HSM_CipherTextIS2_EE11curve_pointEESaISE_EEPSt5mutexEPS0_S2_S6_St17reference_wrapperISG_ESJ_EEclIJEvEET0_DpOT_
FNDA:2000,_ZNSt5_BindIFM9ValidatorFvN6BICYCL8CL_HSMqkENS1_6_Utils16CL_HSM_PublicKeyIS2_EENS3_17CL_HSM_CipherTextIS2_EES7_RSt5tupleIJS7_S7_S7_EEEPS0_S2_S5_S7_S7_St17reference_wrapperIS9_EEEclIJEvEET0_DpOT_
FNDA:2000,_ZNSt5_BindIFM9ValidatorFvN6BICYCL8CL_HSMqkENS1_6_Utils16CL_HSM_PublicKeyIS2_EERSt5tupleIJNS3_17CL_HSM_CipherTextIS2_EE11curve_pointEEPSt5mutexEPS0_S2_S5_St17reference_wrapperISA_ESD_EEclIJEvEET0_DpOT_
FNDA:4000,_ZNSt5_BindIFM9ValidatorFvN6BICYCL8CL_HSMqkENS1_6_Utils17CL_HSM_CipherTextIS2_EERNS1_3QFIEEPS0_S2_S5_St17reference_wrapperIS6_EEEclIJEvEET0_DpOT_
FNDA:24,_ZSt4bindIM21AccessControlContractFvPKN6BICYCL3QFIEmmRS2_EJPS0_RS4_RmSA_St17reference_wrapperIS2_EEENSt12_Bind_helperIXsrSt5__or_IJSt11is_integralINSt5decayIT_E4typeEESt7is_enumISJ_EEE5valueESH_JDpT0_EE4typeEOSH_DpOSO_
FNDA:12,_ZSt4bindIM21AccessControlContractFvRSt6vectorISt5tupleIJN6BICYCL6_Utils17CL_HSM_CipherTextINS3_8CL_HSMqkEEE11curve_pointEESaIS9_EEmmNS4_16CL_HSM_PublicKeyIS6_EERS9_EJPS0_St17reference_wrapperISB_ERmSL_RSE_SJ_IS9_EEENSt12_Bind_helperIXsrSt5__or_IJSt11is_integralINSt5decayIT_E4typeEESt7is_enumISU_EEE5valueESS_JDpT0_EE4typeEOSS_DpOSZ_
FNDA:12,_ZSt4bindIM21AccessControlContractFvRSt6vectorISt5tupleIJN6BICYCL6_Utils17CL_HSM_CipherTextINS3_8CL_HSMqkEEES7_S7_EESaIS8_EEmmNS4_16CL_HSM_PublicKeyIS6_EERS8_EJPS0_St17reference_wrapperISA_ERmSK_RSD_SI_IS8_EEENSt12_Bind_helperIXsrSt5__or_IJSt11is_integralINSt5decayIT_E4typeEESt7is_enumIST_EEE5valueESR_JDpT0_EE4typeEOSR_DpOSY_
FNDA:100,_ZSt4bindIM4UserFvN6BICYCL8CL_HSMqkENS1_6_Utils16CL_HSM_PublicKeyIS2_EENS3_17CL_HSM_CipherTextIS2_EES7_RSt5tupleIJS7_S7_S7_EEEJPS0_RS2_RS5_RS7_SG_St17reference_wrapperIS9_EEENSt12_Bind_helperIXsrSt5__or_IJSt11is_integralINSt5decayIT_E4typeEESt7is_enumISP_EEE5valueESN_JDpT0_EE4typeEOSN_DpOSU_
FNDA:200,_ZSt4bindIM4UserFvN6BICYCL8CL_HSMqkENS1_6_Utils17CL_HSM_CipherTextIS2_EERNS1_3QFIEEJPS0_RS2_RS5_St17reference_wrapperIS6_EEENSt12_Bind_helperIXsrSt5__or_IJSt11is_integralINSt5decayIT_E4typeEESt7is_enumISL_EEE5valueESJ_JDpT0_EE4typeEOSJ_DpOSQ_
FNDA:100,_ZSt4bindIM4UserFvRN6BICYCL8CL_HSMqkERKNS1_6_Utils16CL_HSM_PublicKeyIS2_EERSt6vectorISt5tupleIJNS4_17CL_HSM_CipherTextIS2_EE11curve_pointEESaISE_EEPSt5mutexEJPS0_S3_RS6_St17reference_wrapperISG_ESJ_EENSt12_Bind_helperIXsrSt5__or_IJSt11is_integralINSt5decayIT_E4typeEESt7is_enumISW_EEE5valueESU_JDpT0_EE4typeEOSU_DpOS11_
FNDA:2000,_ZSt4bindIM9ValidatorFvN6BICYCL8CL_HSMqkENS1_6_Utils16CL_HSM_PublicKeyIS2_EENS3_17CL_HSM_CipherTextIS2_EES7_RSt5tupleIJS7_S7_S7_EEEJPS0_RS2_RS5_RS7_SG_St17reference_wrapperIS9_EEENSt12_Bind_helperIXsrSt5__or_IJSt11is_integralINSt5decayIT_E4typeEESt7is_enumISP_EEE5valueESN_JDpT0_EE4typeEOSN_DpOSU_
FNDA:2000,_ZSt4bindIM9ValidatorFvN6BICYCL8CL_HSMqkENS1_6_Utils16CL_HSM_PublicKeyIS2_EERSt5tupleIJNS3_17CL_HSM_CipherTextIS2_EE11curve_pointEEPSt5mutexEJPS0_RS2_RS5_St17reference_wrapperISA_ESD_EENSt12_Bind_helperIXsrSt5__or_IJSt11is_integralINSt5decayIT_E4typeEESt7is_enumISR_EEE5valueESP_JDpT0_EE4typeEOSP_DpOSW_
FNDA:4000,_ZSt4bindIM9ValidatorFvN6BICYCL8CL_HSMqkENS1_6_Utils17CL_HSM_CipherTextIS2_EERNS1_3QFIEEJPS0_RS2_RS5_St17reference_wrapperIS6_EEENSt12_Bind_helperIXsrSt5__or_IJSt11is_integralINSt5decayIT_E4typeEESt7is_enumISL_EEE5valueESJ_JDpT0_EE4typeEOSJ_DpOSQ_
FNF:67
FNH:59
DA:390,8472
DA:391,8472
DA:462,31692
DA:463,31692
DA:511,8448
DA:513,40164
DA:514,40164
DA:515,8448
DA:584,8448
DA:585,8448
DA:586,8448
DA:588,0
DA:589,8448
DA:596,8448
DA:598,8448
DA:599,8448
DA:600,8448
DA:888,8448
DA:892,8448
LF:19
LH:18
end_of_record
TN:
SF:/usr/include/c++/14.2.1/new
FN:179,180,_ZnwmPv
FN:185,185,_ZdlPvS_
FNDA:56666,_ZnwmPv
FNDA:0,_ZdlPvS_
FNF:2
FNH:1
DA:179,56666
DA:180,56666
DA:185,0
LF:3
LH:2
end_of_record
TN:
SF:/usr/include/c++/14.2.1/tuple
FN:133,133,_ZNSt10_Head_baseILm1ESt14default_deleteINSt6thread6_StateEELb1EE7_M_headERS4_
FN:1487,1490,_ZNSt5tupleIJMN6BICYCL8CL_HSM2kEKFvRNS0_3QFIERKNS0_3MpzEES1_St17reference_wrapperIS2_ES9_IS5_EEEC2IJRS8_RKS1_SA_SB_ELb1ELb1EEEDpOT_
FN:1487,1490,_ZNSt5tupleIJMN6BICYCL8CL_HSMqkEKFvRNS0_3QFIERKNS0_3MpzEES1_St17reference_wrapperIS2_ES9_IS5_EEEC2IJRS8_RKS1_SA_SB_ELb1ELb1EEEDpOT_
FN:1487,1490,_ZNSt5tupleIJN6BICYCL6_Utils17CL_HSM_CipherTextINS0_8CL_HSMqkEEES4_S4_EEC2IJRS4_S7_S7_ELb1ELb1EEEDpOT_
FN:1487,1490,_ZNSt5tupleIJNSt7__cxx1112basic_stringIcSt11char_traitsIcESaIcEEEN6BICYCL6_Utils17CL_HSM_CipherTextINS6_8CL_HSMqkEEE11curve_pointS5_EEC2IJRKS5_RSA_RSB_RS5_ELb1ELb1EEEDpOT_
FN:1487,1490,_ZNSt5tupleIJNSt7__cxx1112basic_stringIcSt11char_traitsIcESaIcEEEN6BICYCL6_Utils17CL_HSM_CipherTextINS6_8CL_HSMqkEEESA_SA_SA_EEC2IJRS5_RSA_SE_SE_SE_ELb1ELb1EEEDpOT_
FN:1487,1490,_ZNSt5tupleIJP14PolicyContractN6BICYCL6_Utils16CL_HSM_PublicKeyINS2_8CL_HSMqkEEENS3_17CL_HSM_CipherTextIS5_EENSt7__cxx1112basic_stringIcSt11char_traitsIcESaIcEEEEEC2IJRS1_RKS6_RKS8_SE_ELb1ELb1EEEDpOT_
FN:1487,1490,_ZNSt5tupleIJP21AccessControlContractPKN6BICYCL3QFIEmmSt17reference_wrapperIS3_EEEC2IJS1_RS5_RmSB_S7_ELb1ELb1EEEDpOT_
FN:1487,1490,_ZNSt5tupleIJP21AccessControlContractSt17reference_wrapperISt6vectorIS_IJN6BICYCL6_Utils17CL_HSM_CipherTextINS4_8CL_HSMqkEEE11curve_pointEESaISA_EEEmmNS5_16CL_HSM_PublicKeyIS7_EES2_ISA_EEEC2IJS1_SD_RmSJ_RSF_SG_ELb1ELb1EEEDpOT_
FN:1487,1490,_ZNSt5tupleIJP21AccessControlContractSt17reference_wrapperISt6vectorIS_IJN6BICYCL6_Utils17CL_HSM_CipherTextINS4_8CL_HSMqkEEES8_S8_EESaIS9_EEEmmNS5_16CL_HSM_PublicKeyIS7_EES2_IS9_EEEC2IJS1_SC_RmSI_RSE_SF_ELb1ELb1EEEDpOT_
FN:1487,1490,_ZNSt5tupleIJP4UserN6BICYCL8CL_HSMqkENS2_6_Utils16CL_HSM_PublicKeyIS3_EENS4_17CL_HSM_CipherTextIS3_EES8_St17reference_wrapperIS_IJS8_S8_S8_EEEEEC2IJS1_RS3_RS6_RS8_SG_SB_ELb1ELb1EEEDpOT_
FN:1487,1490,_ZNSt5tupleIJP4UserN6BICYCL8CL_HSMqkENS2_6_Utils16CL_HSM_PublicKeyIS3_EESt17reference_wrapperISt6vectorIS_IJNS4_17CL_HSM_CipherTextIS3_EE11curve_pointEESaISC_EEEPSt5mutexEEC2IJS1_RS3_RS6_SF_SH_ELb1ELb1EEEDpOT_
FN:1487,1490,_ZNSt5tupleIJP4UserN6BICYCL8CL_HSMqkENS2_6_Utils17CL_HSM_CipherTextIS3_EESt17reference_wrapperINS2_3QFIEEEEC2IJS1_RS3_RS6_S9_ELb1ELb1EEEDpOT_
FN:1487,1490,_ZNSt5tupleIJP9ValidatorN6BICYCL8CL_HSMqkENS2_6_Utils16CL_HSM_PublicKeyIS3_EENS4_17CL_HSM_CipherTextIS3_EES8_St17reference_wrapperIS_IJS8_S8_S8_EEEEEC2IJS1_RS3_RS6_RS8_SG_SB_ELb1ELb1EEEDpOT_
FN:1487,1490,_ZNSt5tupleIJP9ValidatorN6BICYCL8CL_HSMqkENS2_6_Utils16CL_HSM_PublicKeyIS3_EESt17reference_wrapperIS_IJNS4_17CL_HSM_CipherTextIS3_EE11curve_pointEEEPSt5mutexEEC2IJS1_RS3_RS6_SC_SE_ELb1ELb1EEEDpOT_
FN:1487,1490,_ZNSt5tupleIJP9ValidatorN6BICYCL8CL_HSMqkENS2_6_Utils17CL_HSM_CipherTextIS3_EESt17reference_wrapperINS2_3QFIEEEEC2IJS1_RS3_RS6_S9_ELb1ELb1EEEDpOT_
FN:1487,1490,_ZNSt5tupleIJZN10ThreadPoolC4EmEUlvE_EEC2IJS1_ELb1ELb1EEEDpOT_
FN:1501,1501,_ZNSt5tupleIJN6BICYCL6_Utils17CL_HSM_CipherTextINS0_8CL_HSMqkEEES4_S4_EEC2ERKS5_
FN:1501,1501,_ZNSt5tupleIJNSt7__cxx1112basic_stringIcSt11char_traitsIcESaIcEEEN6BICYCL6_Utils17CL_HSM_CipherTextINS6_8CL_HSMqkEEE11curve_pointS5_EEC2ERKSC_
FN:1501,1501,_ZNSt5tupleIJNSt7__cxx1112basic_stringIcSt11char_traitsIcESaIcEEEN6BICYCL6_Utils17CL_HSM_CipherTextINS6_8CL_HSMqkEEESA_SA_SA_EEC2ERKSB_
FN:1501,1501,_ZNSt5tupleIJP21AccessControlContractSt17reference_wrapperISt6vectorIS_IJN6BICYCL6_Utils17CL_HSM_CipherTextINS4_8CL_HSMqkEEE11curve_pointEESaISA_EEEmmNS5_16CL_HSM_PublicKeyIS7_EES2_ISA_EEEC2ERKSH_
FN:1501,1501,_ZNSt5tupleIJP21AccessControlContractSt17reference_wrapperISt6vectorIS_IJN6BICYCL6_Utils17CL_HSM_CipherTextINS4_8CL_HSMqkEEES8_S8_EESaIS9_EEEmmNS5_16CL_HSM_PublicKeyIS7_EES2_IS9_EEEC2ERKSG_
FN:1501,1501,_ZNSt5tupleIJP4UserN6BICYCL8CL_HSMqkENS2_6_Utils16CL_HSM_PublicKeyIS3_EENS4_17CL_HSM_CipherTextIS3_EES8_St17reference_wrapperIS_IJS8_S8_S8_EEEEEC2ERKSC_
FN:1501,1501,_ZNSt5tupleIJP4UserN6BICYCL8CL_HSMqkENS2_6_Utils16CL_HSM_PublicKeyIS3_EESt17reference_wrapperISt6vectorIS_IJNS4_17CL_HSM_CipherTextIS3_EE11curve_pointEESaISC_EEEPSt5mutexEEC2ERKSI_
FN:1501,1501,_ZNSt5tupleIJP4UserN6BICYCL8CL_HSMqkENS2_6_Utils17CL_HSM_CipherTextIS3_EESt17reference_wrapperINS2_3QFIEEEEC2ERKSA_
FN:1501,1501,_ZNSt5tupleIJP9ValidatorN6BICYCL8CL_HSMqkENS2_6_Utils16CL_HSM_PublicKeyIS3_EENS4_17CL_HSM_CipherTextIS3_EES8_St17reference_wrapperIS_IJS8_S8_S8_EEEEEC2ERKSC_
FN:1501,1501,_ZNSt5tupleIJP9ValidatorN6BICYCL8CL_HSMqkENS2_6_Utils16CL_HSM_PublicKeyIS3_EESt17reference_wrapperIS_IJNS4_17CL_HSM_CipherTextIS3_EE11curve_pointEEEPSt5mutexEEC2ERKSF_
FN:1501,1501,_ZNSt5tupleIJP9ValidatorN6BICYCL8CL_HSMqkENS2_6_Utils17CL_HSM_CipherTextIS3_EESt17reference_wrapperINS2_3QFIEEEEC2ERKSA_
FN:1503,1503,_ZNSt5tupleIJN6BICYCL6_Utils17CL_HSM_CipherTextINS0_8CL_HSMqkEEES4_S4_EEC2EOS5_
FN:1503,1503,_ZNSt5tupleIJNSt7__cxx1112basic_stringIcSt11char_traitsIcESaIcEEEN6BICYCL6_Utils17CL_HSM_CipherTextINS6_8CL_HSMqkEEE11curve_pointS5_EEC2EOSC_
FN:1503,1503,_ZNSt5tupleIJNSt7__cxx1112basic_stringIcSt11char_traitsIcESaIcEEEN6BICYCL6_Utils17CL_HSM_CipherTextINS6_8CL_HSMqkEEESA_SA_SA_EEC2EOSB_
FN:1503,1503,_ZNSt5tupleIJP14PolicyContractN6BICYCL6_Utils16CL_HSM_PublicKeyINS2_8CL_HSMqkEEENS3_17CL_HSM_CipherTextIS5_EENSt7__cxx1112basic_stringIcSt11char_traitsIcESaIcEEEEEC2EOSF_
FN:1503,1503,_ZNSt5tupleIJP21AccessControlContractPKN6BICYCL3QFIEmmSt17reference_wrapperIS3_EEEC2EOS8_
FN:1503,1503,_ZNSt5tupleIJP21AccessControlContractSt17reference_wrapperISt6vectorIS_IJN6BICYCL6_Utils17CL_HSM_CipherTextINS4_8CL_HSMqkEEE11curve_pointEESaISA_EEEmmNS5_16CL_HSM_PublicKeyIS7_EES2_ISA_EEEC2EOSH_
FN:1503,1503,_ZNSt5tupleIJP21AccessControlContractSt17reference_wrapperISt6vectorIS_IJN6BICYCL6_Utils17CL_HSM_CipherTextINS4_8CL_HSMqkEEES8_S8_EESaIS9_EEEmmNS5_16CL_HSM_PublicKeyIS7_EES2_IS9_EEEC2EOSG_
FN:1503,1503,_ZNSt5tupleIJP4UserN6BICYCL8CL_HSMqkENS2_6_Utils16CL_HSM_PublicKeyIS3_EENS4_17CL_HSM_CipherTextIS3_EES8_St17reference_wrapperIS_IJS8_S8_S8_EEEEEC2EOSC_
FN:1503,1503,_ZNSt5tupleIJP4UserN6BICYCL8CL_HSMqkENS2_6_Utils16CL_HSM_PublicKeyIS3_EESt17reference_wrapperISt6vectorIS_IJNS4_17CL_HSM_CipherTextIS3_EE11curve_pointEESaISC_EEEPSt5mutexEEC2EOSI_
FN:1503,1503,_ZNSt5tupleIJP4UserN6BICYCL8CL_HSMqkENS2_6_Utils17CL_HSM_CipherTextIS3_EESt17reference_wrapperINS2_3QFIEEEEC2EOSA_
FN:1503,1503,_ZNSt5tupleIJP9ValidatorN6BICYCL8CL_HSMqkENS2_6_Utils16CL_HSM_PublicKeyIS3_EENS4_17CL_HSM_CipherTextIS3_EES8_St17reference_wrapperIS_IJS8_S8_S8_EEEEEC2EOSC_
FN:1503,1503,_ZNSt5tupleIJP9ValidatorN6BICYCL8CL_HSMqkENS2_6_Utils16CL_HSM_PublicKeyIS3_EESt17reference_wrapperIS_IJNS4_17CL_HSM_CipherTextIS3_EE11curve_pointEEEPSt5mutexEEC2EOSF_
FN:1503,1503,_ZNSt5tupleIJP9ValidatorN6BICYCL8CL_HSMqkENS2_6_Utils17CL_HSM_CipherTextIS3_EESt17reference_wrapperINS2_3QFIEEEEC2EOSA_
FN:1916,1923,_ZNSt5tupleIJN6BICYCL6_Utils17CL_HSM_CipherTextINS0_8CL_HSMqkEEES4_S4_EEaSEOS5_
FN:198,199,_ZNSt10_Head_baseILm0EPNSt6thread6_StateELb0EEC2Ev
FN:201,202,_ZNSt10_Head_baseILm0ENSt7__cxx1112basic_stringIcSt11char_traitsIcESaIcEEELb0EEC2ERKS5_
FN:201,202,_ZNSt10_Head_baseILm1EN6BICYCL6_Utils16CL_HSM_PublicKeyINS0_8CL_HSMqkEEELb0EEC2ERKS4_
FN:201,202,_ZNSt10_Head_baseILm1EN6BICYCL8CL_HSM2kELb0EEC2ERKS1_
FN:201,202,_ZNSt10_Head_baseILm1EN6BICYCL8CL_HSMqkELb0EEC2ERKS1_
FN:201,202,_ZNSt10_Head_baseILm2EN6BICYCL6_Utils17CL_HSM_CipherTextINS0_8CL_HSMqkEEELb0EEC2ERKS4_
FN:204,204,_ZNSt10_Head_baseILm0EN6BICYCL6_Utils17CL_HSM_CipherTextINS0_8CL_HSMqkEEELb0EEC2ERKS5_
FN:204,204,_ZNSt10_Head_baseILm0ENSt7__cxx1112basic_stringIcSt11char_traitsIcESaIcEEELb0EEC2ERKS6_
FN:204,204,_ZNSt10_Head_baseILm1EN6BICYCL6_Utils16CL_HSM_ClearTextINS0_8CL_HSMqkEEELb0EEC2ERKS5_
FN:204,204,_ZNSt10_Head_baseILm1EN6BICYCL6_Utils17CL_HSM_CipherTextINS0_8CL_HSMqkEEELb0EEC2ERKS5_
FN:204,204,_ZNSt10_Head_baseILm1EN6BICYCL8CL_HSMqkELb0EEC2ERKS2_
FN:204,204,_ZNSt10_Head_baseILm2EN6BICYCL6_Utils16CL_HSM_PublicKeyINS0_8CL_HSMqkEEELb0EEC2ERKS5_
FN:204,204,_ZNSt10_Head_baseILm2EN6BICYCL6_Utils17CL_HSM_CipherTextINS0_8CL_HSMqkEEELb0EEC2ERKS5_
FN:204,204,_ZNSt10_Head_baseILm3EN6BICYCL6_Utils17CL_HSM_CipherTextINS0_8CL_HSMqkEEELb0EEC2ERKS5_
FN:204,204,_ZNSt10_Head_baseILm3ENSt7__cxx1112basic_stringIcSt11char_traitsIcESaIcEEELb0EEC2ERKS6_
FN:204,204,_ZNSt10_Head_baseILm4EN6BICYCL6_Utils16CL_HSM_PublicKeyINS0_8CL_HSMqkEEELb0EEC2ERKS5_
FN:204,204,_ZNSt10_Head_baseILm4EN6BICYCL6_Utils17CL_HSM_CipherTextINS0_8CL_HSMqkEEELb0EEC2ERKS5_
FN:205,205,_ZNSt10_Head_baseILm0EN6BICYCL6_Utils17CL_HSM_CipherTextINS0_8CL_HSMqkEEELb0EEC2EOS5_
FN:205,205,_ZNSt10_Head_baseILm0ENSt7__cxx1112basic_stringIcSt11char_traitsIcESaIcEEELb0EEC2EOS6_
FN:205,205,_ZNSt10_Head_baseILm1EN6BICYCL6_Utils16CL_HSM_ClearTextINS0_8CL_HSMqkEEELb0EEC2EOS5_
FN:205,205,_ZNSt10_Head_baseILm1EN6BICYCL6_Utils16CL_HSM_PublicKeyINS0_8CL_HSMqkEEELb0EEC2EOS5_
FN:205,205,_ZNSt10_Head_baseILm1EN6BICYCL6_Utils17CL_HSM_CipherTextINS0_8CL_HSMqkEEELb0EEC2EOS5_
FN:205,205,_ZNSt10_Head_baseILm1EN6BICYCL8CL_HSMqkELb0EEC2EOS2_
FN:205,205,_ZNSt10_Head_baseILm2EN6BICYCL6_Utils16CL_HSM_PublicKeyINS0_8CL_HSMqkEEELb0EEC2EOS5_
FN:205,205,_ZNSt10_Head_baseILm2EN6BICYCL6_Utils17CL_HSM_CipherTextINS0_8CL_HSMqkEEELb0EEC2EOS5_
FN:205,205,_ZNSt10_Head_baseILm3EN6BICYCL6_Utils17CL_HSM_CipherTextINS0_8CL_HSMqkEEELb0EEC2EOS5_
FN:205,205,_ZNSt10_Head_baseILm3ENSt7__cxx1112basic_stringIcSt11char_traitsIcESaIcEEELb0EEC2EOS6_
FN:205,205,_ZNSt10_Head_baseILm4EN6BICYCL6_Utils16CL_HSM_PublicKeyINS0_8CL_HSMqkEEELb0EEC2EOS5_
FN:205,205,_ZNSt10_Head_baseILm4EN6BICYCL6_Utils17CL_HSM_CipherTextINS0_8CL_HSMqkEEELb0EEC2EOS5_
FN:208,209,_ZNSt10_Head_baseILm0EMN6BICYCL8CL_HSM2kEKFvRNS0_3QFIERKNS0_3MpzEELb0EEC2IRS8_EEOT_
FN:208,209,_ZNSt10_Head_baseILm0EMN6BICYCL8CL_HSMqkEKFvRNS0_3QFIERKNS0_3MpzEELb0EEC2IRS8_EEOT_
FN:208,209,_ZNSt10_Head_baseILm0EN6BICYCL6_Utils17CL_HSM_CipherTextINS0_8CL_HSMqkEEELb0EEC2IRS4_EEOT_
FN:208,209,_ZNSt10_Head_baseILm0ENSt7__cxx1112basic_stringIcSt11char_traitsIcESaIcEEELb0EEC2IRS5_EEOT_
FN:208,209,_ZNSt10_Head_baseILm0EP14PolicyContractLb0EEC2IRS1_EEOT_
FN:208,209,_ZNSt10_Head_baseILm0EP21AccessControlContractLb0EEC2IS1_EEOT_
FN:208,209,_ZNSt10_Head_baseILm0EP4UserLb0EEC2IS1_EEOT_
FN:208,209,_ZNSt10_Head_baseILm0EP9ValidatorLb0EEC2IS1_EEOT_
FN:208,209,_ZNSt10_Head_baseILm0EZN10ThreadPoolC4EmEUlvE_Lb0EEC2IS1_EEOT_
FN:208,209,_ZNSt10_Head_baseILm1E11curve_pointLb0EEC2IRS0_EEOT_
FN:208,209,_ZNSt10_Head_baseILm1EN6BICYCL6_Utils16CL_HSM_ClearTextINS0_8CL_HSMqkEEELb0EEC2IRS4_EEOT_
FN:208,209,_ZNSt10_Head_baseILm1EN6BICYCL6_Utils17CL_HSM_CipherTextINS0_8CL_HSMqkEEELb0EEC2IRS4_EEOT_
FN:208,209,_ZNSt10_Head_baseILm1EN6BICYCL8CL_HSMqkELb0EEC2IRS1_EEOT_
FN:208,209,_ZNSt10_Head_baseILm1EPKN6BICYCL3QFIELb0EEC2IRS3_EEOT_
FN:208,209,_ZNSt10_Head_baseILm1ESt17reference_wrapperISt6vectorISt5tupleIJN6BICYCL6_Utils17CL_HSM_CipherTextINS3_8CL_HSMqkEEE11curve_pointEESaIS9_EEELb0EEC2ISC_EEOT_
FN:208,209,_ZNSt10_Head_baseILm1ESt17reference_wrapperISt6vectorISt5tupleIJN6BICYCL6_Utils17CL_HSM_CipherTextINS3_8CL_HSMqkEEES7_S7_EESaIS8_EEELb0EEC2ISB_EEOT_
FN:208,209,_ZNSt10_Head_baseILm2E11curve_pointLb0EEC2IRS0_EEOT_
FN:208,209,_ZNSt10_Head_baseILm2EN6BICYCL6_Utils16CL_HSM_PublicKeyINS0_8CL_HSMqkEEELb0EEC2IRS4_EEOT_
FN:208,209,_ZNSt10_Head_baseILm2EN6BICYCL6_Utils17CL_HSM_CipherTextINS0_8CL_HSMqkEEELb0EEC2IRS4_EEOT_
FN:208,209,_ZNSt10_Head_baseILm2ESt17reference_wrapperIN6BICYCL3QFIEELb0EEC2IS3_EEOT_
FN:208,209,_ZNSt10_Head_baseILm2EmLb0EEC2IRmEEOT_
FN:208,209,_ZNSt10_Head_baseILm3EN6BICYCL6_Utils17CL_HSM_CipherTextINS0_8CL_HSMqkEEELb0EEC2IRS4_EEOT_
FN:208,209,_ZNSt10_Head_baseILm3ENSt7__cxx1112basic_stringIcSt11char_traitsIcESaIcEEELb0EEC2IRS5_EEOT_
FN:208,209,_ZNSt10_Head_baseILm3ENSt7__cxx1112basic_stringIcSt11char_traitsIcESaIcEEELb0EEC2IS5_EEOT_
FN:208,209,_ZNSt10_Head_baseILm3ESt17reference_wrapperIKN6BICYCL3MpzEELb0EEC2IS4_EEOT_
FN:208,209,_ZNSt10_Head_baseILm3ESt17reference_wrapperIN6BICYCL3QFIEELb0EEC2IS3_EEOT_
FN:208,209,_ZNSt10_Head_baseILm3ESt17reference_wrapperISt5tupleIJN6BICYCL6_Utils17CL_HSM_CipherTextINS2_8CL_HSMqkEEE11curve_pointEEELb0EEC2IS9_EEOT_
FN:208,209,_ZNSt10_Head_baseILm3ESt17reference_wrapperISt6vectorISt5tupleIJN6BICYCL6_Utils17CL_HSM_CipherTextINS3_8CL_HSMqkEEE11curve_pointEESaIS9_EEELb0EEC2ISC_EEOT_
FN:208,209,_ZNSt10_Head_baseILm3EmLb0EEC2IRmEEOT_
FN:208,209,_ZNSt10_Head_baseILm4EN6BICYCL6_Utils16CL_HSM_PublicKeyINS0_8CL_HSMqkEEELb0EEC2IRS4_EEOT_
FN:208,209,_ZNSt10_Head_baseILm4EN6BICYCL6_Utils17CL_HSM_CipherTextINS0_8CL_HSMqkEEELb0EEC2IRS4_EEOT_
FN:208,209,_ZNSt10_Head_baseILm4EPSt5mutexLb0EEC2IS1_EEOT_
FN:208,209,_ZNSt10_Head_baseILm4ESt17reference_wrapperIN6BICYCL3QFIEELb0EEC2IS3_EEOT_
FN:208,209,_ZNSt10_Head_baseILm5ESt17reference_wrapperISt5tupleIJN6BICYCL6_Utils17CL_HSM_CipherTextINS2_8CL_HSMqkEEE11curve_pointEEELb0EEC2IS9_EEOT_
FN:208,209,_ZNSt10_Head_baseILm5ESt17reference_wrapperISt5tupleIJN6BICYCL6_Utils17CL_HSM_CipherTextINS2_8CL_HSMqkEEES6_S6_EEELb0EEC2IS8_EEOT_
FN:2089,2091,_ZNSt5tupleIJPNSt6thread6_StateESt14default_deleteIS1_EEEC2ILb1ELb1EEEv
FN:2117,2120,_ZNSt5tupleIJN6BICYCL6_Utils17CL_HSM_CipherTextINS0_8CL_HSMqkEEE11curve_pointEEC2IRS4_RS5_Lb1EEEOT_OT0_
FN:2117,2120,_ZNSt5tupleIJNSt7__cxx1112basic_stringIcSt11char_traitsIcESaIcEEEN6BICYCL6_Utils16CL_HSM_ClearTextINS6_8CL_HSMqkEEEEEC2IRS5_RSA_Lb1EEEOT_OT0_
FN:2130,2130,_ZNSt5tupleIJN6BICYCL6_Utils17CL_HSM_CipherTextINS0_8CL_HSMqkEEE11curve_pointEEC2ERKS6_
FN:2130,2130,_ZNSt5tupleIJNSt7__cxx1112basic_stringIcSt11char_traitsIcESaIcEEEN6BICYCL6_Utils16CL_HSM_ClearTextINS6_8CL_HSMqkEEEEEC2ERKSB_
FN:2132,2132,_ZNSt5tupleIJN6BICYCL6_Utils17CL_HSM_CipherTextINS0_8CL_HSMqkEEE11curve_pointEEC2EOS6_
FN:2132,2132,_ZNSt5tupleIJNSt7__cxx1112basic_stringIcSt11char_traitsIcESaIcEEEN6BICYCL6_Utils16CL_HSM_ClearTextINS6_8CL_HSMqkEEEEEC2EOSB_
FN:2341,2348,_ZNSt5tupleIJN6BICYCL6_Utils17CL_HSM_CipherTextINS0_8CL_HSMqkEEE11curve_pointEEaSEOS6_
FN:242,242,_ZNSt10_Head_baseILm0EMN6BICYCL8CL_HSM2kEKFvRNS0_3QFIERKNS0_3MpzEELb0EE7_M_headERS9_
FN:242,242,_ZNSt10_Head_baseILm0EMN6BICYCL8CL_HSMqkEKFvRNS0_3QFIERKNS0_3MpzEELb0EE7_M_headERS9_
FN:242,242,_ZNSt10_Head_baseILm0EN6BICYCL6_Utils17CL_HSM_CipherTextINS0_8CL_HSMqkEEELb0EE7_M_headERS5_
FN:242,242,_ZNSt10_Head_baseILm0ENSt7__cxx1112basic_stringIcSt11char_traitsIcESaIcEEELb0EE7_M_headERS6_
FN:242,242,_ZNSt10_Head_baseILm0EP14PolicyContractLb0EE7_M_headERS2_
FN:242,242,_ZNSt10_Head_baseILm0EP21AccessControlContractLb0EE7_M_headERS2_
FN:242,242,_ZNSt10_Head_baseILm0EP4UserLb0EE7_M_headERS2_
FN:242,242,_ZNSt10_Head_baseILm0EP9ValidatorLb0EE7_M_headERS2_
FN:242,242,_ZNSt10_Head_baseILm0EPNSt6thread6_StateELb0EE7_M_headERS3_
FN:242,242,_ZNSt10_Head_baseILm0EZN10ThreadPoolC4EmEUlvE_Lb0EE7_M_headERS2_
FN:242,242,_ZNSt10_Head_baseILm1E11curve_pointLb0EE7_M_headERS1_
FN:242,242,_ZNSt10_Head_baseILm1EN6BICYCL6_Utils16CL_HSM_ClearTextINS0_8CL_HSMqkEEELb0EE7_M_headERS5_
FN:242,242,_ZNSt10_Head_baseILm1EN6BICYCL6_Utils16CL_HSM_PublicKeyINS0_8CL_HSMqkEEELb0EE7_M_headERS5_
FN:242,242,_ZNSt10_Head_baseILm1EN6BICYCL6_Utils17CL_HSM_CipherTextINS0_8CL_HSMqkEEELb0EE7_M_headERS5_
FN:242,242,_ZNSt10_Head_baseILm1EN6BICYCL8CL_HSM2kELb0EE7_M_headERS2_
FN:242,242,_ZNSt10_Head_baseILm1EN6BICYCL8CL_HSMqkELb0EE7_M_headERS2_
FN:242,242,_ZNSt10_Head_baseILm1EPKN6BICYCL3QFIELb0EE7_M_headERS4_
FN:242,242,_ZNSt10_Head_baseILm1ESt17reference_wrapperISt6vectorISt5tupleIJN6BICYCL6_Utils17CL_HSM_CipherTextINS3_8CL_HSMqkEEE11curve_pointEESaIS9_EEELb0EE7_M_headERSD_
FN:242,242,_ZNSt10_Head_baseILm1ESt17reference_wrapperISt6vectorISt5tupleIJN6BICYCL6_Utils17CL_HSM_CipherTextINS3_8CL_HSMqkEEES7_S7_EESaIS8_EEELb0EE7_M_headERSC_
FN:242,242,_ZNSt10_Head_baseILm2E11curve_pointLb0EE7_M_headERS1_
FN:242,242,_ZNSt10_Head_baseILm2EN6BICYCL6_Utils16CL_HSM_PublicKeyINS0_8CL_HSMqkEEELb0EE7_M_headERS5_
FN:242,242,_ZNSt10_Head_baseILm2EN6BICYCL6_Utils17CL_HSM_CipherTextINS0_8CL_HSMqkEEELb0EE7_M_headERS5_
FN:242,242,_ZNSt10_Head_baseILm2ESt17reference_wrapperIN6BICYCL3QFIEELb0EE7_M_headERS4_
FN:242,242,_ZNSt10_Head_baseILm2EmLb0EE7_M_headERS0_
FN:242,242,_ZNSt10_Head_baseILm3EN6BICYCL6_Utils17CL_HSM_CipherTextINS0_8CL_HSMqkEEELb0EE7_M_headERS5_
FN:242,242,_ZNSt10_Head_baseILm3ENSt7__cxx1112basic_stringIcSt11char_traitsIcESaIcEEELb0EE7_M_headERS6_
FN:242,242,_ZNSt10_Head_baseILm3ESt17reference_wrapperIKN6BICYCL3MpzEELb0EE7_M_headERS5_
FN:242,242,_ZNSt10_Head_baseILm3ESt17reference_wrapperIN6BICYCL3QFIEELb0EE7_M_headERS4_
FN:242,242,_ZNSt10_Head_baseILm3ESt17reference_wrapperISt5tupleIJN6BICYCL6_Utils17CL_HSM_CipherTextINS2_8CL_HSMqkEEE11curve_pointEEELb0EE7_M_headERSA_
FN:242,242,_ZNSt10_Head_baseILm3ESt17reference_wrapperISt6vectorISt5tupleIJN6BICYCL6_Utils17CL_HSM_CipherTextINS3_8CL_HSMqkEEE11curve_pointEESaIS9_EEELb0EE7_M_headERSD_
FN:242,242,_ZNSt10_Head_baseILm3EmLb0EE7_M_headERS0_
FN:242,242,_ZNSt10_Head_baseILm4EN6BICYCL6_Utils16CL_HSM_PublicKeyINS0_8CL_HSMqkEEELb0EE7_M_headERS5_
FN:242,242,_ZNSt10_Head_baseILm4EN6BICYCL6_Utils17CL_HSM_CipherTextINS0_8CL_HSMqkEEELb0EE7_M_headERS5_
FN:242,242,_ZNSt10_Head_baseILm4EPSt5mutexLb0EE7_M_headERS2_
FN:242,242,_ZNSt10_Head_baseILm4ESt17reference_wrapperIN6BICYCL3QFIEELb0EE7_M_headERS4_
FN:242,242,_ZNSt10_Head_baseILm5ESt17reference_wrapperISt5tupleIJN6BICYCL6_Utils17CL_HSM_CipherTextINS2_8CL_HSMqkEEE11curve_pointEEELb0EE7_M_headERSA_
FN:242,242,_ZNSt10_Head_baseILm5ESt17reference_wrapperISt5tupleIJN6BICYCL6_Utils17CL_HSM_CipherTextINS2_8CL_HSMqkEEES6_S6_EEELb0EE7_M_headERS9_
FN:2427,2428,_ZSt12__get_helperILm0EMN6BICYCL8CL_HSM2kEKFvRNS0_3QFIERKNS0_3MpzEEJS1_St17reference_wrapperIS2_ES9_IS5_EEERT0_RSt11_Tuple_implIXT_EJSC_DpT1_EE
FN:2427,2428,_ZSt12__get_helperILm0EMN6BICYCL8CL_HSMqkEKFvRNS0_3QFIERKNS0_3MpzEEJS1_St17reference_wrapperIS2_ES9_IS5_EEERT0_RSt11_Tuple_implIXT_EJSC_DpT1_EE
FN:2427,2428,_ZSt12__get_helperILm0EN6BICYCL6_Utils17CL_HSM_CipherTextINS0_8CL_HSMqkEEEJ11curve_pointEERT0_RSt11_Tuple_implIXT_EJS6_DpT1_EE
FN:2427,2428,_ZSt12__get_helperILm0EN6BICYCL6_Utils17CL_HSM_CipherTextINS0_8CL_HSMqkEEEJS4_S4_EERT0_RSt11_Tuple_implIXT_EJS5_DpT1_EE
FN:2427,2428,_ZSt12__get_helperILm0ENSt7__cxx1112basic_stringIcSt11char_traitsIcESaIcEEEJN6BICYCL6_Utils17CL_HSM_CipherTextINS6_8CL_HSMqkEEE11curve_pointS5_EERT0_RSt11_Tuple_implIXT_EJSC_DpT1_EE
FN:2427,2428,_ZSt12__get_helperILm0EP14PolicyContractJN6BICYCL6_Utils16CL_HSM_PublicKeyINS2_8CL_HSMqkEEENS3_17CL_HSM_CipherTextIS5_EENSt7__cxx1112basic_stringIcSt11char_traitsIcESaIcEEEEERT0_RSt11_Tuple_implIXT_EJSF_DpT1_EE
FN:2427,2428,_ZSt12__get_helperILm0EP21AccessControlContractJPKN6BICYCL3QFIEmmSt17reference_wrapperIS3_EEERT0_RSt11_Tuple_implIXT_EJS8_DpT1_EE
FN:2427,2428,_ZSt12__get_helperILm0EP21AccessControlContractJSt17reference_wrapperISt6vectorISt5tupleIJN6BICYCL6_Utils17CL_HSM_CipherTextINS5_8CL_HSMqkEEE11curve_pointEESaISB_EEEmmNS6_16CL_HSM_PublicKeyIS8_EES2_ISB_EEERT0_RSt11_Tuple_implIXT_EJSI_DpT1_EE
FN:2427,2428,_ZSt12__get_helperILm0EP21AccessControlContractJSt17reference_wrapperISt6vectorISt5tupleIJN6BICYCL6_Utils17CL_HSM_CipherTextINS5_8CL_HSMqkEEES9_S9_EESaISA_EEEmmNS6_16CL_HSM_PublicKeyIS8_EES2_ISA_EEERT0_RSt11_Tuple_implIXT_EJSH_DpT1_EE
FN:2427,2428,_ZSt12__get_helperILm0EP4UserJN6BICYCL8CL_HSMqkENS2_6_Utils16CL_HSM_PublicKeyIS3_EENS4_17CL_HSM_CipherTextIS3_EES8_St17reference_wrapperISt5tupleIJS8_S8_S8_EEEEERT0_RSt11_Tuple_implIXT_EJSD_DpT1_EE
FN:2427,2428,_ZSt12__get_helperILm0EP4UserJN6BICYCL8CL_HSMqkENS2_6_Utils16CL_HSM_PublicKeyIS3_EESt17reference_wrapperISt6vectorISt5tupleIJNS4_17CL_HSM_CipherTextIS3_EE11curve_pointEESaISD_EEEPSt5mutexEERT0_RSt11_Tuple_implIXT_EJSJ_DpT1_EE
FN:2427,2428,_ZSt12__get_helperILm0EP4UserJN6BICYCL8CL_HSMqkENS2_6_Utils17CL_HSM_CipherTextIS3_EESt17reference_wrapperINS2_3QFIEEEERT0_RSt11_Tuple_implIXT_EJSA_DpT1_EE
FN:2427,2428,_ZSt12__get_helperILm0EP9ValidatorJN6BICYCL8CL_HSMqkENS2_6_Utils16CL_HSM_PublicKeyIS3_EENS4_17CL_HSM_CipherTextIS3_EES8_St17reference_wrapperISt5tupleIJS8_S8_S8_EEEEERT0_RSt11_Tuple_implIXT_EJSD_DpT1_EE
FN:2427,2428,_ZSt12__get_helperILm0EP9ValidatorJN6BICYCL8CL_HSMqkENS2_6_Utils16CL_HSM_PublicKeyIS3_EESt17reference_wrapperISt5tupleIJNS4_17CL_HSM_CipherTextIS3_EE11curve_pointEEEPSt5mutexEERT0_RSt11_Tuple_implIXT_EJSG_DpT1_EE
FN:2427,2428,_ZSt12__get_helperILm0EP9ValidatorJN6BICYCL8CL_HSMqkENS2_6_Utils17CL_HSM_CipherTextIS3_EESt17reference_wrapperINS2_3QFIEEEERT0_RSt11_Tuple_implIXT_EJSA_DpT1_EE
FN:2427,2428,_ZSt12__get_helperILm0EPNSt6thread6_StateEJSt14default_deleteIS1_EEERT0_RSt11_Tuple_implIXT_EJS5_DpT1_EE
FN:2427,2428,_ZSt12__get_helperILm0EZN10ThreadPoolC4EmEUlvE_JEERT0_RSt11_Tuple_implIXT_EJS2_DpT1_EE
FN:2427,2428,_ZSt12__get_helperILm1E11curve_pointJEERT0_RSt11_Tuple_implIXT_EJS1_DpT1_EE
FN:2427,2428,_ZSt12__get_helperILm1EN6BICYCL6_Utils16CL_HSM_ClearTextINS0_8CL_HSMqkEEEJEERT0_RSt11_Tuple_implIXT_EJS5_DpT1_EE
FN:2427,2428,_ZSt12__get_helperILm1EN6BICYCL6_Utils16CL_HSM_PublicKeyINS0_8CL_HSMqkEEEJNS1_17CL_HSM_CipherTextIS3_EENSt7__cxx1112basic_stringIcSt11char_traitsIcESaIcEEEEERT0_RSt11_Tuple_implIXT_EJSD_DpT1_EE
FN:2427,2428,_ZSt12__get_helperILm1EN6BICYCL6_Utils17CL_HSM_CipherTextINS0_8CL_HSMqkEEEJ11curve_pointNSt7__cxx1112basic_stringIcSt11char_traitsIcESaIcEEEEERT0_RSt11_Tuple_implIXT_EJSC_DpT1_EE
FN:2427,2428,_ZSt12__get_helperILm1EN6BICYCL6_Utils17CL_HSM_CipherTextINS0_8CL_HSMqkEEEJS4_EERT0_RSt11_Tuple_implIXT_EJS5_DpT1_EE
FN:2427,2428,_ZSt12__get_helperILm1EN6BICYCL8CL_HSM2kEJSt17reference_wrapperINS0_3QFIEES2_IKNS0_3MpzEEEERT0_RSt11_Tuple_implIXT_EJS8_DpT1_EE
FN:2427,2428,_ZSt12__get_helperILm1EN6BICYCL8CL_HSMqkEJNS0_6_Utils16CL_HSM_PublicKeyIS1_EENS2_17CL_HSM_CipherTextIS1_EES6_St17reference_wrapperISt5tupleIJS6_S6_S6_EEEEERT0_RSt11_Tuple_implIXT_EJSB_DpT1_EE
FN:2427,2428,_ZSt12__get_helperILm1EN6BICYCL8CL_HSMqkEJNS0_6_Utils16CL_HSM_PublicKeyIS1_EESt17reference_wrapperISt5tupleIJNS2_17CL_HSM_CipherTextIS1_EE11curve_pointEEEPSt5mutexEERT0_RSt11_Tuple_implIXT_EJSE_DpT1_EE
FN:2427,2428,_ZSt12__get_helperILm1EN6BICYCL8CL_HSMqkEJNS0_6_Utils16CL_HSM_PublicKeyIS1_EESt17reference_wrapperISt6vectorISt5tupleIJNS2_17CL_HSM_CipherTextIS1_EE11curve_pointEESaISB_EEEPSt5mutexEERT0_RSt11_Tuple_implIXT_EJSH_DpT1_EE
FN:2427,2428,_ZSt12__get_helperILm1EN6BICYCL8CL_HSMqkEJNS0_6_Utils17CL_HSM_CipherTextIS1_EESt17reference_wrapperINS0_3QFIEEEERT0_RSt11_Tuple_implIXT_EJS8_DpT1_EE
FN:2427,2428,_ZSt12__get_helperILm1EN6BICYCL8CL_HSMqkEJSt17reference_wrapperINS0_3QFIEES2_IKNS0_3MpzEEEERT0_RSt11_Tuple_implIXT_EJS8_DpT1_EE
FN:2427,2428,_ZSt12__get_helperILm1EPKN6BICYCL3QFIEJmmSt17reference_wrapperIS1_EEERT0_RSt11_Tuple_implIXT_EJS6_DpT1_EE
FN:2427,2428,_ZSt12__get_helperILm1ESt14default_deleteINSt6thread6_StateEEJEERT0_RSt11_Tuple_implIXT_EJS4_DpT1_EE
FN:2427,2428,_ZSt12__get_helperILm1ESt17reference_wrapperISt6vectorISt5tupleIJN6BICYCL6_Utils17CL_HSM_CipherTextINS3_8CL_HSMqkEEE11curve_pointEESaIS9_EEEJmmNS4_16CL_HSM_PublicKeyIS6_EES0_IS9_EEERT0_RSt11_Tuple_implIXT_EJSG_DpT1_EE
FN:2427,2428,_ZSt12__get_helperILm1ESt17reference_wrapperISt6vectorISt5tupleIJN6BICYCL6_Utils17CL_HSM_CipherTextINS3_8CL_HSMqkEEES7_S7_EESaIS8_EEEJmmNS4_16CL_HSM_PublicKeyIS6_EES0_IS8_EEERT0_RSt11_Tuple_implIXT_EJSF_DpT1_EE
FN:2427,2428,_ZSt12__get_helperILm2E11curve_pointJNSt7__cxx1112basic_stringIcSt11char_traitsIcESaIcEEEEERT0_RSt11_Tuple_implIXT_EJS7_DpT1_EE
FN:2427,2428,_ZSt12__get_helperILm2EN6BICYCL6_Utils16CL_HSM_PublicKeyINS0_8CL_HSMqkEEEJNS1_17CL_HSM_CipherTextIS3_EES6_St17reference_wrapperISt5tupleIJS6_S6_S6_EEEEERT0_RSt11_Tuple_implIXT_EJSB_DpT1_EE
FN:2427,2428,_ZSt12__get_helperILm2EN6BICYCL6_Utils16CL_HSM_PublicKeyINS0_8CL_HSMqkEEEJSt17reference_wrapperISt5tupleIJNS1_17CL_HSM_CipherTextIS3_EE11curve_pointEEEPSt5mutexEERT0_RSt11_Tuple_implIXT_EJSE_DpT1_EE
FN:2427,2428,_ZSt12__get_helperILm2EN6BICYCL6_Utils16CL_HSM_PublicKeyINS0_8CL_HSMqkEEEJSt17reference_wrapperISt6vectorISt5tupleIJNS1_17CL_HSM_CipherTextIS3_EE11curve_pointEESaISB_EEEPSt5mutexEERT0_RSt11_Tuple_implIXT_EJSH_DpT1_EE
FN:2427,2428,_ZSt12__get_helperILm2EN6BICYCL6_Utils17CL_HSM_CipherTextINS0_8CL_HSMqkEEEJEERT0_RSt11_Tuple_implIXT_EJS5_DpT1_EE
FN:2427,2428,_ZSt12__get_helperILm2EN6BICYCL6_Utils17CL_HSM_CipherTextINS0_8CL_HSMqkEEEJNSt7__cxx1112basic_stringIcSt11char_traitsIcESaIcEEEEERT0_RSt11_Tuple_implIXT_EJSB_DpT1_EE
FN:2427,2428,_ZSt12__get_helperILm2EN6BICYCL6_Utils17CL_HSM_CipherTextINS0_8CL_HSMqkEEEJSt17reference_wrapperINS0_3QFIEEEERT0_RSt11_Tuple_implIXT_EJS8_DpT1_EE
FN:2427,2428,_ZSt12__get_helperILm2ESt17reference_wrapperIN6BICYCL3QFIEEJS0_IKNS1_3MpzEEEERT0_RSt11_Tuple_implIXT_EJS7_DpT1_EE
FN:2427,2428,_ZSt12__get_helperILm2EmJmN6BICYCL6_Utils16CL_HSM_PublicKeyINS0_8CL_HSMqkEEESt17reference_wrapperISt5tupleIJNS1_17CL_HSM_CipherTextIS3_EE11curve_pointEEEEERT0_RSt11_Tuple_implIXT_EJSC_DpT1_EE
FN:2427,2428,_ZSt12__get_helperILm2EmJmN6BICYCL6_Utils16CL_HSM_PublicKeyINS0_8CL_HSMqkEEESt17reference_wrapperISt5tupleIJNS1_17CL_HSM_CipherTextIS3_EES8_S8_EEEEERT0_RSt11_Tuple_implIXT_EJSB_DpT1_EE
FN:2427,2428,_ZSt12__get_helperILm2EmJmSt17reference_wrapperIN6BICYCL3QFIEEEERT0_RSt11_Tuple_implIXT_EJS4_DpT1_EE
FN:2427,2428,_ZSt12__get_helperILm3EN6BICYCL6_Utils17CL_HSM_CipherTextINS0_8CL_HSMqkEEEJS4_EERT0_RSt11_Tuple_implIXT_EJS5_DpT1_EE
FN:2427,2428,_ZSt12__get_helperILm3EN6BICYCL6_Utils17CL_HSM_CipherTextINS0_8CL_HSMqkEEEJS4_St17reference_wrapperISt5tupleIJS4_S4_S4_EEEEERT0_RSt11_Tuple_implIXT_EJS9_DpT1_EE
FN:2427,2428,_ZSt12__get_helperILm3ENSt7__cxx1112basic_stringIcSt11char_traitsIcESaIcEEEJEERT0_RSt11_Tuple_implIXT_EJS6_DpT1_EE
FN:2427,2428,_ZSt12__get_helperILm3ESt17reference_wrapperIKN6BICYCL3MpzEEJEERT0_RSt11_Tuple_implIXT_EJS5_DpT1_EE
FN:2427,2428,_ZSt12__get_helperILm3ESt17reference_wrapperIN6BICYCL3QFIEEJEERT0_RSt11_Tuple_implIXT_EJS4_DpT1_EE
FN:2427,2428,_ZSt12__get_helperILm3ESt17reference_wrapperISt5tupleIJN6BICYCL6_Utils17CL_HSM_CipherTextINS2_8CL_HSMqkEEE11curve_pointEEEJPSt5mutexEERT0_RSt11_Tuple_implIXT_EJSC_DpT1_EE
FN:2427,2428,_ZSt12__get_helperILm3ESt17reference_wrapperISt6vectorISt5tupleIJN6BICYCL6_Utils17CL_HSM_CipherTextINS3_8CL_HSMqkEEE11curve_pointEESaIS9_EEEJPSt5mutexEERT0_RSt11_Tuple_implIXT_EJSF_DpT1_EE
FN:2427,2428,_ZSt12__get_helperILm3EmJN6BICYCL6_Utils16CL_HSM_PublicKeyINS0_8CL_HSMqkEEESt17reference_wrapperISt5tupleIJNS1_17CL_HSM_CipherTextIS3_EE11curve_pointEEEEERT0_RSt11_Tuple_implIXT_EJSC_DpT1_EE
FN:2427,2428,_ZSt12__get_helperILm3EmJN6BICYCL6_Utils16CL_HSM_PublicKeyINS0_8CL_HSMqkEEESt17reference_wrapperISt5tupleIJNS1_17CL_HSM_CipherTextIS3_EES8_S8_EEEEERT0_RSt11_Tuple_implIXT_EJSB_DpT1_EE
FN:2427,2428,_ZSt12__get_helperILm3EmJSt17reference_wrapperIN6BICYCL3QFIEEEERT0_RSt11_Tuple_implIXT_EJS4_DpT1_EE
FN:2427,2428,_ZSt12__get_helperILm4EN6BICYCL6_Utils16CL_HSM_PublicKeyINS0_8CL_HSMqkEEEJSt17reference_wrapperISt5tupleIJNS1_17CL_HSM_CipherTextIS3_EE11curve_pointEEEEERT0_RSt11_Tuple_implIXT_EJSC_DpT1_EE
FN:2427,2428,_ZSt12__get_helperILm4EN6BICYCL6_Utils16CL_HSM_PublicKeyINS0_8CL_HSMqkEEEJSt17reference_wrapperISt5tupleIJNS1_17CL_HSM_CipherTextIS3_EES8_S8_EEEEERT0_RSt11_Tuple_implIXT_EJSB_DpT1_EE
FN:2427,2428,_ZSt12__get_helperILm4EN6BICYCL6_Utils17CL_HSM_CipherTextINS0_8CL_HSMqkEEEJEERT0_RSt11_Tuple_implIXT_EJS5_DpT1_EE
FN:2427,2428,_ZSt12__get_helperILm4EN6BICYCL6_Utils17CL_HSM_CipherTextINS0_8CL_HSMqkEEEJSt17reference_wrapperISt5tupleIJS4_S4_S4_EEEEERT0_RSt11_Tuple_implIXT_EJS9_DpT1_EE
FN:2427,2428,_ZSt12__get_helperILm4EPSt5mutexJEERT0_RSt11_Tuple_implIXT_EJS2_DpT1_EE
FN:2427,2428,_ZSt12__get_helperILm4ESt17reference_wrapperIN6BICYCL3QFIEEJEERT0_RSt11_Tuple_implIXT_EJS4_DpT1_EE
FN:2427,2428,_ZSt12__get_helperILm5ESt17reference_wrapperISt5tupleIJN6BICYCL6_Utils17CL_HSM_CipherTextINS2_8CL_HSMqkEEE11curve_pointEEEJEERT0_RSt11_Tuple_implIXT_EJSA_DpT1_EE
FN:2427,2428,_ZSt12__get_helperILm5ESt17reference_wrapperISt5tupleIJN6BICYCL6_Utils17CL_HSM_CipherTextINS2_8CL_HSMqkEEES6_S6_EEEJEERT0_RSt11_Tuple_implIXT_EJS9_DpT1_EE
FN:2443,2444,_ZSt3getILm0EJN6BICYCL6_Utils17CL_HSM_CipherTextINS0_8CL_HSMqkEEE11curve_pointEERNSt13tuple_elementIXT_ESt5tupleIJDpT0_EEE4typeERSA_
FN:2443,2444,_ZSt3getILm0EJN6BICYCL6_Utils17CL_HSM_CipherTextINS0_8CL_HSMqkEEES4_S4_EERNSt13tuple_elementIXT_ESt5tupleIJDpT0_EEE4typeERS9_
FN:2443,2444,_ZSt3getILm0EJNSt7__cxx1112basic_stringIcSt11char_traitsIcESaIcEEEN6BICYCL6_Utils17CL_HSM_CipherTextINS6_8CL_HSMqkEEE11curve_pointS5_EERNSt13tuple_elementIXT_ESt5tupleIJDpT0_EEE4typeERSG_
FN:2443,2444,_ZSt3getILm0EJP14PolicyContractN6BICYCL6_Utils16CL_HSM_PublicKeyINS2_8CL_HSMqkEEENS3_17CL_HSM_CipherTextIS5_EENSt7__cxx1112basic_stringIcSt11char_traitsIcESaIcEEEEERNSt13tuple_elementIXT_ESt5tupleIJDpT0_EEE4typeERSJ_
FN:2443,2444,_ZSt3getILm0EJP21AccessControlContractPKN6BICYCL3QFIEmmSt17reference_wrapperIS3_EEERNSt13tuple_elementIXT_ESt5tupleIJDpT0_EEE4typeERSC_
FN:2443,2444,_ZSt3getILm0EJP21AccessControlContractSt17reference_wrapperISt6vectorISt5tupleIJN6BICYCL6_Utils17CL_HSM_CipherTextINS5_8CL_HSMqkEEE11curve_pointEESaISB_EEEmmNS6_16CL_HSM_PublicKeyIS8_EES2_ISB_EEERNSt13tuple_elementIXT_ES4_IJDpT0_EEE4typeERSL_
FN:2443,2444,_ZSt3getILm0EJP21AccessControlContractSt17reference_wrapperISt6vectorISt5tupleIJN6BICYCL6_Utils17CL_HSM_CipherTextINS5_8CL_HSMqkEEES9_S9_EESaISA_EEEmmNS6_16CL_HSM_PublicKeyIS8_EES2_ISA_EEERNSt13tuple_elementIXT_ES4_IJDpT0_EEE4typeERSK_
FN:2443,2444,_ZSt3getILm0EJP4UserN6BICYCL8CL_HSMqkENS2_6_Utils16CL_HSM_PublicKeyIS3_EENS4_17CL_HSM_CipherTextIS3_EES8_St17reference_wrapperISt5tupleIJS8_S8_S8_EEEEERNSt13tuple_elementIXT_ESA_IJDpT0_EEE4typeERSG_
FN:2443,2444,_ZSt3getILm0EJP4UserN6BICYCL8CL_HSMqkENS2_6_Utils16CL_HSM_PublicKeyIS3_EESt17reference_wrapperISt6vectorISt5tupleIJNS4_17CL_HSM_CipherTextIS3_EE11curve_pointEESaISD_EEEPSt5mutexEERNSt13tuple_elementIXT_ES9_IJDpT0_EEE4typeERSM_
FN:2443,2444,_ZSt3getILm0EJP4UserN6BICYCL8CL_HSMqkENS2_6_Utils17CL_HSM_CipherTextIS3_EESt17reference_wrapperINS2_3QFIEEEERNSt13tuple_elementIXT_ESt5tupleIJDpT0_EEE4typeERSE_
FN:2443,2444,_ZSt3getILm0EJP9ValidatorN6BICYCL8CL_HSMqkENS2_6_Utils16CL_HSM_PublicKeyIS3_EENS4_17CL_HSM_CipherTextIS3_EES8_St17reference_wrapperISt5tupleIJS8_S8_S8_EEEEERNSt13tuple_elementIXT_ESA_IJDpT0_EEE4typeERSG_
FN:2443,2444,_ZSt3getILm0EJP9ValidatorN6BICYCL8CL_HSMqkENS2_6_Utils16CL_HSM_PublicKeyIS3_EESt17reference_wrapperISt5tupleIJNS4_17CL_HSM_CipherTextIS3_EE11curve_pointEEEPSt5mutexEERNSt13tuple_elementIXT_ES8_IJDpT0_EEE4typeERSJ_
FN:2443,2444,_ZSt3getILm0EJP9ValidatorN6BICYCL8CL_HSMqkENS2_6_Utils17CL_HSM_CipherTextIS3_EESt17reference_wrapperINS2_3QFIEEEERNSt13tuple_elementIXT_ESt5tupleIJDpT0_EEE4typeERSE_
FN:2443,2444,_ZSt3getILm0EJPNSt6thread6_StateESt14default_deleteIS1_EEERNSt13tuple_elementIXT_ESt5tupleIJDpT0_EEE4typeERS9_
FN:2443,2444,_ZSt3getILm1EJN6BICYCL6_Utils17CL_HSM_CipherTextINS0_8CL_HSMqkEEE11curve_pointEERNSt13tuple_elementIXT_ESt5tupleIJDpT0_EEE4typeERSA_
FN:2443,2444,_ZSt3getILm1EJN6BICYCL6_Utils17CL_HSM_CipherTextINS0_8CL_HSMqkEEES4_S4_EERNSt13tuple_elementIXT_ESt5tupleIJDpT0_EEE4typeERS9_
FN:2443,2444,_ZSt3getILm1EJNSt7__cxx1112basic_stringIcSt11char_traitsIcESaIcEEEN6BICYCL6_Utils16CL_HSM_ClearTextINS6_8CL_HSMqkEEEEERNSt13tuple_elementIXT_ESt5tupleIJDpT0_EEE4typeERSF_
FN:2443,2444,_ZSt3getILm1EJNSt7__cxx1112basic_stringIcSt11char_traitsIcESaIcEEEN6BICYCL6_Utils17CL_HSM_CipherTextINS6_8CL_HSMqkEEE11curve_pointS5_EERNSt13tuple_elementIXT_ESt5tupleIJDpT0_EEE4typeERSG_
FN:2443,2444,_ZSt3getILm1EJP14PolicyContractN6BICYCL6_Utils16CL_HSM_PublicKeyINS2_8CL_HSMqkEEENS3_17CL_HSM_CipherTextIS5_EENSt7__cxx1112basic_stringIcSt11char_traitsIcESaIcEEEEERNSt13tuple_elementIXT_ESt5tupleIJDpT0_EEE4typeERSJ_
FN:2443,2444,_ZSt3getILm1EJP21AccessControlContractPKN6BICYCL3QFIEmmSt17reference_wrapperIS3_EEERNSt13tuple_elementIXT_ESt5tupleIJDpT0_EEE4typeERSC_
FN:2443,2444,_ZSt3getILm1EJP21AccessControlContractSt17reference_wrapperISt6vectorISt5tupleIJN6BICYCL6_Utils17CL_HSM_CipherTextINS5_8CL_HSMqkEEE11curve_pointEESaISB_EEEmmNS6_16CL_HSM_PublicKeyIS8_EES2_ISB_EEERNSt13tuple_elementIXT_ES4_IJDpT0_EEE4typeERSL_
FN:2443,2444,_ZSt3getILm1EJP21AccessControlContractSt17reference_wrapperISt6vectorISt5tupleIJN6BICYCL6_Utils17CL_HSM_CipherTextINS5_8CL_HSMqkEEES9_S9_EESaISA_EEEmmNS6_16CL_HSM_PublicKeyIS8_EES2_ISA_EEERNSt13tuple_elementIXT_ES4_IJDpT0_EEE4typeERSK_
FN:2443,2444,_ZSt3getILm1EJP4UserN6BICYCL8CL_HSMqkENS2_6_Utils16CL_HSM_PublicKeyIS3_EENS4_17CL_HSM_CipherTextIS3_EES8_St17reference_wrapperISt5tupleIJS8_S8_S8_EEEEERNSt13tuple_elementIXT_ESA_IJDpT0_EEE4typeERSG_
FN:2443,2444,_ZSt3getILm1EJP4UserN6BICYCL8CL_HSMqkENS2_6_Utils16CL_HSM_PublicKeyIS3_EESt17reference_wrapperISt6vectorISt5tupleIJNS4_17CL_HSM_CipherTextIS3_EE11curve_pointEESaISD_EEEPSt5mutexEERNSt13tuple_elementIXT_ES9_IJDpT0_EEE4typeERSM_
FN:2443,2444,_ZSt3getILm1EJP4UserN6BICYCL8CL_HSMqkENS2_6_Utils17CL_HSM_CipherTextIS3_EESt17reference_wrapperINS2_3QFIEEEERNSt13tuple_elementIXT_ESt5tupleIJDpT0_EEE4typeERSE_
FN:2443,2444,_ZSt3getILm1EJP9ValidatorN6BICYCL8CL_HSMqkENS2_6_Utils16CL_HSM_PublicKeyIS3_EENS4_17CL_HSM_CipherTextIS3_EES8_St17reference_wrapperISt5tupleIJS8_S8_S8_EEEEERNSt13tuple_elementIXT_ESA_IJDpT0_EEE4typeERSG_
FN:2443,2444,_ZSt3getILm1EJP9ValidatorN6BICYCL8CL_HSMqkENS2_6_Utils16CL_HSM_PublicKeyIS3_EESt17reference_wrapperISt5tupleIJNS4_17CL_HSM_CipherTextIS3_EE11curve_pointEEEPSt5mutexEERNSt13tuple_elementIXT_ES8_IJDpT0_EEE4typeERSJ_
FN:2443,2444,_ZSt3getILm1EJP9ValidatorN6BICYCL8CL_HSMqkENS2_6_Utils17CL_HSM_CipherTextIS3_EESt17reference_wrapperINS2_3QFIEEEERNSt13tuple_elementIXT_ESt5tupleIJDpT0_EEE4typeERSE_
FN:2443,2444,_ZSt3getILm1EJPNSt6thread6_StateESt14default_deleteIS1_EEERNSt13tuple_elementIXT_ESt5tupleIJDpT0_EEE4typeERS9_
FN:2443,2444,_ZSt3getILm2EJN6BICYCL6_Utils17CL_HSM_CipherTextINS0_8CL_HSMqkEEES4_S4_EERNSt13tuple_elementIXT_ESt5tupleIJDpT0_EEE4typeERS9_
FN:2443,2444,_ZSt3getILm2EJNSt7__cxx1112basic_stringIcSt11char_traitsIcESaIcEEEN6BICYCL6_Utils17CL_HSM_CipherTextINS6_8CL_HSMqkEEE11curve_pointS5_EERNSt13tuple_elementIXT_ESt5tupleIJDpT0_EEE4typeERSG_
FN:2443,2444,_ZSt3getILm2EJP14PolicyContractN6BICYCL6_Utils16CL_HSM_PublicKeyINS2_8CL_HSMqkEEENS3_17CL_HSM_CipherTextIS5_EENSt7__cxx1112basic_stringIcSt11char_traitsIcESaIcEEEEERNSt13tuple_elementIXT_ESt5tupleIJDpT0_EEE4typeERSJ_
FN:2443,2444,_ZSt3getILm2EJP21AccessControlContractPKN6BICYCL3QFIEmmSt17reference_wrapperIS3_EEERNSt13tuple_elementIXT_ESt5tupleIJDpT0_EEE4typeERSC_
FN:2443,2444,_ZSt3getILm2EJP21AccessControlContractSt17reference_wrapperISt6vectorISt5tupleIJN6BICYCL6_Utils17CL_HSM_CipherTextINS5_8CL_HSMqkEEE11curve_pointEESaISB_EEEmmNS6_16CL_HSM_PublicKeyIS8_EES2_ISB_EEERNSt13tuple_elementIXT_ES4_IJDpT0_EEE4typeERSL_
FN:2443,2444,_ZSt3getILm2EJP21AccessControlContractSt17reference_wrapperISt6vectorISt5tupleIJN6BICYCL6_Utils17CL_HSM_CipherTextINS5_8CL_HSMqkEEES9_S9_EESaISA_EEEmmNS6_16CL_HSM_PublicKeyIS8_EES2_ISA_EEERNSt13tuple_elementIXT_ES4_IJDpT0_EEE4typeERSK_
FN:2443,2444,_ZSt3getILm2EJP4UserN6BICYCL8CL_HSMqkENS2_6_Utils16CL_HSM_PublicKeyIS3_EENS4_17CL_HSM_CipherTextIS3_EES8_St17reference_wrapperISt5tupleIJS8_S8_S8_EEEEERNSt13tuple_elementIXT_ESA_IJDpT0_EEE4typeERSG_
FN:2443,2444,_ZSt3getILm2EJP4UserN6BICYCL8CL_HSMqkENS2_6_Utils16CL_HSM_PublicKeyIS3_EESt17reference_wrapperISt6vectorISt5tupleIJNS4_17CL_HSM_CipherTextIS3_EE11curve_pointEESaISD_EEEPSt5mutexEERNSt13tuple_elementIXT_ES9_IJDpT0_EEE4typeERSM_
FN:2443,2444,_ZSt3getILm2EJP4UserN6BICYCL8CL_HSMqkENS2_6_Utils17CL_HSM_CipherTextIS3_EESt17reference_wrapperINS2_3QFIEEEERNSt13tuple_elementIXT_ESt5tupleIJDpT0_EEE4typeERSE_
FN:2443,2444,_ZSt3getILm2EJP9ValidatorN6BICYCL8CL_HSMqkENS2_6_Utils16CL_HSM_PublicKeyIS3_EENS4_17CL_HSM_CipherTextIS3_EES8_St17reference_wrapperISt5tupleIJS8_S8_S8_EEEEERNSt13tuple_elementIXT_ESA_IJDpT0_EEE4typeERSG_
FN:2443,2444,_ZSt3getILm2EJP9ValidatorN6BICYCL8CL_HSMqkENS2_6_Utils16CL_HSM_PublicKeyIS3_EESt17reference_wrapperISt5tupleIJNS4_17CL_HSM_CipherTextIS3_EE11curve_pointEEEPSt5mutexEERNSt13tuple_elementIXT_ES8_IJDpT0_EEE4typeERSJ_
FN:2443,2444,_ZSt3getILm2EJP9ValidatorN6BICYCL8CL_HSMqkENS2_6_Utils17CL_HSM_CipherTextIS3_EESt17reference_wrapperINS2_3QFIEEEERNSt13tuple_elementIXT_ESt5tupleIJDpT0_EEE4typeERSE_
FN:2443,2444,_ZSt3getILm3EJNSt7__cxx1112basic_stringIcSt11char_traitsIcESaIcEEEN6BICYCL6_Utils17CL_HSM_CipherTextINS6_8CL_HSMqkEEE11curve_pointS5_EERNSt13tuple_elementIXT_ESt5tupleIJDpT0_EEE4typeERSG_
FN:2443,2444,_ZSt3getILm3EJNSt7__cxx1112basic_stringIcSt11char_traitsIcESaIcEEEN6BICYCL6_Utils17CL_HSM_CipherTextINS6_8CL_HSMqkEEESA_SA_SA_EERNSt13tuple_elementIXT_ESt5tupleIJDpT0_EEE4typeERSF_
FN:2443,2444,_ZSt3getILm3EJP14PolicyContractN6BICYCL6_Utils16CL_HSM_PublicKeyINS2_8CL_HSMqkEEENS3_17CL_HSM_CipherTextIS5_EENSt7__cxx1112basic_stringIcSt11char_traitsIcESaIcEEEEERNSt13tuple_elementIXT_ESt5tupleIJDpT0_EEE4typeERSJ_
FN:2443,2444,_ZSt3getILm3EJP21AccessControlContractPKN6BICYCL3QFIEmmSt17reference_wrapperIS3_EEERNSt13tuple_elementIXT_ESt5tupleIJDpT0_EEE4typeERSC_
FN:2443,2444,_ZSt3getILm3EJP21AccessControlContractSt17reference_wrapperISt6vectorISt5tupleIJN6BICYCL6_Utils17CL_HSM_CipherTextINS5_8CL_HSMqkEEE11curve_pointEESaISB_EEEmmNS6_16CL_HSM_PublicKeyIS8_EES2_ISB_EEERNSt13tuple_elementIXT_ES4_IJDpT0_EEE4typeERSL_
FN:2443,2444,_ZSt3getILm3EJP21AccessControlContractSt17reference_wrapperISt6vectorISt5tupleIJN6BICYCL6_Utils17CL_HSM_CipherTextINS5_8CL_HSMqkEEES9_S9_EESaISA_EEEmmNS6_16CL_HSM_PublicKeyIS8_EES2_ISA_EEERNSt13tuple_elementIXT_ES4_IJDpT0_EEE4typeERSK_
FN:2443,2444,_ZSt3getILm3EJP4UserN6BICYCL8CL_HSMqkENS2_6_Utils16CL_HSM_PublicKeyIS3_EENS4_17CL_HSM_CipherTextIS3_EES8_St17reference_wrapperISt5tupleIJS8_S8_S8_EEEEERNSt13tuple_elementIXT_ESA_IJDpT0_EEE4typeERSG_
FN:2443,2444,_ZSt3getILm3EJP4UserN6BICYCL8CL_HSMqkENS2_6_Utils16CL_HSM_PublicKeyIS3_EESt17reference_wrapperISt6vectorISt5tupleIJNS4_17CL_HSM_CipherTextIS3_EE11curve_pointEESaISD_EEEPSt5mutexEERNSt13tuple_elementIXT_ES9_IJDpT0_EEE4typeERSM_
FN:2443,2444,_ZSt3getILm3EJP4UserN6BICYCL8CL_HSMqkENS2_6_Utils17CL_HSM_CipherTextIS3_EESt17reference_wrapperINS2_3QFIEEEERNSt13tuple_elementIXT_ESt5tupleIJDpT0_EEE4typeERSE_
FN:2443,2444,_ZSt3getILm3EJP9ValidatorN6BICYCL8CL_HSMqkENS2_6_Utils16CL_HSM_PublicKeyIS3_EENS4_17CL_HSM_CipherTextIS3_EES8_St17reference_wrapperISt5tupleIJS8_S8_S8_EEEEERNSt13tuple_elementIXT_ESA_IJDpT0_EEE4typeERSG_
FN:2443,2444,_ZSt3getILm3EJP9ValidatorN6BICYCL8CL_HSMqkENS2_6_Utils16CL_HSM_PublicKeyIS3_EESt17reference_wrapperISt5tupleIJNS4_17CL_HSM_CipherTextIS3_EE11curve_pointEEEPSt5mutexEERNSt13tuple_elementIXT_ES8_IJDpT0_EEE4typeERSJ_
FN:2443,2444,_ZSt3getILm3EJP9ValidatorN6BICYCL8CL_HSMqkENS2_6_Utils17CL_HSM_CipherTextIS3_EESt17reference_wrapperINS2_3QFIEEEERNSt13tuple_elementIXT_ESt5tupleIJDpT0_EEE4typeERSE_
FN:2443,2444,_ZSt3getILm4EJNSt7__cxx1112basic_stringIcSt11char_traitsIcESaIcEEEN6BICYCL6_Utils17CL_HSM_CipherTextINS6_8CL_HSMqkEEESA_SA_SA_EERNSt13tuple_elementIXT_ESt5tupleIJDpT0_EEE4typeERSF_
FN:2443,2444,_ZSt3getILm4EJP21AccessControlContractPKN6BICYCL3QFIEmmSt17reference_wrapperIS3_EEERNSt13tuple_elementIXT_ESt5tupleIJDpT0_EEE4typeERSC_
FN:2443,2444,_ZSt3getILm4EJP21AccessControlContractSt17reference_wrapperISt6vectorISt5tupleIJN6BICYCL6_Utils17CL_HSM_CipherTextINS5_8CL_HSMqkEEE11curve_pointEESaISB_EEEmmNS6_16CL_HSM_PublicKeyIS8_EES2_ISB_EEERNSt13tuple_elementIXT_ES4_IJDpT0_EEE4typeERSL_
FN:2443,2444,_ZSt3getILm4EJP21AccessControlContractSt17reference_wrapperISt6vectorISt5tupleIJN6BICYCL6_Utils17CL_HSM_CipherTextINS5_8CL_HSMqkEEES9_S9_EESaISA_EEEmmNS6_16CL_HSM_PublicKeyIS8_EES2_ISA_EEERNSt13tuple_elementIXT_ES4_IJDpT0_EEE4typeERSK_
FN:2443,2444,_ZSt3getILm4EJP4UserN6BICYCL8CL_HSMqkENS2_6_Utils16CL_HSM_PublicKeyIS3_EENS4_17CL_HSM_CipherTextIS3_EES8_St17reference_wrapperISt5tupleIJS8_S8_S8_EEEEERNSt13tuple_elementIXT_ESA_IJDpT0_EEE4typeERSG_
FN:2443,2444,_ZSt3getILm4EJP4UserN6BICYCL8CL_HSMqkENS2_6_Utils16CL_HSM_PublicKeyIS3_EESt17reference_wrapperISt6vectorISt5tupleIJNS4_17CL_HSM_CipherTextIS3_EE11curve_pointEESaISD_EEEPSt5mutexEERNSt13tuple_elementIXT_ES9_IJDpT0_EEE4typeERSM_
FN:2443,2444,_ZSt3getILm4EJP9ValidatorN6BICYCL8CL_HSMqkENS2_6_Utils16CL_HSM_PublicKeyIS3_EENS4_17CL_HSM_CipherTextIS3_EES8_St17reference_wrapperISt5tupleIJS8_S8_S8_EEEEERNSt13tuple_elementIXT_ESA_IJDpT0_EEE4typeERSG_
FN:2443,2444,_ZSt3getILm4EJP9ValidatorN6BICYCL8CL_HSMqkENS2_6_Utils16CL_HSM_PublicKeyIS3_EESt17reference_wrapperISt5tupleIJNS4_17CL_HSM_CipherTextIS3_EE11curve_pointEEEPSt5mutexEERNSt13tuple_elementIXT_ES8_IJDpT0_EEE4typeERSJ_
FN:2443,2444,_ZSt3getILm5EJP21AccessControlContractSt17reference_wrapperISt6vectorISt5tupleIJN6BICYCL6_Utils17CL_HSM_CipherTextINS5_8CL_HSMqkEEE11curve_pointEESaISB_EEEmmNS6_16CL_HSM_PublicKeyIS8_EES2_ISB_EEERNSt13tuple_elementIXT_ES4_IJDpT0_EEE4typeERSL_
FN:2443,2444,_ZSt3getILm5EJP21AccessControlContractSt17reference_wrapperISt6vectorISt5tupleIJN6BICYCL6_Utils17CL_HSM_CipherTextINS5_8CL_HSMqkEEES9_S9_EESaISA_EEEmmNS6_16CL_HSM_PublicKeyIS8_EES2_ISA_EEERNSt13tuple_elementIXT_ES4_IJDpT0_EEE4typeERSK_
FN:2443,2444,_ZSt3getILm5EJP4UserN6BICYCL8CL_HSMqkENS2_6_Utils16CL_HSM_PublicKeyIS3_EENS4_17CL_HSM_CipherTextIS3_EES8_St17reference_wrapperISt5tupleIJS8_S8_S8_EEEEERNSt13tuple_elementIXT_ESA_IJDpT0_EEE4typeERSG_
FN:2443,2444,_ZSt3getILm5EJP9ValidatorN6BICYCL8CL_HSMqkENS2_6_Utils16CL_HSM_PublicKeyIS3_EENS4_17CL_HSM_CipherTextIS3_EES8_St17reference_wrapperISt5tupleIJS8_S8_S8_EEEEERNSt13tuple_elementIXT_ESA_IJDpT0_EEE4typeERSG_
FN:2455,2459,_ZSt3getILm0EJMN6BICYCL8CL_HSM2kEKFvRNS0_3QFIERKNS0_3MpzEES1_St17reference_wrapperIS2_ES9_IS5_EEEONSt13tuple_elementIXT_ESt5tupleIJDpT0_EEE4typeEOSG_
FN:2455,2459,_ZSt3getILm0EJMN6BICYCL8CL_HSMqkEKFvRNS0_3QFIERKNS0_3MpzEES1_St17reference_wrapperIS2_ES9_IS5_EEEONSt13tuple_elementIXT_ESt5tupleIJDpT0_EEE4typeEOSG_
FN:2455,2459,_ZSt3getILm0EJZN10ThreadPoolC4EmEUlvE_EEONSt13tuple_elementIXT_ESt5tupleIJDpT0_EEE4typeEOS6_
FN:2455,2459,_ZSt3getILm1EJMN6BICYCL8CL_HSM2kEKFvRNS0_3QFIERKNS0_3MpzEES1_St17reference_wrapperIS2_ES9_IS5_EEEONSt13tuple_elementIXT_ESt5tupleIJDpT0_EEE4typeEOSG_
FN:2455,2459,_ZSt3getILm1EJMN6BICYCL8CL_HSMqkEKFvRNS0_3QFIERKNS0_3MpzEES1_St17reference_wrapperIS2_ES9_IS5_EEEONSt13tuple_elementIXT_ESt5tupleIJDpT0_EEE4typeEOSG_
FN:2455,2459,_ZSt3getILm2EJMN6BICYCL8CL_HSM2kEKFvRNS0_3QFIERKNS0_3MpzEES1_St17reference_wrapperIS2_ES9_IS5_EEEONSt13tuple_elementIXT_ESt5tupleIJDpT0_EEE4typeEOSG_
FN:2455,2459,_ZSt3getILm2EJMN6BICYCL8CL_HSMqkEKFvRNS0_3QFIERKNS0_3MpzEES1_St17reference_wrapperIS2_ES9_IS5_EEEONSt13tuple_elementIXT_ESt5tupleIJDpT0_EEE4typeEOSG_
FN:2455,2459,_ZSt3getILm3EJMN6BICYCL8CL_HSM2kEKFvRNS0_3QFIERKNS0_3MpzEES1_St17reference_wrapperIS2_ES9_IS5_EEEONSt13tuple_elementIXT_ESt5tupleIJDpT0_EEE4typeEOSG_
FN:2455,2459,_ZSt3getILm3EJMN6BICYCL8CL_HSMqkEKFvRNS0_3QFIERKNS0_3MpzEES1_St17reference_wrapperIS2_ES9_IS5_EEEONSt13tuple_elementIXT_ESt5tupleIJDpT0_EEE4typeEOSG_
FN:2638,2643,_ZSt10make_tupleIJRKNSt7__cxx1112basic_stringIcSt11char_traitsIcESaIcEEERN6BICYCL6_Utils17CL_HSM_CipherTextINS8_8CL_HSMqkEEER11curve_pointRS5_EESt5tupleIJDpNSt25__strip_reference_wrapperINSt5decayIT_E4typeEE6__typeEEEDpOSK_
FN:2638,2643,_ZSt10make_tupleIJRN6BICYCL6_Utils17CL_HSM_CipherTextINS0_8CL_HSMqkEEER11curve_pointEESt5tupleIJDpNSt25__strip_reference_wrapperINSt5decayIT_E4typeEE6__typeEEEDpOSB_
FN:2638,2643,_ZSt10make_tupleIJRN6BICYCL6_Utils17CL_HSM_CipherTextINS0_8CL_HSMqkEEES5_S5_EESt5tupleIJDpNSt25__strip_reference_wrapperINSt5decayIT_E4typeEE6__typeEEEDpOS9_
FN:2638,2643,_ZSt10make_tupleIJRNSt7__cxx1112basic_stringIcSt11char_traitsIcESaIcEEERN6BICYCL6_Utils16CL_HSM_ClearTextINS7_8CL_HSMqkEEEEESt5tupleIJDpNSt25__strip_reference_wrapperINSt5decayIT_E4typeEE6__typeEEEDpOSG_
FN:2638,2643,_ZSt10make_tupleIJRNSt7__cxx1112basic_stringIcSt11char_traitsIcESaIcEEERN6BICYCL6_Utils17CL_HSM_CipherTextINS7_8CL_HSMqkEEESC_SC_SC_EESt5tupleIJDpNSt25__strip_reference_wrapperINSt5decayIT_E4typeEE6__typeEEEDpOSG_
